
CG2028_Assignment.elf:     file format elf32-littlearm

Sections:
Idx Name          Size      VMA       LMA       File off  Algn
  0 .isr_vector   000001bc  08000000  08000000  00001000  2**0
                  CONTENTS, ALLOC, LOAD, READONLY, DATA
  1 .text         00008f20  080001c0  080001c0  000011c0  2**4
                  CONTENTS, ALLOC, LOAD, READONLY, CODE
  2 .rodata       00000c0c  080090e0  080090e0  0000a0e0  2**3
                  CONTENTS, ALLOC, LOAD, READONLY, DATA
  3 .ARM.extab    00000000  08009cec  08009cec  0000b248  2**0
                  CONTENTS
  4 .ARM          00000008  08009cec  08009cec  0000acec  2**2
                  CONTENTS, ALLOC, LOAD, READONLY, DATA
  5 .preinit_array 00000000  08009cf4  08009cf4  0000b248  2**0
                  CONTENTS, ALLOC, LOAD, DATA
  6 .init_array   00000004  08009cf4  08009cf4  0000acf4  2**2
                  CONTENTS, ALLOC, LOAD, DATA
  7 .fini_array   00000004  08009cf8  08009cf8  0000acf8  2**2
                  CONTENTS, ALLOC, LOAD, DATA
  8 .data         00000248  20000000  08009cfc  0000b000  2**2
                  CONTENTS, ALLOC, LOAD, DATA
  9 .bss          000002e0  20000248  08009f44  0000b248  2**2
                  ALLOC
 10 ._user_heap_stack 00000600  20000528  08009f44  0000b528  2**0
                  ALLOC
 11 .ARM.attributes 00000030  00000000  00000000  0000b248  2**0
                  CONTENTS, READONLY
 12 .debug_info   0001118f  00000000  00000000  0000b278  2**0
                  CONTENTS, READONLY, DEBUGGING, OCTETS
 13 .debug_abbrev 00002223  00000000  00000000  0001c407  2**0
                  CONTENTS, READONLY, DEBUGGING, OCTETS
 14 .debug_aranges 00000e20  00000000  00000000  0001e630  2**3
                  CONTENTS, READONLY, DEBUGGING, OCTETS
 15 .debug_rnglists 00000acc  00000000  00000000  0001f450  2**0
                  CONTENTS, READONLY, DEBUGGING, OCTETS
 16 .debug_macro  0002f0cf  00000000  00000000  0001ff1c  2**0
                  CONTENTS, READONLY, DEBUGGING, OCTETS
 17 .debug_line   00013054  00000000  00000000  0004efeb  2**0
                  CONTENTS, READONLY, DEBUGGING, OCTETS
 18 .debug_str    00125bbc  00000000  00000000  0006203f  2**0
                  CONTENTS, READONLY, DEBUGGING, OCTETS
 19 .comment      00000043  00000000  00000000  00187bfb  2**0
                  CONTENTS, READONLY
 20 .debug_frame  00004e24  00000000  00000000  00187c40  2**2
                  CONTENTS, READONLY, DEBUGGING, OCTETS
 21 .debug_line_str 0000007d  00000000  00000000  0018ca64  2**0
                  CONTENTS, READONLY, DEBUGGING, OCTETS

Disassembly of section .text:

080001c0 <__do_global_dtors_aux>:
 80001c0:	b510      	push	{r4, lr}
 80001c2:	4c05      	ldr	r4, [pc, #20]	@ (80001d8 <__do_global_dtors_aux+0x18>)
 80001c4:	7823      	ldrb	r3, [r4, #0]
 80001c6:	b933      	cbnz	r3, 80001d6 <__do_global_dtors_aux+0x16>
 80001c8:	4b04      	ldr	r3, [pc, #16]	@ (80001dc <__do_global_dtors_aux+0x1c>)
 80001ca:	b113      	cbz	r3, 80001d2 <__do_global_dtors_aux+0x12>
 80001cc:	4804      	ldr	r0, [pc, #16]	@ (80001e0 <__do_global_dtors_aux+0x20>)
 80001ce:	f3af 8000 	nop.w
 80001d2:	2301      	movs	r3, #1
 80001d4:	7023      	strb	r3, [r4, #0]
 80001d6:	bd10      	pop	{r4, pc}
 80001d8:	20000248 	.word	0x20000248
 80001dc:	00000000 	.word	0x00000000
 80001e0:	080090c8 	.word	0x080090c8

080001e4 <frame_dummy>:
 80001e4:	b508      	push	{r3, lr}
 80001e6:	4b03      	ldr	r3, [pc, #12]	@ (80001f4 <frame_dummy+0x10>)
 80001e8:	b11b      	cbz	r3, 80001f2 <frame_dummy+0xe>
 80001ea:	4903      	ldr	r1, [pc, #12]	@ (80001f8 <frame_dummy+0x14>)
 80001ec:	4803      	ldr	r0, [pc, #12]	@ (80001fc <frame_dummy+0x18>)
 80001ee:	f3af 8000 	nop.w
 80001f2:	bd08      	pop	{r3, pc}
 80001f4:	00000000 	.word	0x00000000
 80001f8:	2000024c 	.word	0x2000024c
 80001fc:	080090c8 	.word	0x080090c8

08000200 <mov_avg>:
@ You could create a look-up table of registers here:
@ R0 ...
@ R1 ...
@ write your program from here:
mov_avg:
    PUSH {r2-r11, lr}   @ Save registers (Teaching Team Template)
 8000200:	e92d 4ffc 	stmdb	sp!, {r2, r3, r4, r5, r6, r7, r8, r9, sl, fp, lr}

    MOV r2, #0          @ r2 = loop counter (i = 0)
 8000204:	f04f 0200 	mov.w	r2, #0
    MOV r3, #0          @ r3 = accumulator (sum = 0)
 8000208:	f04f 0300 	mov.w	r3, #0

0800020c <loop>:

loop:
    CMP r2, r0          @ Compare i with N (r0)
 800020c:	4282      	cmp	r2, r0
    BGE end_loop        @ If i >= N, exit loop
 800020e:	da05      	bge.n	800021c <end_loop>

    LDR r4, [r1, r2, LSL #2]  @ Load accel_buff[i] into r4. (Offset = i * 4 bytes)
 8000210:	f851 4022 	ldr.w	r4, [r1, r2, lsl #2]
    ADD r3, r3, r4      @ sum += accel_buff[i]
 8000214:	4423      	add	r3, r4

    ADD r2, r2, #1      @ i++
 8000216:	f102 0201 	add.w	r2, r2, #1
    B loop              @ Repeat loop
 800021a:	e7f7      	b.n	800020c <loop>

0800021c <end_loop>:

end_loop:
	SDIV r0, r3, r0
 800021c:	fb93 f0f0 	sdiv	r0, r3, r0
    POP {r2-r11, pc}    @ Restore registers and return
 8000220:	e8bd 8ffc 	ldmia.w	sp!, {r2, r3, r4, r5, r6, r7, r8, r9, sl, fp, pc}
	...

08000230 <memchr>:
 8000230:	f001 01ff 	and.w	r1, r1, #255	@ 0xff
 8000234:	2a10      	cmp	r2, #16
 8000236:	db2b      	blt.n	8000290 <memchr+0x60>
 8000238:	f010 0f07 	tst.w	r0, #7
 800023c:	d008      	beq.n	8000250 <memchr+0x20>
 800023e:	f810 3b01 	ldrb.w	r3, [r0], #1
 8000242:	3a01      	subs	r2, #1
 8000244:	428b      	cmp	r3, r1
 8000246:	d02d      	beq.n	80002a4 <memchr+0x74>
 8000248:	f010 0f07 	tst.w	r0, #7
 800024c:	b342      	cbz	r2, 80002a0 <memchr+0x70>
 800024e:	d1f6      	bne.n	800023e <memchr+0xe>
 8000250:	b4f0      	push	{r4, r5, r6, r7}
 8000252:	ea41 2101 	orr.w	r1, r1, r1, lsl #8
 8000256:	ea41 4101 	orr.w	r1, r1, r1, lsl #16
 800025a:	f022 0407 	bic.w	r4, r2, #7
 800025e:	f07f 0700 	mvns.w	r7, #0
 8000262:	2300      	movs	r3, #0
 8000264:	e8f0 5602 	ldrd	r5, r6, [r0], #8
 8000268:	3c08      	subs	r4, #8
 800026a:	ea85 0501 	eor.w	r5, r5, r1
 800026e:	ea86 0601 	eor.w	r6, r6, r1
 8000272:	fa85 f547 	uadd8	r5, r5, r7
 8000276:	faa3 f587 	sel	r5, r3, r7
 800027a:	fa86 f647 	uadd8	r6, r6, r7
 800027e:	faa5 f687 	sel	r6, r5, r7
 8000282:	b98e      	cbnz	r6, 80002a8 <memchr+0x78>
 8000284:	d1ee      	bne.n	8000264 <memchr+0x34>
 8000286:	bcf0      	pop	{r4, r5, r6, r7}
 8000288:	f001 01ff 	and.w	r1, r1, #255	@ 0xff
 800028c:	f002 0207 	and.w	r2, r2, #7
 8000290:	b132      	cbz	r2, 80002a0 <memchr+0x70>
 8000292:	f810 3b01 	ldrb.w	r3, [r0], #1
 8000296:	3a01      	subs	r2, #1
 8000298:	ea83 0301 	eor.w	r3, r3, r1
 800029c:	b113      	cbz	r3, 80002a4 <memchr+0x74>
 800029e:	d1f8      	bne.n	8000292 <memchr+0x62>
 80002a0:	2000      	movs	r0, #0
 80002a2:	4770      	bx	lr
 80002a4:	3801      	subs	r0, #1
 80002a6:	4770      	bx	lr
 80002a8:	2d00      	cmp	r5, #0
 80002aa:	bf06      	itte	eq
 80002ac:	4635      	moveq	r5, r6
 80002ae:	3803      	subeq	r0, #3
 80002b0:	3807      	subne	r0, #7
 80002b2:	f015 0f01 	tst.w	r5, #1
 80002b6:	d107      	bne.n	80002c8 <memchr+0x98>
 80002b8:	3001      	adds	r0, #1
 80002ba:	f415 7f80 	tst.w	r5, #256	@ 0x100
 80002be:	bf02      	ittt	eq
 80002c0:	3001      	addeq	r0, #1
 80002c2:	f415 3fc0 	tsteq.w	r5, #98304	@ 0x18000
 80002c6:	3001      	addeq	r0, #1
 80002c8:	bcf0      	pop	{r4, r5, r6, r7}
 80002ca:	3801      	subs	r0, #1
 80002cc:	4770      	bx	lr
 80002ce:	bf00      	nop

080002d0 <strlen>:
 80002d0:	4603      	mov	r3, r0
 80002d2:	f813 2b01 	ldrb.w	r2, [r3], #1
 80002d6:	2a00      	cmp	r2, #0
 80002d8:	d1fb      	bne.n	80002d2 <strlen+0x2>
 80002da:	1a18      	subs	r0, r3, r0
 80002dc:	3801      	subs	r0, #1
 80002de:	4770      	bx	lr

080002e0 <__aeabi_drsub>:
 80002e0:	f081 4100 	eor.w	r1, r1, #2147483648	@ 0x80000000
 80002e4:	e002      	b.n	80002ec <__adddf3>
 80002e6:	bf00      	nop

080002e8 <__aeabi_dsub>:
 80002e8:	f083 4300 	eor.w	r3, r3, #2147483648	@ 0x80000000

080002ec <__adddf3>:
 80002ec:	b530      	push	{r4, r5, lr}
 80002ee:	ea4f 0441 	mov.w	r4, r1, lsl #1
 80002f2:	ea4f 0543 	mov.w	r5, r3, lsl #1
 80002f6:	ea94 0f05 	teq	r4, r5
 80002fa:	bf08      	it	eq
 80002fc:	ea90 0f02 	teqeq	r0, r2
 8000300:	bf1f      	itttt	ne
 8000302:	ea54 0c00 	orrsne.w	ip, r4, r0
 8000306:	ea55 0c02 	orrsne.w	ip, r5, r2
 800030a:	ea7f 5c64 	mvnsne.w	ip, r4, asr #21
 800030e:	ea7f 5c65 	mvnsne.w	ip, r5, asr #21
 8000312:	f000 80e2 	beq.w	80004da <__adddf3+0x1ee>
 8000316:	ea4f 5454 	mov.w	r4, r4, lsr #21
 800031a:	ebd4 5555 	rsbs	r5, r4, r5, lsr #21
 800031e:	bfb8      	it	lt
 8000320:	426d      	neglt	r5, r5
 8000322:	dd0c      	ble.n	800033e <__adddf3+0x52>
 8000324:	442c      	add	r4, r5
 8000326:	ea80 0202 	eor.w	r2, r0, r2
 800032a:	ea81 0303 	eor.w	r3, r1, r3
 800032e:	ea82 0000 	eor.w	r0, r2, r0
 8000332:	ea83 0101 	eor.w	r1, r3, r1
 8000336:	ea80 0202 	eor.w	r2, r0, r2
 800033a:	ea81 0303 	eor.w	r3, r1, r3
 800033e:	2d36      	cmp	r5, #54	@ 0x36
 8000340:	bf88      	it	hi
 8000342:	bd30      	pophi	{r4, r5, pc}
 8000344:	f011 4f00 	tst.w	r1, #2147483648	@ 0x80000000
 8000348:	ea4f 3101 	mov.w	r1, r1, lsl #12
 800034c:	f44f 1c80 	mov.w	ip, #1048576	@ 0x100000
 8000350:	ea4c 3111 	orr.w	r1, ip, r1, lsr #12
 8000354:	d002      	beq.n	800035c <__adddf3+0x70>
 8000356:	4240      	negs	r0, r0
 8000358:	eb61 0141 	sbc.w	r1, r1, r1, lsl #1
 800035c:	f013 4f00 	tst.w	r3, #2147483648	@ 0x80000000
 8000360:	ea4f 3303 	mov.w	r3, r3, lsl #12
 8000364:	ea4c 3313 	orr.w	r3, ip, r3, lsr #12
 8000368:	d002      	beq.n	8000370 <__adddf3+0x84>
 800036a:	4252      	negs	r2, r2
 800036c:	eb63 0343 	sbc.w	r3, r3, r3, lsl #1
 8000370:	ea94 0f05 	teq	r4, r5
 8000374:	f000 80a7 	beq.w	80004c6 <__adddf3+0x1da>
 8000378:	f1a4 0401 	sub.w	r4, r4, #1
 800037c:	f1d5 0e20 	rsbs	lr, r5, #32
 8000380:	db0d      	blt.n	800039e <__adddf3+0xb2>
 8000382:	fa02 fc0e 	lsl.w	ip, r2, lr
 8000386:	fa22 f205 	lsr.w	r2, r2, r5
 800038a:	1880      	adds	r0, r0, r2
 800038c:	f141 0100 	adc.w	r1, r1, #0
 8000390:	fa03 f20e 	lsl.w	r2, r3, lr
 8000394:	1880      	adds	r0, r0, r2
 8000396:	fa43 f305 	asr.w	r3, r3, r5
 800039a:	4159      	adcs	r1, r3
 800039c:	e00e      	b.n	80003bc <__adddf3+0xd0>
 800039e:	f1a5 0520 	sub.w	r5, r5, #32
 80003a2:	f10e 0e20 	add.w	lr, lr, #32
 80003a6:	2a01      	cmp	r2, #1
 80003a8:	fa03 fc0e 	lsl.w	ip, r3, lr
 80003ac:	bf28      	it	cs
 80003ae:	f04c 0c02 	orrcs.w	ip, ip, #2
 80003b2:	fa43 f305 	asr.w	r3, r3, r5
 80003b6:	18c0      	adds	r0, r0, r3
 80003b8:	eb51 71e3 	adcs.w	r1, r1, r3, asr #31
 80003bc:	f001 4500 	and.w	r5, r1, #2147483648	@ 0x80000000
 80003c0:	d507      	bpl.n	80003d2 <__adddf3+0xe6>
 80003c2:	f04f 0e00 	mov.w	lr, #0
 80003c6:	f1dc 0c00 	rsbs	ip, ip, #0
 80003ca:	eb7e 0000 	sbcs.w	r0, lr, r0
 80003ce:	eb6e 0101 	sbc.w	r1, lr, r1
 80003d2:	f5b1 1f80 	cmp.w	r1, #1048576	@ 0x100000
 80003d6:	d31b      	bcc.n	8000410 <__adddf3+0x124>
 80003d8:	f5b1 1f00 	cmp.w	r1, #2097152	@ 0x200000
 80003dc:	d30c      	bcc.n	80003f8 <__adddf3+0x10c>
 80003de:	0849      	lsrs	r1, r1, #1
 80003e0:	ea5f 0030 	movs.w	r0, r0, rrx
 80003e4:	ea4f 0c3c 	mov.w	ip, ip, rrx
 80003e8:	f104 0401 	add.w	r4, r4, #1
 80003ec:	ea4f 5244 	mov.w	r2, r4, lsl #21
 80003f0:	f512 0f80 	cmn.w	r2, #4194304	@ 0x400000
 80003f4:	f080 809a 	bcs.w	800052c <__adddf3+0x240>
 80003f8:	f1bc 4f00 	cmp.w	ip, #2147483648	@ 0x80000000
 80003fc:	bf08      	it	eq
 80003fe:	ea5f 0c50 	movseq.w	ip, r0, lsr #1
 8000402:	f150 0000 	adcs.w	r0, r0, #0
 8000406:	eb41 5104 	adc.w	r1, r1, r4, lsl #20
 800040a:	ea41 0105 	orr.w	r1, r1, r5
 800040e:	bd30      	pop	{r4, r5, pc}
 8000410:	ea5f 0c4c 	movs.w	ip, ip, lsl #1
 8000414:	4140      	adcs	r0, r0
 8000416:	eb41 0101 	adc.w	r1, r1, r1
 800041a:	3c01      	subs	r4, #1
 800041c:	bf28      	it	cs
 800041e:	f5b1 1f80 	cmpcs.w	r1, #1048576	@ 0x100000
 8000422:	d2e9      	bcs.n	80003f8 <__adddf3+0x10c>
 8000424:	f091 0f00 	teq	r1, #0
 8000428:	bf04      	itt	eq
 800042a:	4601      	moveq	r1, r0
 800042c:	2000      	moveq	r0, #0
 800042e:	fab1 f381 	clz	r3, r1
 8000432:	bf08      	it	eq
 8000434:	3320      	addeq	r3, #32
 8000436:	f1a3 030b 	sub.w	r3, r3, #11
 800043a:	f1b3 0220 	subs.w	r2, r3, #32
 800043e:	da0c      	bge.n	800045a <__adddf3+0x16e>
 8000440:	320c      	adds	r2, #12
 8000442:	dd08      	ble.n	8000456 <__adddf3+0x16a>
 8000444:	f102 0c14 	add.w	ip, r2, #20
 8000448:	f1c2 020c 	rsb	r2, r2, #12
 800044c:	fa01 f00c 	lsl.w	r0, r1, ip
 8000450:	fa21 f102 	lsr.w	r1, r1, r2
 8000454:	e00c      	b.n	8000470 <__adddf3+0x184>
 8000456:	f102 0214 	add.w	r2, r2, #20
 800045a:	bfd8      	it	le
 800045c:	f1c2 0c20 	rsble	ip, r2, #32
 8000460:	fa01 f102 	lsl.w	r1, r1, r2
 8000464:	fa20 fc0c 	lsr.w	ip, r0, ip
 8000468:	bfdc      	itt	le
 800046a:	ea41 010c 	orrle.w	r1, r1, ip
 800046e:	4090      	lslle	r0, r2
 8000470:	1ae4      	subs	r4, r4, r3
 8000472:	bfa2      	ittt	ge
 8000474:	eb01 5104 	addge.w	r1, r1, r4, lsl #20
 8000478:	4329      	orrge	r1, r5
 800047a:	bd30      	popge	{r4, r5, pc}
 800047c:	ea6f 0404 	mvn.w	r4, r4
 8000480:	3c1f      	subs	r4, #31
 8000482:	da1c      	bge.n	80004be <__adddf3+0x1d2>
 8000484:	340c      	adds	r4, #12
 8000486:	dc0e      	bgt.n	80004a6 <__adddf3+0x1ba>
 8000488:	f104 0414 	add.w	r4, r4, #20
 800048c:	f1c4 0220 	rsb	r2, r4, #32
 8000490:	fa20 f004 	lsr.w	r0, r0, r4
 8000494:	fa01 f302 	lsl.w	r3, r1, r2
 8000498:	ea40 0003 	orr.w	r0, r0, r3
 800049c:	fa21 f304 	lsr.w	r3, r1, r4
 80004a0:	ea45 0103 	orr.w	r1, r5, r3
 80004a4:	bd30      	pop	{r4, r5, pc}
 80004a6:	f1c4 040c 	rsb	r4, r4, #12
 80004aa:	f1c4 0220 	rsb	r2, r4, #32
 80004ae:	fa20 f002 	lsr.w	r0, r0, r2
 80004b2:	fa01 f304 	lsl.w	r3, r1, r4
 80004b6:	ea40 0003 	orr.w	r0, r0, r3
 80004ba:	4629      	mov	r1, r5
 80004bc:	bd30      	pop	{r4, r5, pc}
 80004be:	fa21 f004 	lsr.w	r0, r1, r4
 80004c2:	4629      	mov	r1, r5
 80004c4:	bd30      	pop	{r4, r5, pc}
 80004c6:	f094 0f00 	teq	r4, #0
 80004ca:	f483 1380 	eor.w	r3, r3, #1048576	@ 0x100000
 80004ce:	bf06      	itte	eq
 80004d0:	f481 1180 	eoreq.w	r1, r1, #1048576	@ 0x100000
 80004d4:	3401      	addeq	r4, #1
 80004d6:	3d01      	subne	r5, #1
 80004d8:	e74e      	b.n	8000378 <__adddf3+0x8c>
 80004da:	ea7f 5c64 	mvns.w	ip, r4, asr #21
 80004de:	bf18      	it	ne
 80004e0:	ea7f 5c65 	mvnsne.w	ip, r5, asr #21
 80004e4:	d029      	beq.n	800053a <__adddf3+0x24e>
 80004e6:	ea94 0f05 	teq	r4, r5
 80004ea:	bf08      	it	eq
 80004ec:	ea90 0f02 	teqeq	r0, r2
 80004f0:	d005      	beq.n	80004fe <__adddf3+0x212>
 80004f2:	ea54 0c00 	orrs.w	ip, r4, r0
 80004f6:	bf04      	itt	eq
 80004f8:	4619      	moveq	r1, r3
 80004fa:	4610      	moveq	r0, r2
 80004fc:	bd30      	pop	{r4, r5, pc}
 80004fe:	ea91 0f03 	teq	r1, r3
 8000502:	bf1e      	ittt	ne
 8000504:	2100      	movne	r1, #0
 8000506:	2000      	movne	r0, #0
 8000508:	bd30      	popne	{r4, r5, pc}
 800050a:	ea5f 5c54 	movs.w	ip, r4, lsr #21
 800050e:	d105      	bne.n	800051c <__adddf3+0x230>
 8000510:	0040      	lsls	r0, r0, #1
 8000512:	4149      	adcs	r1, r1
 8000514:	bf28      	it	cs
 8000516:	f041 4100 	orrcs.w	r1, r1, #2147483648	@ 0x80000000
 800051a:	bd30      	pop	{r4, r5, pc}
 800051c:	f514 0480 	adds.w	r4, r4, #4194304	@ 0x400000
 8000520:	bf3c      	itt	cc
 8000522:	f501 1180 	addcc.w	r1, r1, #1048576	@ 0x100000
 8000526:	bd30      	popcc	{r4, r5, pc}
 8000528:	f001 4500 	and.w	r5, r1, #2147483648	@ 0x80000000
 800052c:	f045 41fe 	orr.w	r1, r5, #2130706432	@ 0x7f000000
 8000530:	f441 0170 	orr.w	r1, r1, #15728640	@ 0xf00000
 8000534:	f04f 0000 	mov.w	r0, #0
 8000538:	bd30      	pop	{r4, r5, pc}
 800053a:	ea7f 5c64 	mvns.w	ip, r4, asr #21
 800053e:	bf1a      	itte	ne
 8000540:	4619      	movne	r1, r3
 8000542:	4610      	movne	r0, r2
 8000544:	ea7f 5c65 	mvnseq.w	ip, r5, asr #21
 8000548:	bf1c      	itt	ne
 800054a:	460b      	movne	r3, r1
 800054c:	4602      	movne	r2, r0
 800054e:	ea50 3401 	orrs.w	r4, r0, r1, lsl #12
 8000552:	bf06      	itte	eq
 8000554:	ea52 3503 	orrseq.w	r5, r2, r3, lsl #12
 8000558:	ea91 0f03 	teqeq	r1, r3
 800055c:	f441 2100 	orrne.w	r1, r1, #524288	@ 0x80000
 8000560:	bd30      	pop	{r4, r5, pc}
 8000562:	bf00      	nop

08000564 <__aeabi_ui2d>:
 8000564:	f090 0f00 	teq	r0, #0
 8000568:	bf04      	itt	eq
 800056a:	2100      	moveq	r1, #0
 800056c:	4770      	bxeq	lr
 800056e:	b530      	push	{r4, r5, lr}
 8000570:	f44f 6480 	mov.w	r4, #1024	@ 0x400
 8000574:	f104 0432 	add.w	r4, r4, #50	@ 0x32
 8000578:	f04f 0500 	mov.w	r5, #0
 800057c:	f04f 0100 	mov.w	r1, #0
 8000580:	e750      	b.n	8000424 <__adddf3+0x138>
 8000582:	bf00      	nop

08000584 <__aeabi_i2d>:
 8000584:	f090 0f00 	teq	r0, #0
 8000588:	bf04      	itt	eq
 800058a:	2100      	moveq	r1, #0
 800058c:	4770      	bxeq	lr
 800058e:	b530      	push	{r4, r5, lr}
 8000590:	f44f 6480 	mov.w	r4, #1024	@ 0x400
 8000594:	f104 0432 	add.w	r4, r4, #50	@ 0x32
 8000598:	f010 4500 	ands.w	r5, r0, #2147483648	@ 0x80000000
 800059c:	bf48      	it	mi
 800059e:	4240      	negmi	r0, r0
 80005a0:	f04f 0100 	mov.w	r1, #0
 80005a4:	e73e      	b.n	8000424 <__adddf3+0x138>
 80005a6:	bf00      	nop

080005a8 <__aeabi_f2d>:
 80005a8:	0042      	lsls	r2, r0, #1
 80005aa:	ea4f 01e2 	mov.w	r1, r2, asr #3
 80005ae:	ea4f 0131 	mov.w	r1, r1, rrx
 80005b2:	ea4f 7002 	mov.w	r0, r2, lsl #28
 80005b6:	bf1f      	itttt	ne
 80005b8:	f012 437f 	andsne.w	r3, r2, #4278190080	@ 0xff000000
 80005bc:	f093 4f7f 	teqne	r3, #4278190080	@ 0xff000000
 80005c0:	f081 5160 	eorne.w	r1, r1, #939524096	@ 0x38000000
 80005c4:	4770      	bxne	lr
 80005c6:	f032 427f 	bics.w	r2, r2, #4278190080	@ 0xff000000
 80005ca:	bf08      	it	eq
 80005cc:	4770      	bxeq	lr
 80005ce:	f093 4f7f 	teq	r3, #4278190080	@ 0xff000000
 80005d2:	bf04      	itt	eq
 80005d4:	f441 2100 	orreq.w	r1, r1, #524288	@ 0x80000
 80005d8:	4770      	bxeq	lr
 80005da:	b530      	push	{r4, r5, lr}
 80005dc:	f44f 7460 	mov.w	r4, #896	@ 0x380
 80005e0:	f001 4500 	and.w	r5, r1, #2147483648	@ 0x80000000
 80005e4:	f021 4100 	bic.w	r1, r1, #2147483648	@ 0x80000000
 80005e8:	e71c      	b.n	8000424 <__adddf3+0x138>
 80005ea:	bf00      	nop

080005ec <__aeabi_ul2d>:
 80005ec:	ea50 0201 	orrs.w	r2, r0, r1
 80005f0:	bf08      	it	eq
 80005f2:	4770      	bxeq	lr
 80005f4:	b530      	push	{r4, r5, lr}
 80005f6:	f04f 0500 	mov.w	r5, #0
 80005fa:	e00a      	b.n	8000612 <__aeabi_l2d+0x16>

080005fc <__aeabi_l2d>:
 80005fc:	ea50 0201 	orrs.w	r2, r0, r1
 8000600:	bf08      	it	eq
 8000602:	4770      	bxeq	lr
 8000604:	b530      	push	{r4, r5, lr}
 8000606:	f011 4500 	ands.w	r5, r1, #2147483648	@ 0x80000000
 800060a:	d502      	bpl.n	8000612 <__aeabi_l2d+0x16>
 800060c:	4240      	negs	r0, r0
 800060e:	eb61 0141 	sbc.w	r1, r1, r1, lsl #1
 8000612:	f44f 6480 	mov.w	r4, #1024	@ 0x400
 8000616:	f104 0432 	add.w	r4, r4, #50	@ 0x32
 800061a:	ea5f 5c91 	movs.w	ip, r1, lsr #22
 800061e:	f43f aed8 	beq.w	80003d2 <__adddf3+0xe6>
 8000622:	f04f 0203 	mov.w	r2, #3
 8000626:	ea5f 0cdc 	movs.w	ip, ip, lsr #3
 800062a:	bf18      	it	ne
 800062c:	3203      	addne	r2, #3
 800062e:	ea5f 0cdc 	movs.w	ip, ip, lsr #3
 8000632:	bf18      	it	ne
 8000634:	3203      	addne	r2, #3
 8000636:	eb02 02dc 	add.w	r2, r2, ip, lsr #3
 800063a:	f1c2 0320 	rsb	r3, r2, #32
 800063e:	fa00 fc03 	lsl.w	ip, r0, r3
 8000642:	fa20 f002 	lsr.w	r0, r0, r2
 8000646:	fa01 fe03 	lsl.w	lr, r1, r3
 800064a:	ea40 000e 	orr.w	r0, r0, lr
 800064e:	fa21 f102 	lsr.w	r1, r1, r2
 8000652:	4414      	add	r4, r2
 8000654:	e6bd      	b.n	80003d2 <__adddf3+0xe6>
 8000656:	bf00      	nop

08000658 <__aeabi_dmul>:
 8000658:	b570      	push	{r4, r5, r6, lr}
 800065a:	f04f 0cff 	mov.w	ip, #255	@ 0xff
 800065e:	f44c 6ce0 	orr.w	ip, ip, #1792	@ 0x700
 8000662:	ea1c 5411 	ands.w	r4, ip, r1, lsr #20
 8000666:	bf1d      	ittte	ne
 8000668:	ea1c 5513 	andsne.w	r5, ip, r3, lsr #20
 800066c:	ea94 0f0c 	teqne	r4, ip
 8000670:	ea95 0f0c 	teqne	r5, ip
 8000674:	f000 f8de 	bleq	8000834 <__aeabi_dmul+0x1dc>
 8000678:	442c      	add	r4, r5
 800067a:	ea81 0603 	eor.w	r6, r1, r3
 800067e:	ea21 514c 	bic.w	r1, r1, ip, lsl #21
 8000682:	ea23 534c 	bic.w	r3, r3, ip, lsl #21
 8000686:	ea50 3501 	orrs.w	r5, r0, r1, lsl #12
 800068a:	bf18      	it	ne
 800068c:	ea52 3503 	orrsne.w	r5, r2, r3, lsl #12
 8000690:	f441 1180 	orr.w	r1, r1, #1048576	@ 0x100000
 8000694:	f443 1380 	orr.w	r3, r3, #1048576	@ 0x100000
 8000698:	d038      	beq.n	800070c <__aeabi_dmul+0xb4>
 800069a:	fba0 ce02 	umull	ip, lr, r0, r2
 800069e:	f04f 0500 	mov.w	r5, #0
 80006a2:	fbe1 e502 	umlal	lr, r5, r1, r2
 80006a6:	f006 4200 	and.w	r2, r6, #2147483648	@ 0x80000000
 80006aa:	fbe0 e503 	umlal	lr, r5, r0, r3
 80006ae:	f04f 0600 	mov.w	r6, #0
 80006b2:	fbe1 5603 	umlal	r5, r6, r1, r3
 80006b6:	f09c 0f00 	teq	ip, #0
 80006ba:	bf18      	it	ne
 80006bc:	f04e 0e01 	orrne.w	lr, lr, #1
 80006c0:	f1a4 04ff 	sub.w	r4, r4, #255	@ 0xff
 80006c4:	f5b6 7f00 	cmp.w	r6, #512	@ 0x200
 80006c8:	f564 7440 	sbc.w	r4, r4, #768	@ 0x300
 80006cc:	d204      	bcs.n	80006d8 <__aeabi_dmul+0x80>
 80006ce:	ea5f 0e4e 	movs.w	lr, lr, lsl #1
 80006d2:	416d      	adcs	r5, r5
 80006d4:	eb46 0606 	adc.w	r6, r6, r6
 80006d8:	ea42 21c6 	orr.w	r1, r2, r6, lsl #11
 80006dc:	ea41 5155 	orr.w	r1, r1, r5, lsr #21
 80006e0:	ea4f 20c5 	mov.w	r0, r5, lsl #11
 80006e4:	ea40 505e 	orr.w	r0, r0, lr, lsr #21
 80006e8:	ea4f 2ece 	mov.w	lr, lr, lsl #11
 80006ec:	f1b4 0cfd 	subs.w	ip, r4, #253	@ 0xfd
 80006f0:	bf88      	it	hi
 80006f2:	f5bc 6fe0 	cmphi.w	ip, #1792	@ 0x700
 80006f6:	d81e      	bhi.n	8000736 <__aeabi_dmul+0xde>
 80006f8:	f1be 4f00 	cmp.w	lr, #2147483648	@ 0x80000000
 80006fc:	bf08      	it	eq
 80006fe:	ea5f 0e50 	movseq.w	lr, r0, lsr #1
 8000702:	f150 0000 	adcs.w	r0, r0, #0
 8000706:	eb41 5104 	adc.w	r1, r1, r4, lsl #20
 800070a:	bd70      	pop	{r4, r5, r6, pc}
 800070c:	f006 4600 	and.w	r6, r6, #2147483648	@ 0x80000000
 8000710:	ea46 0101 	orr.w	r1, r6, r1
 8000714:	ea40 0002 	orr.w	r0, r0, r2
 8000718:	ea81 0103 	eor.w	r1, r1, r3
 800071c:	ebb4 045c 	subs.w	r4, r4, ip, lsr #1
 8000720:	bfc2      	ittt	gt
 8000722:	ebd4 050c 	rsbsgt	r5, r4, ip
 8000726:	ea41 5104 	orrgt.w	r1, r1, r4, lsl #20
 800072a:	bd70      	popgt	{r4, r5, r6, pc}
 800072c:	f441 1180 	orr.w	r1, r1, #1048576	@ 0x100000
 8000730:	f04f 0e00 	mov.w	lr, #0
 8000734:	3c01      	subs	r4, #1
 8000736:	f300 80ab 	bgt.w	8000890 <__aeabi_dmul+0x238>
 800073a:	f114 0f36 	cmn.w	r4, #54	@ 0x36
 800073e:	bfde      	ittt	le
 8000740:	2000      	movle	r0, #0
 8000742:	f001 4100 	andle.w	r1, r1, #2147483648	@ 0x80000000
 8000746:	bd70      	pople	{r4, r5, r6, pc}
 8000748:	f1c4 0400 	rsb	r4, r4, #0
 800074c:	3c20      	subs	r4, #32
 800074e:	da35      	bge.n	80007bc <__aeabi_dmul+0x164>
 8000750:	340c      	adds	r4, #12
 8000752:	dc1b      	bgt.n	800078c <__aeabi_dmul+0x134>
 8000754:	f104 0414 	add.w	r4, r4, #20
 8000758:	f1c4 0520 	rsb	r5, r4, #32
 800075c:	fa00 f305 	lsl.w	r3, r0, r5
 8000760:	fa20 f004 	lsr.w	r0, r0, r4
 8000764:	fa01 f205 	lsl.w	r2, r1, r5
 8000768:	ea40 0002 	orr.w	r0, r0, r2
 800076c:	f001 4200 	and.w	r2, r1, #2147483648	@ 0x80000000
 8000770:	f021 4100 	bic.w	r1, r1, #2147483648	@ 0x80000000
 8000774:	eb10 70d3 	adds.w	r0, r0, r3, lsr #31
 8000778:	fa21 f604 	lsr.w	r6, r1, r4
 800077c:	eb42 0106 	adc.w	r1, r2, r6
 8000780:	ea5e 0e43 	orrs.w	lr, lr, r3, lsl #1
 8000784:	bf08      	it	eq
 8000786:	ea20 70d3 	biceq.w	r0, r0, r3, lsr #31
 800078a:	bd70      	pop	{r4, r5, r6, pc}
 800078c:	f1c4 040c 	rsb	r4, r4, #12
 8000790:	f1c4 0520 	rsb	r5, r4, #32
 8000794:	fa00 f304 	lsl.w	r3, r0, r4
 8000798:	fa20 f005 	lsr.w	r0, r0, r5
 800079c:	fa01 f204 	lsl.w	r2, r1, r4
 80007a0:	ea40 0002 	orr.w	r0, r0, r2
 80007a4:	f001 4100 	and.w	r1, r1, #2147483648	@ 0x80000000
 80007a8:	eb10 70d3 	adds.w	r0, r0, r3, lsr #31
 80007ac:	f141 0100 	adc.w	r1, r1, #0
 80007b0:	ea5e 0e43 	orrs.w	lr, lr, r3, lsl #1
 80007b4:	bf08      	it	eq
 80007b6:	ea20 70d3 	biceq.w	r0, r0, r3, lsr #31
 80007ba:	bd70      	pop	{r4, r5, r6, pc}
 80007bc:	f1c4 0520 	rsb	r5, r4, #32
 80007c0:	fa00 f205 	lsl.w	r2, r0, r5
 80007c4:	ea4e 0e02 	orr.w	lr, lr, r2
 80007c8:	fa20 f304 	lsr.w	r3, r0, r4
 80007cc:	fa01 f205 	lsl.w	r2, r1, r5
 80007d0:	ea43 0302 	orr.w	r3, r3, r2
 80007d4:	fa21 f004 	lsr.w	r0, r1, r4
 80007d8:	f001 4100 	and.w	r1, r1, #2147483648	@ 0x80000000
 80007dc:	fa21 f204 	lsr.w	r2, r1, r4
 80007e0:	ea20 0002 	bic.w	r0, r0, r2
 80007e4:	eb00 70d3 	add.w	r0, r0, r3, lsr #31
 80007e8:	ea5e 0e43 	orrs.w	lr, lr, r3, lsl #1
 80007ec:	bf08      	it	eq
 80007ee:	ea20 70d3 	biceq.w	r0, r0, r3, lsr #31
 80007f2:	bd70      	pop	{r4, r5, r6, pc}
 80007f4:	f094 0f00 	teq	r4, #0
 80007f8:	d10f      	bne.n	800081a <__aeabi_dmul+0x1c2>
 80007fa:	f001 4600 	and.w	r6, r1, #2147483648	@ 0x80000000
 80007fe:	0040      	lsls	r0, r0, #1
 8000800:	eb41 0101 	adc.w	r1, r1, r1
 8000804:	f411 1f80 	tst.w	r1, #1048576	@ 0x100000
 8000808:	bf08      	it	eq
 800080a:	3c01      	subeq	r4, #1
 800080c:	d0f7      	beq.n	80007fe <__aeabi_dmul+0x1a6>
 800080e:	ea41 0106 	orr.w	r1, r1, r6
 8000812:	f095 0f00 	teq	r5, #0
 8000816:	bf18      	it	ne
 8000818:	4770      	bxne	lr
 800081a:	f003 4600 	and.w	r6, r3, #2147483648	@ 0x80000000
 800081e:	0052      	lsls	r2, r2, #1
 8000820:	eb43 0303 	adc.w	r3, r3, r3
 8000824:	f413 1f80 	tst.w	r3, #1048576	@ 0x100000
 8000828:	bf08      	it	eq
 800082a:	3d01      	subeq	r5, #1
 800082c:	d0f7      	beq.n	800081e <__aeabi_dmul+0x1c6>
 800082e:	ea43 0306 	orr.w	r3, r3, r6
 8000832:	4770      	bx	lr
 8000834:	ea94 0f0c 	teq	r4, ip
 8000838:	ea0c 5513 	and.w	r5, ip, r3, lsr #20
 800083c:	bf18      	it	ne
 800083e:	ea95 0f0c 	teqne	r5, ip
 8000842:	d00c      	beq.n	800085e <__aeabi_dmul+0x206>
 8000844:	ea50 0641 	orrs.w	r6, r0, r1, lsl #1
 8000848:	bf18      	it	ne
 800084a:	ea52 0643 	orrsne.w	r6, r2, r3, lsl #1
 800084e:	d1d1      	bne.n	80007f4 <__aeabi_dmul+0x19c>
 8000850:	ea81 0103 	eor.w	r1, r1, r3
 8000854:	f001 4100 	and.w	r1, r1, #2147483648	@ 0x80000000
 8000858:	f04f 0000 	mov.w	r0, #0
 800085c:	bd70      	pop	{r4, r5, r6, pc}
 800085e:	ea50 0641 	orrs.w	r6, r0, r1, lsl #1
 8000862:	bf06      	itte	eq
 8000864:	4610      	moveq	r0, r2
 8000866:	4619      	moveq	r1, r3
 8000868:	ea52 0643 	orrsne.w	r6, r2, r3, lsl #1
 800086c:	d019      	beq.n	80008a2 <__aeabi_dmul+0x24a>
 800086e:	ea94 0f0c 	teq	r4, ip
 8000872:	d102      	bne.n	800087a <__aeabi_dmul+0x222>
 8000874:	ea50 3601 	orrs.w	r6, r0, r1, lsl #12
 8000878:	d113      	bne.n	80008a2 <__aeabi_dmul+0x24a>
 800087a:	ea95 0f0c 	teq	r5, ip
 800087e:	d105      	bne.n	800088c <__aeabi_dmul+0x234>
 8000880:	ea52 3603 	orrs.w	r6, r2, r3, lsl #12
 8000884:	bf1c      	itt	ne
 8000886:	4610      	movne	r0, r2
 8000888:	4619      	movne	r1, r3
 800088a:	d10a      	bne.n	80008a2 <__aeabi_dmul+0x24a>
 800088c:	ea81 0103 	eor.w	r1, r1, r3
 8000890:	f001 4100 	and.w	r1, r1, #2147483648	@ 0x80000000
 8000894:	f041 41fe 	orr.w	r1, r1, #2130706432	@ 0x7f000000
 8000898:	f441 0170 	orr.w	r1, r1, #15728640	@ 0xf00000
 800089c:	f04f 0000 	mov.w	r0, #0
 80008a0:	bd70      	pop	{r4, r5, r6, pc}
 80008a2:	f041 41fe 	orr.w	r1, r1, #2130706432	@ 0x7f000000
 80008a6:	f441 0178 	orr.w	r1, r1, #16252928	@ 0xf80000
 80008aa:	bd70      	pop	{r4, r5, r6, pc}

080008ac <__aeabi_ddiv>:
 80008ac:	b570      	push	{r4, r5, r6, lr}
 80008ae:	f04f 0cff 	mov.w	ip, #255	@ 0xff
 80008b2:	f44c 6ce0 	orr.w	ip, ip, #1792	@ 0x700
 80008b6:	ea1c 5411 	ands.w	r4, ip, r1, lsr #20
 80008ba:	bf1d      	ittte	ne
 80008bc:	ea1c 5513 	andsne.w	r5, ip, r3, lsr #20
 80008c0:	ea94 0f0c 	teqne	r4, ip
 80008c4:	ea95 0f0c 	teqne	r5, ip
 80008c8:	f000 f8a7 	bleq	8000a1a <__aeabi_ddiv+0x16e>
 80008cc:	eba4 0405 	sub.w	r4, r4, r5
 80008d0:	ea81 0e03 	eor.w	lr, r1, r3
 80008d4:	ea52 3503 	orrs.w	r5, r2, r3, lsl #12
 80008d8:	ea4f 3101 	mov.w	r1, r1, lsl #12
 80008dc:	f000 8088 	beq.w	80009f0 <__aeabi_ddiv+0x144>
 80008e0:	ea4f 3303 	mov.w	r3, r3, lsl #12
 80008e4:	f04f 5580 	mov.w	r5, #268435456	@ 0x10000000
 80008e8:	ea45 1313 	orr.w	r3, r5, r3, lsr #4
 80008ec:	ea43 6312 	orr.w	r3, r3, r2, lsr #24
 80008f0:	ea4f 2202 	mov.w	r2, r2, lsl #8
 80008f4:	ea45 1511 	orr.w	r5, r5, r1, lsr #4
 80008f8:	ea45 6510 	orr.w	r5, r5, r0, lsr #24
 80008fc:	ea4f 2600 	mov.w	r6, r0, lsl #8
 8000900:	f00e 4100 	and.w	r1, lr, #2147483648	@ 0x80000000
 8000904:	429d      	cmp	r5, r3
 8000906:	bf08      	it	eq
 8000908:	4296      	cmpeq	r6, r2
 800090a:	f144 04fd 	adc.w	r4, r4, #253	@ 0xfd
 800090e:	f504 7440 	add.w	r4, r4, #768	@ 0x300
 8000912:	d202      	bcs.n	800091a <__aeabi_ddiv+0x6e>
 8000914:	085b      	lsrs	r3, r3, #1
 8000916:	ea4f 0232 	mov.w	r2, r2, rrx
 800091a:	1ab6      	subs	r6, r6, r2
 800091c:	eb65 0503 	sbc.w	r5, r5, r3
 8000920:	085b      	lsrs	r3, r3, #1
 8000922:	ea4f 0232 	mov.w	r2, r2, rrx
 8000926:	f44f 1080 	mov.w	r0, #1048576	@ 0x100000
 800092a:	f44f 2c00 	mov.w	ip, #524288	@ 0x80000
 800092e:	ebb6 0e02 	subs.w	lr, r6, r2
 8000932:	eb75 0e03 	sbcs.w	lr, r5, r3
 8000936:	bf22      	ittt	cs
 8000938:	1ab6      	subcs	r6, r6, r2
 800093a:	4675      	movcs	r5, lr
 800093c:	ea40 000c 	orrcs.w	r0, r0, ip
 8000940:	085b      	lsrs	r3, r3, #1
 8000942:	ea4f 0232 	mov.w	r2, r2, rrx
 8000946:	ebb6 0e02 	subs.w	lr, r6, r2
 800094a:	eb75 0e03 	sbcs.w	lr, r5, r3
 800094e:	bf22      	ittt	cs
 8000950:	1ab6      	subcs	r6, r6, r2
 8000952:	4675      	movcs	r5, lr
 8000954:	ea40 005c 	orrcs.w	r0, r0, ip, lsr #1
 8000958:	085b      	lsrs	r3, r3, #1
 800095a:	ea4f 0232 	mov.w	r2, r2, rrx
 800095e:	ebb6 0e02 	subs.w	lr, r6, r2
 8000962:	eb75 0e03 	sbcs.w	lr, r5, r3
 8000966:	bf22      	ittt	cs
 8000968:	1ab6      	subcs	r6, r6, r2
 800096a:	4675      	movcs	r5, lr
 800096c:	ea40 009c 	orrcs.w	r0, r0, ip, lsr #2
 8000970:	085b      	lsrs	r3, r3, #1
 8000972:	ea4f 0232 	mov.w	r2, r2, rrx
 8000976:	ebb6 0e02 	subs.w	lr, r6, r2
 800097a:	eb75 0e03 	sbcs.w	lr, r5, r3
 800097e:	bf22      	ittt	cs
 8000980:	1ab6      	subcs	r6, r6, r2
 8000982:	4675      	movcs	r5, lr
 8000984:	ea40 00dc 	orrcs.w	r0, r0, ip, lsr #3
 8000988:	ea55 0e06 	orrs.w	lr, r5, r6
 800098c:	d018      	beq.n	80009c0 <__aeabi_ddiv+0x114>
 800098e:	ea4f 1505 	mov.w	r5, r5, lsl #4
 8000992:	ea45 7516 	orr.w	r5, r5, r6, lsr #28
 8000996:	ea4f 1606 	mov.w	r6, r6, lsl #4
 800099a:	ea4f 03c3 	mov.w	r3, r3, lsl #3
 800099e:	ea43 7352 	orr.w	r3, r3, r2, lsr #29
 80009a2:	ea4f 02c2 	mov.w	r2, r2, lsl #3
 80009a6:	ea5f 1c1c 	movs.w	ip, ip, lsr #4
 80009aa:	d1c0      	bne.n	800092e <__aeabi_ddiv+0x82>
 80009ac:	f411 1f80 	tst.w	r1, #1048576	@ 0x100000
 80009b0:	d10b      	bne.n	80009ca <__aeabi_ddiv+0x11e>
 80009b2:	ea41 0100 	orr.w	r1, r1, r0
 80009b6:	f04f 0000 	mov.w	r0, #0
 80009ba:	f04f 4c00 	mov.w	ip, #2147483648	@ 0x80000000
 80009be:	e7b6      	b.n	800092e <__aeabi_ddiv+0x82>
 80009c0:	f411 1f80 	tst.w	r1, #1048576	@ 0x100000
 80009c4:	bf04      	itt	eq
 80009c6:	4301      	orreq	r1, r0
 80009c8:	2000      	moveq	r0, #0
 80009ca:	f1b4 0cfd 	subs.w	ip, r4, #253	@ 0xfd
 80009ce:	bf88      	it	hi
 80009d0:	f5bc 6fe0 	cmphi.w	ip, #1792	@ 0x700
 80009d4:	f63f aeaf 	bhi.w	8000736 <__aeabi_dmul+0xde>
 80009d8:	ebb5 0c03 	subs.w	ip, r5, r3
 80009dc:	bf04      	itt	eq
 80009de:	ebb6 0c02 	subseq.w	ip, r6, r2
 80009e2:	ea5f 0c50 	movseq.w	ip, r0, lsr #1
 80009e6:	f150 0000 	adcs.w	r0, r0, #0
 80009ea:	eb41 5104 	adc.w	r1, r1, r4, lsl #20
 80009ee:	bd70      	pop	{r4, r5, r6, pc}
 80009f0:	f00e 4e00 	and.w	lr, lr, #2147483648	@ 0x80000000
 80009f4:	ea4e 3111 	orr.w	r1, lr, r1, lsr #12
 80009f8:	eb14 045c 	adds.w	r4, r4, ip, lsr #1
 80009fc:	bfc2      	ittt	gt
 80009fe:	ebd4 050c 	rsbsgt	r5, r4, ip
 8000a02:	ea41 5104 	orrgt.w	r1, r1, r4, lsl #20
 8000a06:	bd70      	popgt	{r4, r5, r6, pc}
 8000a08:	f441 1180 	orr.w	r1, r1, #1048576	@ 0x100000
 8000a0c:	f04f 0e00 	mov.w	lr, #0
 8000a10:	3c01      	subs	r4, #1
 8000a12:	e690      	b.n	8000736 <__aeabi_dmul+0xde>
 8000a14:	ea45 0e06 	orr.w	lr, r5, r6
 8000a18:	e68d      	b.n	8000736 <__aeabi_dmul+0xde>
 8000a1a:	ea0c 5513 	and.w	r5, ip, r3, lsr #20
 8000a1e:	ea94 0f0c 	teq	r4, ip
 8000a22:	bf08      	it	eq
 8000a24:	ea95 0f0c 	teqeq	r5, ip
 8000a28:	f43f af3b 	beq.w	80008a2 <__aeabi_dmul+0x24a>
 8000a2c:	ea94 0f0c 	teq	r4, ip
 8000a30:	d10a      	bne.n	8000a48 <__aeabi_ddiv+0x19c>
 8000a32:	ea50 3401 	orrs.w	r4, r0, r1, lsl #12
 8000a36:	f47f af34 	bne.w	80008a2 <__aeabi_dmul+0x24a>
 8000a3a:	ea95 0f0c 	teq	r5, ip
 8000a3e:	f47f af25 	bne.w	800088c <__aeabi_dmul+0x234>
 8000a42:	4610      	mov	r0, r2
 8000a44:	4619      	mov	r1, r3
 8000a46:	e72c      	b.n	80008a2 <__aeabi_dmul+0x24a>
 8000a48:	ea95 0f0c 	teq	r5, ip
 8000a4c:	d106      	bne.n	8000a5c <__aeabi_ddiv+0x1b0>
 8000a4e:	ea52 3503 	orrs.w	r5, r2, r3, lsl #12
 8000a52:	f43f aefd 	beq.w	8000850 <__aeabi_dmul+0x1f8>
 8000a56:	4610      	mov	r0, r2
 8000a58:	4619      	mov	r1, r3
 8000a5a:	e722      	b.n	80008a2 <__aeabi_dmul+0x24a>
 8000a5c:	ea50 0641 	orrs.w	r6, r0, r1, lsl #1
 8000a60:	bf18      	it	ne
 8000a62:	ea52 0643 	orrsne.w	r6, r2, r3, lsl #1
 8000a66:	f47f aec5 	bne.w	80007f4 <__aeabi_dmul+0x19c>
 8000a6a:	ea50 0441 	orrs.w	r4, r0, r1, lsl #1
 8000a6e:	f47f af0d 	bne.w	800088c <__aeabi_dmul+0x234>
 8000a72:	ea52 0543 	orrs.w	r5, r2, r3, lsl #1
 8000a76:	f47f aeeb 	bne.w	8000850 <__aeabi_dmul+0x1f8>
 8000a7a:	e712      	b.n	80008a2 <__aeabi_dmul+0x24a>

08000a7c <__gedf2>:
 8000a7c:	f04f 3cff 	mov.w	ip, #4294967295
 8000a80:	e006      	b.n	8000a90 <__cmpdf2+0x4>
 8000a82:	bf00      	nop

08000a84 <__ledf2>:
 8000a84:	f04f 0c01 	mov.w	ip, #1
 8000a88:	e002      	b.n	8000a90 <__cmpdf2+0x4>
 8000a8a:	bf00      	nop

08000a8c <__cmpdf2>:
 8000a8c:	f04f 0c01 	mov.w	ip, #1
 8000a90:	f84d cd04 	str.w	ip, [sp, #-4]!
 8000a94:	ea4f 0c41 	mov.w	ip, r1, lsl #1
 8000a98:	ea7f 5c6c 	mvns.w	ip, ip, asr #21
 8000a9c:	ea4f 0c43 	mov.w	ip, r3, lsl #1
 8000aa0:	bf18      	it	ne
 8000aa2:	ea7f 5c6c 	mvnsne.w	ip, ip, asr #21
 8000aa6:	d01b      	beq.n	8000ae0 <__cmpdf2+0x54>
 8000aa8:	b001      	add	sp, #4
 8000aaa:	ea50 0c41 	orrs.w	ip, r0, r1, lsl #1
 8000aae:	bf0c      	ite	eq
 8000ab0:	ea52 0c43 	orrseq.w	ip, r2, r3, lsl #1
 8000ab4:	ea91 0f03 	teqne	r1, r3
 8000ab8:	bf02      	ittt	eq
 8000aba:	ea90 0f02 	teqeq	r0, r2
 8000abe:	2000      	moveq	r0, #0
 8000ac0:	4770      	bxeq	lr
 8000ac2:	f110 0f00 	cmn.w	r0, #0
 8000ac6:	ea91 0f03 	teq	r1, r3
 8000aca:	bf58      	it	pl
 8000acc:	4299      	cmppl	r1, r3
 8000ace:	bf08      	it	eq
 8000ad0:	4290      	cmpeq	r0, r2
 8000ad2:	bf2c      	ite	cs
 8000ad4:	17d8      	asrcs	r0, r3, #31
 8000ad6:	ea6f 70e3 	mvncc.w	r0, r3, asr #31
 8000ada:	f040 0001 	orr.w	r0, r0, #1
 8000ade:	4770      	bx	lr
 8000ae0:	ea4f 0c41 	mov.w	ip, r1, lsl #1
 8000ae4:	ea7f 5c6c 	mvns.w	ip, ip, asr #21
 8000ae8:	d102      	bne.n	8000af0 <__cmpdf2+0x64>
 8000aea:	ea50 3c01 	orrs.w	ip, r0, r1, lsl #12
 8000aee:	d107      	bne.n	8000b00 <__cmpdf2+0x74>
 8000af0:	ea4f 0c43 	mov.w	ip, r3, lsl #1
 8000af4:	ea7f 5c6c 	mvns.w	ip, ip, asr #21
 8000af8:	d1d6      	bne.n	8000aa8 <__cmpdf2+0x1c>
 8000afa:	ea52 3c03 	orrs.w	ip, r2, r3, lsl #12
 8000afe:	d0d3      	beq.n	8000aa8 <__cmpdf2+0x1c>
 8000b00:	f85d 0b04 	ldr.w	r0, [sp], #4
 8000b04:	4770      	bx	lr
 8000b06:	bf00      	nop

08000b08 <__aeabi_cdrcmple>:
 8000b08:	4684      	mov	ip, r0
 8000b0a:	4610      	mov	r0, r2
 8000b0c:	4662      	mov	r2, ip
 8000b0e:	468c      	mov	ip, r1
 8000b10:	4619      	mov	r1, r3
 8000b12:	4663      	mov	r3, ip
 8000b14:	e000      	b.n	8000b18 <__aeabi_cdcmpeq>
 8000b16:	bf00      	nop

08000b18 <__aeabi_cdcmpeq>:
 8000b18:	b501      	push	{r0, lr}
 8000b1a:	f7ff ffb7 	bl	8000a8c <__cmpdf2>
 8000b1e:	2800      	cmp	r0, #0
 8000b20:	bf48      	it	mi
 8000b22:	f110 0f00 	cmnmi.w	r0, #0
 8000b26:	bd01      	pop	{r0, pc}

08000b28 <__aeabi_dcmpeq>:
 8000b28:	f84d ed08 	str.w	lr, [sp, #-8]!
 8000b2c:	f7ff fff4 	bl	8000b18 <__aeabi_cdcmpeq>
 8000b30:	bf0c      	ite	eq
 8000b32:	2001      	moveq	r0, #1
 8000b34:	2000      	movne	r0, #0
 8000b36:	f85d fb08 	ldr.w	pc, [sp], #8
 8000b3a:	bf00      	nop

08000b3c <__aeabi_dcmplt>:
 8000b3c:	f84d ed08 	str.w	lr, [sp, #-8]!
 8000b40:	f7ff ffea 	bl	8000b18 <__aeabi_cdcmpeq>
 8000b44:	bf34      	ite	cc
 8000b46:	2001      	movcc	r0, #1
 8000b48:	2000      	movcs	r0, #0
 8000b4a:	f85d fb08 	ldr.w	pc, [sp], #8
 8000b4e:	bf00      	nop

08000b50 <__aeabi_dcmple>:
 8000b50:	f84d ed08 	str.w	lr, [sp, #-8]!
 8000b54:	f7ff ffe0 	bl	8000b18 <__aeabi_cdcmpeq>
 8000b58:	bf94      	ite	ls
 8000b5a:	2001      	movls	r0, #1
 8000b5c:	2000      	movhi	r0, #0
 8000b5e:	f85d fb08 	ldr.w	pc, [sp], #8
 8000b62:	bf00      	nop

08000b64 <__aeabi_dcmpge>:
 8000b64:	f84d ed08 	str.w	lr, [sp, #-8]!
 8000b68:	f7ff ffce 	bl	8000b08 <__aeabi_cdrcmple>
 8000b6c:	bf94      	ite	ls
 8000b6e:	2001      	movls	r0, #1
 8000b70:	2000      	movhi	r0, #0
 8000b72:	f85d fb08 	ldr.w	pc, [sp], #8
 8000b76:	bf00      	nop

08000b78 <__aeabi_dcmpgt>:
 8000b78:	f84d ed08 	str.w	lr, [sp, #-8]!
 8000b7c:	f7ff ffc4 	bl	8000b08 <__aeabi_cdrcmple>
 8000b80:	bf34      	ite	cc
 8000b82:	2001      	movcc	r0, #1
 8000b84:	2000      	movcs	r0, #0
 8000b86:	f85d fb08 	ldr.w	pc, [sp], #8
 8000b8a:	bf00      	nop

08000b8c <__aeabi_dcmpun>:
 8000b8c:	ea4f 0c41 	mov.w	ip, r1, lsl #1
 8000b90:	ea7f 5c6c 	mvns.w	ip, ip, asr #21
 8000b94:	d102      	bne.n	8000b9c <__aeabi_dcmpun+0x10>
 8000b96:	ea50 3c01 	orrs.w	ip, r0, r1, lsl #12
 8000b9a:	d10a      	bne.n	8000bb2 <__aeabi_dcmpun+0x26>
 8000b9c:	ea4f 0c43 	mov.w	ip, r3, lsl #1
 8000ba0:	ea7f 5c6c 	mvns.w	ip, ip, asr #21
 8000ba4:	d102      	bne.n	8000bac <__aeabi_dcmpun+0x20>
 8000ba6:	ea52 3c03 	orrs.w	ip, r2, r3, lsl #12
 8000baa:	d102      	bne.n	8000bb2 <__aeabi_dcmpun+0x26>
 8000bac:	f04f 0000 	mov.w	r0, #0
 8000bb0:	4770      	bx	lr
 8000bb2:	f04f 0001 	mov.w	r0, #1
 8000bb6:	4770      	bx	lr

08000bb8 <__aeabi_d2iz>:
 8000bb8:	ea4f 0241 	mov.w	r2, r1, lsl #1
 8000bbc:	f512 1200 	adds.w	r2, r2, #2097152	@ 0x200000
 8000bc0:	d215      	bcs.n	8000bee <__aeabi_d2iz+0x36>
 8000bc2:	d511      	bpl.n	8000be8 <__aeabi_d2iz+0x30>
 8000bc4:	f46f 7378 	mvn.w	r3, #992	@ 0x3e0
 8000bc8:	ebb3 5262 	subs.w	r2, r3, r2, asr #21
 8000bcc:	d912      	bls.n	8000bf4 <__aeabi_d2iz+0x3c>
 8000bce:	ea4f 23c1 	mov.w	r3, r1, lsl #11
 8000bd2:	f043 4300 	orr.w	r3, r3, #2147483648	@ 0x80000000
 8000bd6:	ea43 5350 	orr.w	r3, r3, r0, lsr #21
 8000bda:	f011 4f00 	tst.w	r1, #2147483648	@ 0x80000000
 8000bde:	fa23 f002 	lsr.w	r0, r3, r2
 8000be2:	bf18      	it	ne
 8000be4:	4240      	negne	r0, r0
 8000be6:	4770      	bx	lr
 8000be8:	f04f 0000 	mov.w	r0, #0
 8000bec:	4770      	bx	lr
 8000bee:	ea50 3001 	orrs.w	r0, r0, r1, lsl #12
 8000bf2:	d105      	bne.n	8000c00 <__aeabi_d2iz+0x48>
 8000bf4:	f011 4000 	ands.w	r0, r1, #2147483648	@ 0x80000000
 8000bf8:	bf08      	it	eq
 8000bfa:	f06f 4000 	mvneq.w	r0, #2147483648	@ 0x80000000
 8000bfe:	4770      	bx	lr
 8000c00:	f04f 0000 	mov.w	r0, #0
 8000c04:	4770      	bx	lr
 8000c06:	bf00      	nop

08000c08 <__aeabi_uldivmod>:
 8000c08:	b953      	cbnz	r3, 8000c20 <__aeabi_uldivmod+0x18>
 8000c0a:	b94a      	cbnz	r2, 8000c20 <__aeabi_uldivmod+0x18>
 8000c0c:	2900      	cmp	r1, #0
 8000c0e:	bf08      	it	eq
 8000c10:	2800      	cmpeq	r0, #0
 8000c12:	bf1c      	itt	ne
 8000c14:	f04f 31ff 	movne.w	r1, #4294967295
 8000c18:	f04f 30ff 	movne.w	r0, #4294967295
 8000c1c:	f000 b988 	b.w	8000f30 <__aeabi_idiv0>
 8000c20:	f1ad 0c08 	sub.w	ip, sp, #8
 8000c24:	e96d ce04 	strd	ip, lr, [sp, #-16]!
 8000c28:	f000 f806 	bl	8000c38 <__udivmoddi4>
 8000c2c:	f8dd e004 	ldr.w	lr, [sp, #4]
 8000c30:	e9dd 2302 	ldrd	r2, r3, [sp, #8]
 8000c34:	b004      	add	sp, #16
 8000c36:	4770      	bx	lr

08000c38 <__udivmoddi4>:
 8000c38:	e92d 47f0 	stmdb	sp!, {r4, r5, r6, r7, r8, r9, sl, lr}
 8000c3c:	9d08      	ldr	r5, [sp, #32]
 8000c3e:	468e      	mov	lr, r1
 8000c40:	4604      	mov	r4, r0
 8000c42:	4688      	mov	r8, r1
 8000c44:	2b00      	cmp	r3, #0
 8000c46:	d14a      	bne.n	8000cde <__udivmoddi4+0xa6>
 8000c48:	428a      	cmp	r2, r1
 8000c4a:	4617      	mov	r7, r2
 8000c4c:	d962      	bls.n	8000d14 <__udivmoddi4+0xdc>
 8000c4e:	fab2 f682 	clz	r6, r2
 8000c52:	b14e      	cbz	r6, 8000c68 <__udivmoddi4+0x30>
 8000c54:	f1c6 0320 	rsb	r3, r6, #32
 8000c58:	fa01 f806 	lsl.w	r8, r1, r6
 8000c5c:	fa20 f303 	lsr.w	r3, r0, r3
 8000c60:	40b7      	lsls	r7, r6
 8000c62:	ea43 0808 	orr.w	r8, r3, r8
 8000c66:	40b4      	lsls	r4, r6
 8000c68:	ea4f 4e17 	mov.w	lr, r7, lsr #16
 8000c6c:	fa1f fc87 	uxth.w	ip, r7
 8000c70:	fbb8 f1fe 	udiv	r1, r8, lr
 8000c74:	0c23      	lsrs	r3, r4, #16
 8000c76:	fb0e 8811 	mls	r8, lr, r1, r8
 8000c7a:	ea43 4308 	orr.w	r3, r3, r8, lsl #16
 8000c7e:	fb01 f20c 	mul.w	r2, r1, ip
 8000c82:	429a      	cmp	r2, r3
 8000c84:	d909      	bls.n	8000c9a <__udivmoddi4+0x62>
 8000c86:	18fb      	adds	r3, r7, r3
 8000c88:	f101 30ff 	add.w	r0, r1, #4294967295
 8000c8c:	f080 80ea 	bcs.w	8000e64 <__udivmoddi4+0x22c>
 8000c90:	429a      	cmp	r2, r3
 8000c92:	f240 80e7 	bls.w	8000e64 <__udivmoddi4+0x22c>
 8000c96:	3902      	subs	r1, #2
 8000c98:	443b      	add	r3, r7
 8000c9a:	1a9a      	subs	r2, r3, r2
 8000c9c:	b2a3      	uxth	r3, r4
 8000c9e:	fbb2 f0fe 	udiv	r0, r2, lr
 8000ca2:	fb0e 2210 	mls	r2, lr, r0, r2
 8000ca6:	ea43 4302 	orr.w	r3, r3, r2, lsl #16
 8000caa:	fb00 fc0c 	mul.w	ip, r0, ip
 8000cae:	459c      	cmp	ip, r3
 8000cb0:	d909      	bls.n	8000cc6 <__udivmoddi4+0x8e>
 8000cb2:	18fb      	adds	r3, r7, r3
 8000cb4:	f100 32ff 	add.w	r2, r0, #4294967295
 8000cb8:	f080 80d6 	bcs.w	8000e68 <__udivmoddi4+0x230>
 8000cbc:	459c      	cmp	ip, r3
 8000cbe:	f240 80d3 	bls.w	8000e68 <__udivmoddi4+0x230>
 8000cc2:	443b      	add	r3, r7
 8000cc4:	3802      	subs	r0, #2
 8000cc6:	ea40 4001 	orr.w	r0, r0, r1, lsl #16
 8000cca:	eba3 030c 	sub.w	r3, r3, ip
 8000cce:	2100      	movs	r1, #0
 8000cd0:	b11d      	cbz	r5, 8000cda <__udivmoddi4+0xa2>
 8000cd2:	40f3      	lsrs	r3, r6
 8000cd4:	2200      	movs	r2, #0
 8000cd6:	e9c5 3200 	strd	r3, r2, [r5]
 8000cda:	e8bd 87f0 	ldmia.w	sp!, {r4, r5, r6, r7, r8, r9, sl, pc}
 8000cde:	428b      	cmp	r3, r1
 8000ce0:	d905      	bls.n	8000cee <__udivmoddi4+0xb6>
 8000ce2:	b10d      	cbz	r5, 8000ce8 <__udivmoddi4+0xb0>
 8000ce4:	e9c5 0100 	strd	r0, r1, [r5]
 8000ce8:	2100      	movs	r1, #0
 8000cea:	4608      	mov	r0, r1
 8000cec:	e7f5      	b.n	8000cda <__udivmoddi4+0xa2>
 8000cee:	fab3 f183 	clz	r1, r3
 8000cf2:	2900      	cmp	r1, #0
 8000cf4:	d146      	bne.n	8000d84 <__udivmoddi4+0x14c>
 8000cf6:	4573      	cmp	r3, lr
 8000cf8:	d302      	bcc.n	8000d00 <__udivmoddi4+0xc8>
 8000cfa:	4282      	cmp	r2, r0
 8000cfc:	f200 8105 	bhi.w	8000f0a <__udivmoddi4+0x2d2>
 8000d00:	1a84      	subs	r4, r0, r2
 8000d02:	eb6e 0203 	sbc.w	r2, lr, r3
 8000d06:	2001      	movs	r0, #1
 8000d08:	4690      	mov	r8, r2
 8000d0a:	2d00      	cmp	r5, #0
 8000d0c:	d0e5      	beq.n	8000cda <__udivmoddi4+0xa2>
 8000d0e:	e9c5 4800 	strd	r4, r8, [r5]
 8000d12:	e7e2      	b.n	8000cda <__udivmoddi4+0xa2>
 8000d14:	2a00      	cmp	r2, #0
 8000d16:	f000 8090 	beq.w	8000e3a <__udivmoddi4+0x202>
 8000d1a:	fab2 f682 	clz	r6, r2
 8000d1e:	2e00      	cmp	r6, #0
 8000d20:	f040 80a4 	bne.w	8000e6c <__udivmoddi4+0x234>
 8000d24:	1a8a      	subs	r2, r1, r2
 8000d26:	0c03      	lsrs	r3, r0, #16
 8000d28:	ea4f 4e17 	mov.w	lr, r7, lsr #16
 8000d2c:	b280      	uxth	r0, r0
 8000d2e:	b2bc      	uxth	r4, r7
 8000d30:	2101      	movs	r1, #1
 8000d32:	fbb2 fcfe 	udiv	ip, r2, lr
 8000d36:	fb0e 221c 	mls	r2, lr, ip, r2
 8000d3a:	ea43 4302 	orr.w	r3, r3, r2, lsl #16
 8000d3e:	fb04 f20c 	mul.w	r2, r4, ip
 8000d42:	429a      	cmp	r2, r3
 8000d44:	d907      	bls.n	8000d56 <__udivmoddi4+0x11e>
 8000d46:	18fb      	adds	r3, r7, r3
 8000d48:	f10c 38ff 	add.w	r8, ip, #4294967295
 8000d4c:	d202      	bcs.n	8000d54 <__udivmoddi4+0x11c>
 8000d4e:	429a      	cmp	r2, r3
 8000d50:	f200 80e0 	bhi.w	8000f14 <__udivmoddi4+0x2dc>
 8000d54:	46c4      	mov	ip, r8
 8000d56:	1a9b      	subs	r3, r3, r2
 8000d58:	fbb3 f2fe 	udiv	r2, r3, lr
 8000d5c:	fb0e 3312 	mls	r3, lr, r2, r3
 8000d60:	ea40 4303 	orr.w	r3, r0, r3, lsl #16
 8000d64:	fb02 f404 	mul.w	r4, r2, r4
 8000d68:	429c      	cmp	r4, r3
 8000d6a:	d907      	bls.n	8000d7c <__udivmoddi4+0x144>
 8000d6c:	18fb      	adds	r3, r7, r3
 8000d6e:	f102 30ff 	add.w	r0, r2, #4294967295
 8000d72:	d202      	bcs.n	8000d7a <__udivmoddi4+0x142>
 8000d74:	429c      	cmp	r4, r3
 8000d76:	f200 80ca 	bhi.w	8000f0e <__udivmoddi4+0x2d6>
 8000d7a:	4602      	mov	r2, r0
 8000d7c:	1b1b      	subs	r3, r3, r4
 8000d7e:	ea42 400c 	orr.w	r0, r2, ip, lsl #16
 8000d82:	e7a5      	b.n	8000cd0 <__udivmoddi4+0x98>
 8000d84:	f1c1 0620 	rsb	r6, r1, #32
 8000d88:	408b      	lsls	r3, r1
 8000d8a:	fa22 f706 	lsr.w	r7, r2, r6
 8000d8e:	431f      	orrs	r7, r3
 8000d90:	fa0e f401 	lsl.w	r4, lr, r1
 8000d94:	fa20 f306 	lsr.w	r3, r0, r6
 8000d98:	fa2e fe06 	lsr.w	lr, lr, r6
 8000d9c:	ea4f 4917 	mov.w	r9, r7, lsr #16
 8000da0:	4323      	orrs	r3, r4
 8000da2:	fa00 f801 	lsl.w	r8, r0, r1
 8000da6:	fa1f fc87 	uxth.w	ip, r7
 8000daa:	fbbe f0f9 	udiv	r0, lr, r9
 8000dae:	0c1c      	lsrs	r4, r3, #16
 8000db0:	fb09 ee10 	mls	lr, r9, r0, lr
 8000db4:	ea44 440e 	orr.w	r4, r4, lr, lsl #16
 8000db8:	fb00 fe0c 	mul.w	lr, r0, ip
 8000dbc:	45a6      	cmp	lr, r4
 8000dbe:	fa02 f201 	lsl.w	r2, r2, r1
 8000dc2:	d909      	bls.n	8000dd8 <__udivmoddi4+0x1a0>
 8000dc4:	193c      	adds	r4, r7, r4
 8000dc6:	f100 3aff 	add.w	sl, r0, #4294967295
 8000dca:	f080 809c 	bcs.w	8000f06 <__udivmoddi4+0x2ce>
 8000dce:	45a6      	cmp	lr, r4
 8000dd0:	f240 8099 	bls.w	8000f06 <__udivmoddi4+0x2ce>
 8000dd4:	3802      	subs	r0, #2
 8000dd6:	443c      	add	r4, r7
 8000dd8:	eba4 040e 	sub.w	r4, r4, lr
 8000ddc:	fa1f fe83 	uxth.w	lr, r3
 8000de0:	fbb4 f3f9 	udiv	r3, r4, r9
 8000de4:	fb09 4413 	mls	r4, r9, r3, r4
 8000de8:	ea4e 4404 	orr.w	r4, lr, r4, lsl #16
 8000dec:	fb03 fc0c 	mul.w	ip, r3, ip
 8000df0:	45a4      	cmp	ip, r4
 8000df2:	d908      	bls.n	8000e06 <__udivmoddi4+0x1ce>
 8000df4:	193c      	adds	r4, r7, r4
 8000df6:	f103 3eff 	add.w	lr, r3, #4294967295
 8000dfa:	f080 8082 	bcs.w	8000f02 <__udivmoddi4+0x2ca>
 8000dfe:	45a4      	cmp	ip, r4
 8000e00:	d97f      	bls.n	8000f02 <__udivmoddi4+0x2ca>
 8000e02:	3b02      	subs	r3, #2
 8000e04:	443c      	add	r4, r7
 8000e06:	ea43 4000 	orr.w	r0, r3, r0, lsl #16
 8000e0a:	eba4 040c 	sub.w	r4, r4, ip
 8000e0e:	fba0 ec02 	umull	lr, ip, r0, r2
 8000e12:	4564      	cmp	r4, ip
 8000e14:	4673      	mov	r3, lr
 8000e16:	46e1      	mov	r9, ip
 8000e18:	d362      	bcc.n	8000ee0 <__udivmoddi4+0x2a8>
 8000e1a:	d05f      	beq.n	8000edc <__udivmoddi4+0x2a4>
 8000e1c:	b15d      	cbz	r5, 8000e36 <__udivmoddi4+0x1fe>
 8000e1e:	ebb8 0203 	subs.w	r2, r8, r3
 8000e22:	eb64 0409 	sbc.w	r4, r4, r9
 8000e26:	fa04 f606 	lsl.w	r6, r4, r6
 8000e2a:	fa22 f301 	lsr.w	r3, r2, r1
 8000e2e:	431e      	orrs	r6, r3
 8000e30:	40cc      	lsrs	r4, r1
 8000e32:	e9c5 6400 	strd	r6, r4, [r5]
 8000e36:	2100      	movs	r1, #0
 8000e38:	e74f      	b.n	8000cda <__udivmoddi4+0xa2>
 8000e3a:	fbb1 fcf2 	udiv	ip, r1, r2
 8000e3e:	0c01      	lsrs	r1, r0, #16
 8000e40:	ea41 410e 	orr.w	r1, r1, lr, lsl #16
 8000e44:	b280      	uxth	r0, r0
 8000e46:	ea40 4201 	orr.w	r2, r0, r1, lsl #16
 8000e4a:	463b      	mov	r3, r7
 8000e4c:	4638      	mov	r0, r7
 8000e4e:	463c      	mov	r4, r7
 8000e50:	46b8      	mov	r8, r7
 8000e52:	46be      	mov	lr, r7
 8000e54:	2620      	movs	r6, #32
 8000e56:	fbb1 f1f7 	udiv	r1, r1, r7
 8000e5a:	eba2 0208 	sub.w	r2, r2, r8
 8000e5e:	ea41 410c 	orr.w	r1, r1, ip, lsl #16
 8000e62:	e766      	b.n	8000d32 <__udivmoddi4+0xfa>
 8000e64:	4601      	mov	r1, r0
 8000e66:	e718      	b.n	8000c9a <__udivmoddi4+0x62>
 8000e68:	4610      	mov	r0, r2
 8000e6a:	e72c      	b.n	8000cc6 <__udivmoddi4+0x8e>
 8000e6c:	f1c6 0220 	rsb	r2, r6, #32
 8000e70:	fa2e f302 	lsr.w	r3, lr, r2
 8000e74:	40b7      	lsls	r7, r6
 8000e76:	40b1      	lsls	r1, r6
 8000e78:	fa20 f202 	lsr.w	r2, r0, r2
 8000e7c:	ea4f 4e17 	mov.w	lr, r7, lsr #16
 8000e80:	430a      	orrs	r2, r1
 8000e82:	fbb3 f8fe 	udiv	r8, r3, lr
 8000e86:	b2bc      	uxth	r4, r7
 8000e88:	fb0e 3318 	mls	r3, lr, r8, r3
 8000e8c:	0c11      	lsrs	r1, r2, #16
 8000e8e:	ea41 4103 	orr.w	r1, r1, r3, lsl #16
 8000e92:	fb08 f904 	mul.w	r9, r8, r4
 8000e96:	40b0      	lsls	r0, r6
 8000e98:	4589      	cmp	r9, r1
 8000e9a:	ea4f 4310 	mov.w	r3, r0, lsr #16
 8000e9e:	b280      	uxth	r0, r0
 8000ea0:	d93e      	bls.n	8000f20 <__udivmoddi4+0x2e8>
 8000ea2:	1879      	adds	r1, r7, r1
 8000ea4:	f108 3cff 	add.w	ip, r8, #4294967295
 8000ea8:	d201      	bcs.n	8000eae <__udivmoddi4+0x276>
 8000eaa:	4589      	cmp	r9, r1
 8000eac:	d81f      	bhi.n	8000eee <__udivmoddi4+0x2b6>
 8000eae:	eba1 0109 	sub.w	r1, r1, r9
 8000eb2:	fbb1 f9fe 	udiv	r9, r1, lr
 8000eb6:	fb09 f804 	mul.w	r8, r9, r4
 8000eba:	fb0e 1119 	mls	r1, lr, r9, r1
 8000ebe:	b292      	uxth	r2, r2
 8000ec0:	ea42 4201 	orr.w	r2, r2, r1, lsl #16
 8000ec4:	4542      	cmp	r2, r8
 8000ec6:	d229      	bcs.n	8000f1c <__udivmoddi4+0x2e4>
 8000ec8:	18ba      	adds	r2, r7, r2
 8000eca:	f109 31ff 	add.w	r1, r9, #4294967295
 8000ece:	d2c4      	bcs.n	8000e5a <__udivmoddi4+0x222>
 8000ed0:	4542      	cmp	r2, r8
 8000ed2:	d2c2      	bcs.n	8000e5a <__udivmoddi4+0x222>
 8000ed4:	f1a9 0102 	sub.w	r1, r9, #2
 8000ed8:	443a      	add	r2, r7
 8000eda:	e7be      	b.n	8000e5a <__udivmoddi4+0x222>
 8000edc:	45f0      	cmp	r8, lr
 8000ede:	d29d      	bcs.n	8000e1c <__udivmoddi4+0x1e4>
 8000ee0:	ebbe 0302 	subs.w	r3, lr, r2
 8000ee4:	eb6c 0c07 	sbc.w	ip, ip, r7
 8000ee8:	3801      	subs	r0, #1
 8000eea:	46e1      	mov	r9, ip
 8000eec:	e796      	b.n	8000e1c <__udivmoddi4+0x1e4>
 8000eee:	eba7 0909 	sub.w	r9, r7, r9
 8000ef2:	4449      	add	r1, r9
 8000ef4:	f1a8 0c02 	sub.w	ip, r8, #2
 8000ef8:	fbb1 f9fe 	udiv	r9, r1, lr
 8000efc:	fb09 f804 	mul.w	r8, r9, r4
 8000f00:	e7db      	b.n	8000eba <__udivmoddi4+0x282>
 8000f02:	4673      	mov	r3, lr
 8000f04:	e77f      	b.n	8000e06 <__udivmoddi4+0x1ce>
 8000f06:	4650      	mov	r0, sl
 8000f08:	e766      	b.n	8000dd8 <__udivmoddi4+0x1a0>
 8000f0a:	4608      	mov	r0, r1
 8000f0c:	e6fd      	b.n	8000d0a <__udivmoddi4+0xd2>
 8000f0e:	443b      	add	r3, r7
 8000f10:	3a02      	subs	r2, #2
 8000f12:	e733      	b.n	8000d7c <__udivmoddi4+0x144>
 8000f14:	f1ac 0c02 	sub.w	ip, ip, #2
 8000f18:	443b      	add	r3, r7
 8000f1a:	e71c      	b.n	8000d56 <__udivmoddi4+0x11e>
 8000f1c:	4649      	mov	r1, r9
 8000f1e:	e79c      	b.n	8000e5a <__udivmoddi4+0x222>
 8000f20:	eba1 0109 	sub.w	r1, r1, r9
 8000f24:	46c4      	mov	ip, r8
 8000f26:	fbb1 f9fe 	udiv	r9, r1, lr
 8000f2a:	fb09 f804 	mul.w	r8, r9, r4
 8000f2e:	e7c4      	b.n	8000eba <__udivmoddi4+0x282>

08000f30 <__aeabi_idiv0>:
 8000f30:	4770      	bx	lr
 8000f32:	bf00      	nop

08000f34 <main>:
int seen_loud_noise = 0; 

int system_armed = 1; 

int main(void)
{
 8000f34:	b5b0      	push	{r4, r5, r7, lr}
 8000f36:	ed2d 8b02 	vpush	{d8}
 8000f3a:	f5ad 7d4e 	sub.w	sp, sp, #824	@ 0x338
 8000f3e:	af04      	add	r7, sp, #16
    const int N=4;
 8000f40:	2304      	movs	r3, #4
 8000f42:	f8c7 32ec 	str.w	r3, [r7, #748]	@ 0x2ec

    HAL_Init();
 8000f46:	f001 fd5d 	bl	8002a04 <HAL_Init>
    UART1_Init();
 8000f4a:	f000 fed5 	bl	8001cf8 <UART1_Init>
    BSP_LED_Init(LED2);
 8000f4e:	2000      	movs	r0, #0
 8000f50:	f001 f8d0 	bl	80020f4 <BSP_LED_Init>
    BSP_ACCELERO_Init();
 8000f54:	f001 fa7a 	bl	800244c <BSP_ACCELERO_Init>
    BSP_GYRO_Init();
 8000f58:	f001 fad0 	bl	80024fc <BSP_GYRO_Init>

    Buzzer_GPIO_Init();
 8000f5c:	f000 ff32 	bl	8001dc4 <Buzzer_GPIO_Init>
    Button_GPIO_Init();
 8000f60:	f000 ff5a 	bl	8001e18 <Button_GPIO_Init>
    ADC1_Init(); 
 8000f64:	f000 fdfc 	bl	8001b60 <ADC1_Init>

    BSP_LED_Off(LED2);
 8000f68:	2000      	movs	r0, #0
 8000f6a:	f001 f8f3 	bl	8002154 <BSP_LED_Off>
    HAL_GPIO_WritePin(GPIOA, GPIO_PIN_3, GPIO_PIN_RESET); 
 8000f6e:	2200      	movs	r2, #0
 8000f70:	2108      	movs	r1, #8
 8000f72:	f04f 4090 	mov.w	r0, #1207959552	@ 0x48000000
 8000f76:	f003 f945 	bl	8004204 <HAL_GPIO_WritePin>

    int accel_buff_x[4]={0};
 8000f7a:	f507 732d 	add.w	r3, r7, #692	@ 0x2b4
 8000f7e:	2200      	movs	r2, #0
 8000f80:	601a      	str	r2, [r3, #0]
 8000f82:	605a      	str	r2, [r3, #4]
 8000f84:	609a      	str	r2, [r3, #8]
 8000f86:	60da      	str	r2, [r3, #12]
    int accel_buff_y[4]={0};
 8000f88:	f507 7329 	add.w	r3, r7, #676	@ 0x2a4
 8000f8c:	2200      	movs	r2, #0
 8000f8e:	601a      	str	r2, [r3, #0]
 8000f90:	605a      	str	r2, [r3, #4]
 8000f92:	609a      	str	r2, [r3, #8]
 8000f94:	60da      	str	r2, [r3, #12]
    int accel_buff_z[4]={0};
 8000f96:	f507 7325 	add.w	r3, r7, #660	@ 0x294
 8000f9a:	2200      	movs	r2, #0
 8000f9c:	601a      	str	r2, [r3, #0]
 8000f9e:	605a      	str	r2, [r3, #4]
 8000fa0:	609a      	str	r2, [r3, #8]
 8000fa2:	60da      	str	r2, [r3, #12]
    int i=0;
 8000fa4:	2300      	movs	r3, #0
 8000fa6:	f8c7 3324 	str.w	r3, [r7, #804]	@ 0x324
    int delay_ms=20; 
 8000faa:	2314      	movs	r3, #20
 8000fac:	f8c7 3320 	str.w	r3, [r7, #800]	@ 0x320
    char buffer[600]; 

    int btn_press_count = 0;
 8000fb0:	2300      	movs	r3, #0
 8000fb2:	f8c7 331c 	str.w	r3, [r7, #796]	@ 0x31c
    uint32_t btn_first_press_time = 0;
 8000fb6:	2300      	movs	r3, #0
 8000fb8:	f8c7 3318 	str.w	r3, [r7, #792]	@ 0x318
    uint32_t btn_last_debounce_time = 0;
 8000fbc:	2300      	movs	r3, #0
 8000fbe:	f8c7 3314 	str.w	r3, [r7, #788]	@ 0x314
    int btn_last_state = 1; 
 8000fc2:	2301      	movs	r3, #1
 8000fc4:	f8c7 3310 	str.w	r3, [r7, #784]	@ 0x310
    int btn_waiting_for_decision = 0;
 8000fc8:	2300      	movs	r3, #0
 8000fca:	f8c7 330c 	str.w	r3, [r7, #780]	@ 0x30c

    uint32_t last_sensor_read_time = 0;
 8000fce:	2300      	movs	r3, #0
 8000fd0:	f8c7 3308 	str.w	r3, [r7, #776]	@ 0x308
    
    uint32_t peak_sound_window = 0; 
 8000fd4:	2300      	movs	r3, #0
 8000fd6:	f8c7 3304 	str.w	r3, [r7, #772]	@ 0x304
    float peak_accel_window = 0.0f; 
 8000fda:	f04f 0300 	mov.w	r3, #0
 8000fde:	f8c7 3300 	str.w	r3, [r7, #768]	@ 0x300
    float peak_gyro_window = 0.0f;  
 8000fe2:	f04f 0300 	mov.w	r3, #0
 8000fe6:	f8c7 32fc 	str.w	r3, [r7, #764]	@ 0x2fc
    
    uint32_t sound_history[3] = {0, 0, 0}; 
 8000fea:	f507 734a 	add.w	r3, r7, #808	@ 0x328
 8000fee:	f5a3 733e 	sub.w	r3, r3, #760	@ 0x2f8
 8000ff2:	2200      	movs	r2, #0
 8000ff4:	601a      	str	r2, [r3, #0]
 8000ff6:	f507 734a 	add.w	r3, r7, #808	@ 0x328
 8000ffa:	f5a3 733e 	sub.w	r3, r3, #760	@ 0x2f8
 8000ffe:	2200      	movs	r2, #0
 8001000:	605a      	str	r2, [r3, #4]
 8001002:	f507 734a 	add.w	r3, r7, #808	@ 0x328
 8001006:	f5a3 733e 	sub.w	r3, r3, #760	@ 0x2f8
 800100a:	2200      	movs	r2, #0
 800100c:	609a      	str	r2, [r3, #8]
    uint32_t bg_sound_max = 0;
 800100e:	2300      	movs	r3, #0
 8001010:	f8c7 32f8 	str.w	r3, [r7, #760]	@ 0x2f8

    while (1)
    {
        // ========== MULTI-PRESS BUTTON HANDLER ==========
        int btn_current = HAL_GPIO_ReadPin(GPIOC, GPIO_PIN_13);
 8001014:	f44f 5100 	mov.w	r1, #8192	@ 0x2000
 8001018:	488e      	ldr	r0, [pc, #568]	@ (8001254 <main+0x320>)
 800101a:	f003 f8db 	bl	80041d4 <HAL_GPIO_ReadPin>
 800101e:	4603      	mov	r3, r0
 8001020:	f8c7 32e8 	str.w	r3, [r7, #744]	@ 0x2e8

        if (btn_current == GPIO_PIN_RESET && btn_last_state == 1 && (HAL_GetTick() - btn_last_debounce_time > 50)) {
 8001024:	f8d7 32e8 	ldr.w	r3, [r7, #744]	@ 0x2e8
 8001028:	2b00      	cmp	r3, #0
 800102a:	d11f      	bne.n	800106c <main+0x138>
 800102c:	f8d7 3310 	ldr.w	r3, [r7, #784]	@ 0x310
 8001030:	2b01      	cmp	r3, #1
 8001032:	d11b      	bne.n	800106c <main+0x138>
 8001034:	f001 fd4e 	bl	8002ad4 <HAL_GetTick>
 8001038:	4602      	mov	r2, r0
 800103a:	f8d7 3314 	ldr.w	r3, [r7, #788]	@ 0x314
 800103e:	1ad3      	subs	r3, r2, r3
 8001040:	2b32      	cmp	r3, #50	@ 0x32
 8001042:	d913      	bls.n	800106c <main+0x138>
            btn_press_count++;
 8001044:	f8d7 331c 	ldr.w	r3, [r7, #796]	@ 0x31c
 8001048:	3301      	adds	r3, #1
 800104a:	f8c7 331c 	str.w	r3, [r7, #796]	@ 0x31c
            btn_last_debounce_time = HAL_GetTick();
 800104e:	f001 fd41 	bl	8002ad4 <HAL_GetTick>
 8001052:	f8c7 0314 	str.w	r0, [r7, #788]	@ 0x314
            if (btn_press_count == 1) btn_first_press_time = HAL_GetTick(); 
 8001056:	f8d7 331c 	ldr.w	r3, [r7, #796]	@ 0x31c
 800105a:	2b01      	cmp	r3, #1
 800105c:	d103      	bne.n	8001066 <main+0x132>
 800105e:	f001 fd39 	bl	8002ad4 <HAL_GetTick>
 8001062:	f8c7 0318 	str.w	r0, [r7, #792]	@ 0x318
            btn_waiting_for_decision = 1;
 8001066:	2301      	movs	r3, #1
 8001068:	f8c7 330c 	str.w	r3, [r7, #780]	@ 0x30c
        }
        btn_last_state = (btn_current == GPIO_PIN_SET) ? 1 : 0;
 800106c:	f8d7 32e8 	ldr.w	r3, [r7, #744]	@ 0x2e8
 8001070:	2b01      	cmp	r3, #1
 8001072:	bf0c      	ite	eq
 8001074:	2301      	moveq	r3, #1
 8001076:	2300      	movne	r3, #0
 8001078:	b2db      	uxtb	r3, r3
 800107a:	f8c7 3310 	str.w	r3, [r7, #784]	@ 0x310

        if (btn_waiting_for_decision && (HAL_GetTick() - btn_first_press_time > 500)) {
 800107e:	f8d7 330c 	ldr.w	r3, [r7, #780]	@ 0x30c
 8001082:	2b00      	cmp	r3, #0
 8001084:	f000 80c3 	beq.w	800120e <main+0x2da>
 8001088:	f001 fd24 	bl	8002ad4 <HAL_GetTick>
 800108c:	4602      	mov	r2, r0
 800108e:	f8d7 3318 	ldr.w	r3, [r7, #792]	@ 0x318
 8001092:	1ad3      	subs	r3, r2, r3
 8001094:	f5b3 7ffa 	cmp.w	r3, #500	@ 0x1f4
 8001098:	f240 80b9 	bls.w	800120e <main+0x2da>
            btn_waiting_for_decision = 0;
 800109c:	2300      	movs	r3, #0
 800109e:	f8c7 330c 	str.w	r3, [r7, #780]	@ 0x30c

            if (btn_press_count == 1) {
 80010a2:	f8d7 331c 	ldr.w	r3, [r7, #796]	@ 0x31c
 80010a6:	2b01      	cmp	r3, #1
 80010a8:	d125      	bne.n	80010f6 <main+0x1c2>
                if (current_state == STATE_CONFIRMED) {
 80010aa:	4b6b      	ldr	r3, [pc, #428]	@ (8001258 <main+0x324>)
 80010ac:	781b      	ldrb	r3, [r3, #0]
 80010ae:	2b03      	cmp	r3, #3
 80010b0:	f040 80aa 	bne.w	8001208 <main+0x2d4>
                    current_state = STATE_NORMAL;
 80010b4:	4b68      	ldr	r3, [pc, #416]	@ (8001258 <main+0x324>)
 80010b6:	2200      	movs	r2, #0
 80010b8:	701a      	strb	r2, [r3, #0]
                    HAL_GPIO_WritePin(GPIOA, GPIO_PIN_3, GPIO_PIN_RESET); 
 80010ba:	2200      	movs	r2, #0
 80010bc:	2108      	movs	r1, #8
 80010be:	f04f 4090 	mov.w	r0, #1207959552	@ 0x48000000
 80010c2:	f003 f89f 	bl	8004204 <HAL_GPIO_WritePin>
                    BSP_LED_Off(LED2);
 80010c6:	2000      	movs	r0, #0
 80010c8:	f001 f844 	bl	8002154 <BSP_LED_Off>
                    sprintf(buffer, "\r\n--- ALARM RESET (1 press) ---\r\n");
 80010cc:	f107 033c 	add.w	r3, r7, #60	@ 0x3c
 80010d0:	4962      	ldr	r1, [pc, #392]	@ (800125c <main+0x328>)
 80010d2:	4618      	mov	r0, r3
 80010d4:	f005 fad4 	bl	8006680 <siprintf>
                    HAL_UART_Transmit(&huart1, (uint8_t*)buffer, strlen(buffer), HAL_MAX_DELAY);
 80010d8:	f107 033c 	add.w	r3, r7, #60	@ 0x3c
 80010dc:	4618      	mov	r0, r3
 80010de:	f7ff f8f7 	bl	80002d0 <strlen>
 80010e2:	4603      	mov	r3, r0
 80010e4:	b29a      	uxth	r2, r3
 80010e6:	f107 013c 	add.w	r1, r7, #60	@ 0x3c
 80010ea:	f04f 33ff 	mov.w	r3, #4294967295
 80010ee:	485c      	ldr	r0, [pc, #368]	@ (8001260 <main+0x32c>)
 80010f0:	f004 f80c 	bl	800510c <HAL_UART_Transmit>
 80010f4:	e088      	b.n	8001208 <main+0x2d4>
                }
            }
            else if (btn_press_count == 2) {
 80010f6:	f8d7 331c 	ldr.w	r3, [r7, #796]	@ 0x31c
 80010fa:	2b02      	cmp	r3, #2
 80010fc:	d166      	bne.n	80011cc <main+0x298>
                system_armed = !system_armed;
 80010fe:	4b59      	ldr	r3, [pc, #356]	@ (8001264 <main+0x330>)
 8001100:	681b      	ldr	r3, [r3, #0]
 8001102:	2b00      	cmp	r3, #0
 8001104:	bf0c      	ite	eq
 8001106:	2301      	moveq	r3, #1
 8001108:	2300      	movne	r3, #0
 800110a:	b2db      	uxtb	r3, r3
 800110c:	461a      	mov	r2, r3
 800110e:	4b55      	ldr	r3, [pc, #340]	@ (8001264 <main+0x330>)
 8001110:	601a      	str	r2, [r3, #0]
                current_state = STATE_NORMAL; 
 8001112:	4b51      	ldr	r3, [pc, #324]	@ (8001258 <main+0x324>)
 8001114:	2200      	movs	r2, #0
 8001116:	701a      	strb	r2, [r3, #0]
                BSP_LED_Off(LED2);
 8001118:	2000      	movs	r0, #0
 800111a:	f001 f81b 	bl	8002154 <BSP_LED_Off>
                HAL_GPIO_WritePin(GPIOA, GPIO_PIN_3, GPIO_PIN_RESET); 
 800111e:	2200      	movs	r2, #0
 8001120:	2108      	movs	r1, #8
 8001122:	f04f 4090 	mov.w	r0, #1207959552	@ 0x48000000
 8001126:	f003 f86d 	bl	8004204 <HAL_GPIO_WritePin>

                int beeps = system_armed ? 1 : 2;
 800112a:	4b4e      	ldr	r3, [pc, #312]	@ (8001264 <main+0x330>)
 800112c:	681b      	ldr	r3, [r3, #0]
 800112e:	2b00      	cmp	r3, #0
 8001130:	d001      	beq.n	8001136 <main+0x202>
 8001132:	2301      	movs	r3, #1
 8001134:	e000      	b.n	8001138 <main+0x204>
 8001136:	2302      	movs	r3, #2
 8001138:	f8c7 32e4 	str.w	r3, [r7, #740]	@ 0x2e4
                for (int b = 0; b < beeps; b++) {
 800113c:	2300      	movs	r3, #0
 800113e:	f8c7 32f4 	str.w	r3, [r7, #756]	@ 0x2f4
 8001142:	e01d      	b.n	8001180 <main+0x24c>
                    HAL_GPIO_WritePin(GPIOA, GPIO_PIN_3, GPIO_PIN_SET);
 8001144:	2201      	movs	r2, #1
 8001146:	2108      	movs	r1, #8
 8001148:	f04f 4090 	mov.w	r0, #1207959552	@ 0x48000000
 800114c:	f003 f85a 	bl	8004204 <HAL_GPIO_WritePin>
                    HAL_Delay(80);
 8001150:	2050      	movs	r0, #80	@ 0x50
 8001152:	f001 fccb 	bl	8002aec <HAL_Delay>
                    HAL_GPIO_WritePin(GPIOA, GPIO_PIN_3, GPIO_PIN_RESET);
 8001156:	2200      	movs	r2, #0
 8001158:	2108      	movs	r1, #8
 800115a:	f04f 4090 	mov.w	r0, #1207959552	@ 0x48000000
 800115e:	f003 f851 	bl	8004204 <HAL_GPIO_WritePin>
                    if (b < beeps - 1) HAL_Delay(80); 
 8001162:	f8d7 32e4 	ldr.w	r3, [r7, #740]	@ 0x2e4
 8001166:	3b01      	subs	r3, #1
 8001168:	f8d7 22f4 	ldr.w	r2, [r7, #756]	@ 0x2f4
 800116c:	429a      	cmp	r2, r3
 800116e:	da02      	bge.n	8001176 <main+0x242>
 8001170:	2050      	movs	r0, #80	@ 0x50
 8001172:	f001 fcbb 	bl	8002aec <HAL_Delay>
                for (int b = 0; b < beeps; b++) {
 8001176:	f8d7 32f4 	ldr.w	r3, [r7, #756]	@ 0x2f4
 800117a:	3301      	adds	r3, #1
 800117c:	f8c7 32f4 	str.w	r3, [r7, #756]	@ 0x2f4
 8001180:	f8d7 22f4 	ldr.w	r2, [r7, #756]	@ 0x2f4
 8001184:	f8d7 32e4 	ldr.w	r3, [r7, #740]	@ 0x2e4
 8001188:	429a      	cmp	r2, r3
 800118a:	dbdb      	blt.n	8001144 <main+0x210>
                }

                if (system_armed) sprintf(buffer, "\r\n--- SYSTEM ARMED (2 presses) ---\r\n");
 800118c:	4b35      	ldr	r3, [pc, #212]	@ (8001264 <main+0x330>)
 800118e:	681b      	ldr	r3, [r3, #0]
 8001190:	2b00      	cmp	r3, #0
 8001192:	d006      	beq.n	80011a2 <main+0x26e>
 8001194:	f107 033c 	add.w	r3, r7, #60	@ 0x3c
 8001198:	4933      	ldr	r1, [pc, #204]	@ (8001268 <main+0x334>)
 800119a:	4618      	mov	r0, r3
 800119c:	f005 fa70 	bl	8006680 <siprintf>
 80011a0:	e005      	b.n	80011ae <main+0x27a>
                else sprintf(buffer, "\r\n--- SYSTEM DISARMED (2 presses) ---\r\n");
 80011a2:	f107 033c 	add.w	r3, r7, #60	@ 0x3c
 80011a6:	4931      	ldr	r1, [pc, #196]	@ (800126c <main+0x338>)
 80011a8:	4618      	mov	r0, r3
 80011aa:	f005 fa69 	bl	8006680 <siprintf>
                
                HAL_UART_Transmit(&huart1, (uint8_t*)buffer, strlen(buffer), HAL_MAX_DELAY);
 80011ae:	f107 033c 	add.w	r3, r7, #60	@ 0x3c
 80011b2:	4618      	mov	r0, r3
 80011b4:	f7ff f88c 	bl	80002d0 <strlen>
 80011b8:	4603      	mov	r3, r0
 80011ba:	b29a      	uxth	r2, r3
 80011bc:	f107 013c 	add.w	r1, r7, #60	@ 0x3c
 80011c0:	f04f 33ff 	mov.w	r3, #4294967295
 80011c4:	4826      	ldr	r0, [pc, #152]	@ (8001260 <main+0x32c>)
 80011c6:	f003 ffa1 	bl	800510c <HAL_UART_Transmit>
 80011ca:	e01d      	b.n	8001208 <main+0x2d4>
            }
            else if (btn_press_count >= 3) {
 80011cc:	f8d7 331c 	ldr.w	r3, [r7, #796]	@ 0x31c
 80011d0:	2b02      	cmp	r3, #2
 80011d2:	dd19      	ble.n	8001208 <main+0x2d4>
                system_armed = 1; 
 80011d4:	4b23      	ldr	r3, [pc, #140]	@ (8001264 <main+0x330>)
 80011d6:	2201      	movs	r2, #1
 80011d8:	601a      	str	r2, [r3, #0]
                current_state = STATE_CONFIRMED;
 80011da:	4b1f      	ldr	r3, [pc, #124]	@ (8001258 <main+0x324>)
 80011dc:	2203      	movs	r2, #3
 80011de:	701a      	strb	r2, [r3, #0]
                sprintf(buffer, 
 80011e0:	f107 033c 	add.w	r3, r7, #60	@ 0x3c
 80011e4:	4922      	ldr	r1, [pc, #136]	@ (8001270 <main+0x33c>)
 80011e6:	4618      	mov	r0, r3
 80011e8:	f005 fa4a 	bl	8006680 <siprintf>
                    "\r\n___SEND_TELEGRAM_ALERT___\r\n"
                    "!!! MANUAL ALARM TRIGGERED (3 presses) !!!\r\n");
                HAL_UART_Transmit(&huart1, (uint8_t*)buffer, strlen(buffer), HAL_MAX_DELAY);
 80011ec:	f107 033c 	add.w	r3, r7, #60	@ 0x3c
 80011f0:	4618      	mov	r0, r3
 80011f2:	f7ff f86d 	bl	80002d0 <strlen>
 80011f6:	4603      	mov	r3, r0
 80011f8:	b29a      	uxth	r2, r3
 80011fa:	f107 013c 	add.w	r1, r7, #60	@ 0x3c
 80011fe:	f04f 33ff 	mov.w	r3, #4294967295
 8001202:	4817      	ldr	r0, [pc, #92]	@ (8001260 <main+0x32c>)
 8001204:	f003 ff82 	bl	800510c <HAL_UART_Transmit>
            }
            btn_press_count = 0; 
 8001208:	2300      	movs	r3, #0
 800120a:	f8c7 331c 	str.w	r3, [r7, #796]	@ 0x31c
        }

        // ========== NON-BLOCKING SENSOR GATE ==========
        if (HAL_GetTick() - last_sensor_read_time < (uint32_t)delay_ms) continue;
 800120e:	f001 fc61 	bl	8002ad4 <HAL_GetTick>
 8001212:	4602      	mov	r2, r0
 8001214:	f8d7 3308 	ldr.w	r3, [r7, #776]	@ 0x308
 8001218:	1ad2      	subs	r2, r2, r3
 800121a:	f8d7 3320 	ldr.w	r3, [r7, #800]	@ 0x320
 800121e:	429a      	cmp	r2, r3
 8001220:	f0c0 8477 	bcc.w	8001b12 <main+0xbde>
        last_sensor_read_time = HAL_GetTick();
 8001224:	f001 fc56 	bl	8002ad4 <HAL_GetTick>
 8001228:	f8c7 0308 	str.w	r0, [r7, #776]	@ 0x308

        if (!system_armed) {
 800122c:	4b0d      	ldr	r3, [pc, #52]	@ (8001264 <main+0x330>)
 800122e:	681b      	ldr	r3, [r3, #0]
 8001230:	2b00      	cmp	r3, #0
 8001232:	d123      	bne.n	800127c <main+0x348>
            delay_ms = 500; 
 8001234:	f44f 73fa 	mov.w	r3, #500	@ 0x1f4
 8001238:	f8c7 3320 	str.w	r3, [r7, #800]	@ 0x320
            HAL_GPIO_WritePin(GPIOA, GPIO_PIN_3, GPIO_PIN_RESET); 
 800123c:	2200      	movs	r2, #0
 800123e:	2108      	movs	r1, #8
 8001240:	f04f 4090 	mov.w	r0, #1207959552	@ 0x48000000
 8001244:	f002 ffde 	bl	8004204 <HAL_GPIO_WritePin>
            BSP_LED_Off(LED2);
 8001248:	2000      	movs	r0, #0
 800124a:	f000 ff83 	bl	8002154 <BSP_LED_Off>
            continue; 
 800124e:	f000 bc61 	b.w	8001b14 <main+0xbe0>
 8001252:	bf00      	nop
 8001254:	48000800 	.word	0x48000800
 8001258:	20000360 	.word	0x20000360
 800125c:	080090e0 	.word	0x080090e0
 8001260:	20000264 	.word	0x20000264
 8001264:	20000000 	.word	0x20000000
 8001268:	08009104 	.word	0x08009104
 800126c:	0800912c 	.word	0x0800912c
 8001270:	08009154 	.word	0x08009154
 8001274:	447a0000 	.word	0x447a0000
 8001278:	3c20902e 	.word	0x3c20902e
        }

        int16_t accel_data_i16[3] = { 0 };          
 800127c:	f507 734a 	add.w	r3, r7, #808	@ 0x328
 8001280:	f5a3 7340 	sub.w	r3, r3, #768	@ 0x300
 8001284:	2200      	movs	r2, #0
 8001286:	601a      	str	r2, [r3, #0]
 8001288:	809a      	strh	r2, [r3, #4]
        BSP_ACCELERO_AccGetXYZ(accel_data_i16);
 800128a:	f107 0328 	add.w	r3, r7, #40	@ 0x28
 800128e:	4618      	mov	r0, r3
 8001290:	f001 f91c 	bl	80024cc <BSP_ACCELERO_AccGetXYZ>

        accel_buff_x[i%4]=accel_data_i16[0]; 
 8001294:	f507 734a 	add.w	r3, r7, #808	@ 0x328
 8001298:	f5a3 7340 	sub.w	r3, r3, #768	@ 0x300
 800129c:	f9b3 1000 	ldrsh.w	r1, [r3]
 80012a0:	f8d7 3324 	ldr.w	r3, [r7, #804]	@ 0x324
 80012a4:	425a      	negs	r2, r3
 80012a6:	f003 0303 	and.w	r3, r3, #3
 80012aa:	f002 0203 	and.w	r2, r2, #3
 80012ae:	bf58      	it	pl
 80012b0:	4253      	negpl	r3, r2
 80012b2:	460a      	mov	r2, r1
 80012b4:	009b      	lsls	r3, r3, #2
 80012b6:	f503 734a 	add.w	r3, r3, #808	@ 0x328
 80012ba:	443b      	add	r3, r7
 80012bc:	f843 2c74 	str.w	r2, [r3, #-116]
        accel_buff_y[i%4]=accel_data_i16[1]; 
 80012c0:	f507 734a 	add.w	r3, r7, #808	@ 0x328
 80012c4:	f5a3 7340 	sub.w	r3, r3, #768	@ 0x300
 80012c8:	f9b3 1002 	ldrsh.w	r1, [r3, #2]
 80012cc:	f8d7 3324 	ldr.w	r3, [r7, #804]	@ 0x324
 80012d0:	425a      	negs	r2, r3
 80012d2:	f003 0303 	and.w	r3, r3, #3
 80012d6:	f002 0203 	and.w	r2, r2, #3
 80012da:	bf58      	it	pl
 80012dc:	4253      	negpl	r3, r2
 80012de:	460a      	mov	r2, r1
 80012e0:	009b      	lsls	r3, r3, #2
 80012e2:	f503 734a 	add.w	r3, r3, #808	@ 0x328
 80012e6:	443b      	add	r3, r7
 80012e8:	f843 2c84 	str.w	r2, [r3, #-132]
        accel_buff_z[i%4]=accel_data_i16[2]; 
 80012ec:	f507 734a 	add.w	r3, r7, #808	@ 0x328
 80012f0:	f5a3 7340 	sub.w	r3, r3, #768	@ 0x300
 80012f4:	f9b3 1004 	ldrsh.w	r1, [r3, #4]
 80012f8:	f8d7 3324 	ldr.w	r3, [r7, #804]	@ 0x324
 80012fc:	425a      	negs	r2, r3
 80012fe:	f003 0303 	and.w	r3, r3, #3
 8001302:	f002 0203 	and.w	r2, r2, #3
 8001306:	bf58      	it	pl
 8001308:	4253      	negpl	r3, r2
 800130a:	460a      	mov	r2, r1
 800130c:	009b      	lsls	r3, r3, #2
 800130e:	f503 734a 	add.w	r3, r3, #808	@ 0x328
 8001312:	443b      	add	r3, r7
 8001314:	f843 2c94 	str.w	r2, [r3, #-148]

        float gyro_data[3]={0.0};
 8001318:	f507 734a 	add.w	r3, r7, #808	@ 0x328
 800131c:	f5a3 7343 	sub.w	r3, r3, #780	@ 0x30c
 8001320:	461a      	mov	r2, r3
 8001322:	2300      	movs	r3, #0
 8001324:	6013      	str	r3, [r2, #0]
 8001326:	6053      	str	r3, [r2, #4]
 8001328:	6093      	str	r3, [r2, #8]
        BSP_GYRO_GetXYZ(gyro_data);
 800132a:	f107 031c 	add.w	r3, r7, #28
 800132e:	4618      	mov	r0, r3
 8001330:	f001 f928 	bl	8002584 <BSP_GYRO_GetXYZ>

        float gyro_velocity[3]={0.0};
 8001334:	f507 734a 	add.w	r3, r7, #808	@ 0x328
 8001338:	f5a3 7346 	sub.w	r3, r3, #792	@ 0x318
 800133c:	461a      	mov	r2, r3
 800133e:	2300      	movs	r3, #0
 8001340:	6013      	str	r3, [r2, #0]
 8001342:	6053      	str	r3, [r2, #4]
 8001344:	6093      	str	r3, [r2, #8]
        gyro_velocity[0] = (gyro_data[0] / 1000.0f);
 8001346:	f507 734a 	add.w	r3, r7, #808	@ 0x328
 800134a:	f5a3 7343 	sub.w	r3, r3, #780	@ 0x30c
 800134e:	ed93 7a00 	vldr	s14, [r3]
 8001352:	ed5f 6a38 	vldr	s13, [pc, #-224]	@ 8001274 <main+0x340>
 8001356:	eec7 7a26 	vdiv.f32	s15, s14, s13
 800135a:	f507 734a 	add.w	r3, r7, #808	@ 0x328
 800135e:	f5a3 7346 	sub.w	r3, r3, #792	@ 0x318
 8001362:	edc3 7a00 	vstr	s15, [r3]
        gyro_velocity[1] = (gyro_data[1] / 1000.0f);
 8001366:	f507 734a 	add.w	r3, r7, #808	@ 0x328
 800136a:	f5a3 7343 	sub.w	r3, r3, #780	@ 0x30c
 800136e:	ed93 7a01 	vldr	s14, [r3, #4]
 8001372:	ed5f 6a40 	vldr	s13, [pc, #-256]	@ 8001274 <main+0x340>
 8001376:	eec7 7a26 	vdiv.f32	s15, s14, s13
 800137a:	f507 734a 	add.w	r3, r7, #808	@ 0x328
 800137e:	f5a3 7346 	sub.w	r3, r3, #792	@ 0x318
 8001382:	edc3 7a01 	vstr	s15, [r3, #4]
        gyro_velocity[2] = (gyro_data[2] / 1000.0f);
 8001386:	f507 734a 	add.w	r3, r7, #808	@ 0x328
 800138a:	f5a3 7343 	sub.w	r3, r3, #780	@ 0x30c
 800138e:	ed93 7a02 	vldr	s14, [r3, #8]
 8001392:	ed5f 6a48 	vldr	s13, [pc, #-288]	@ 8001274 <main+0x340>
 8001396:	eec7 7a26 	vdiv.f32	s15, s14, s13
 800139a:	f507 734a 	add.w	r3, r7, #808	@ 0x328
 800139e:	f5a3 7346 	sub.w	r3, r3, #792	@ 0x318
 80013a2:	edc3 7a02 	vstr	s15, [r3, #8]

        float accel_filt_asm[3]={0}; 
 80013a6:	f507 734a 	add.w	r3, r7, #808	@ 0x328
 80013aa:	f5a3 7349 	sub.w	r3, r3, #804	@ 0x324
 80013ae:	461a      	mov	r2, r3
 80013b0:	2300      	movs	r3, #0
 80013b2:	6013      	str	r3, [r2, #0]
 80013b4:	6053      	str	r3, [r2, #4]
 80013b6:	6093      	str	r3, [r2, #8]
        accel_filt_asm[0]= (float)mov_avg(N,accel_buff_x) * (9.8f/1000.0f);
 80013b8:	f507 732d 	add.w	r3, r7, #692	@ 0x2b4
 80013bc:	4619      	mov	r1, r3
 80013be:	f8d7 02ec 	ldr.w	r0, [r7, #748]	@ 0x2ec
 80013c2:	f7fe ff1d 	bl	8000200 <mov_avg>
 80013c6:	ee07 0a90 	vmov	s15, r0
 80013ca:	eef8 7ae7 	vcvt.f32.s32	s15, s15
 80013ce:	ed1f 7a56 	vldr	s14, [pc, #-344]	@ 8001278 <main+0x344>
 80013d2:	ee67 7a87 	vmul.f32	s15, s15, s14
 80013d6:	f507 734a 	add.w	r3, r7, #808	@ 0x328
 80013da:	f5a3 7349 	sub.w	r3, r3, #804	@ 0x324
 80013de:	edc3 7a00 	vstr	s15, [r3]
        accel_filt_asm[1]= (float)mov_avg(N,accel_buff_y) * (9.8f/1000.0f);
 80013e2:	f507 7329 	add.w	r3, r7, #676	@ 0x2a4
 80013e6:	4619      	mov	r1, r3
 80013e8:	f8d7 02ec 	ldr.w	r0, [r7, #748]	@ 0x2ec
 80013ec:	f7fe ff08 	bl	8000200 <mov_avg>
 80013f0:	ee07 0a90 	vmov	s15, r0
 80013f4:	eef8 7ae7 	vcvt.f32.s32	s15, s15
 80013f8:	ed1f 7a61 	vldr	s14, [pc, #-388]	@ 8001278 <main+0x344>
 80013fc:	ee67 7a87 	vmul.f32	s15, s15, s14
 8001400:	f507 734a 	add.w	r3, r7, #808	@ 0x328
 8001404:	f5a3 7349 	sub.w	r3, r3, #804	@ 0x324
 8001408:	edc3 7a01 	vstr	s15, [r3, #4]
        accel_filt_asm[2]= (float)mov_avg(N,accel_buff_z) * (9.8f/1000.0f);
 800140c:	f507 7325 	add.w	r3, r7, #660	@ 0x294
 8001410:	4619      	mov	r1, r3
 8001412:	f8d7 02ec 	ldr.w	r0, [r7, #748]	@ 0x2ec
 8001416:	f7fe fef3 	bl	8000200 <mov_avg>
 800141a:	ee07 0a90 	vmov	s15, r0
 800141e:	eef8 7ae7 	vcvt.f32.s32	s15, s15
 8001422:	ed1f 7a6b 	vldr	s14, [pc, #-428]	@ 8001278 <main+0x344>
 8001426:	ee67 7a87 	vmul.f32	s15, s15, s14
 800142a:	f507 734a 	add.w	r3, r7, #808	@ 0x328
 800142e:	f5a3 7349 	sub.w	r3, r3, #804	@ 0x324
 8001432:	edc3 7a02 	vstr	s15, [r3, #8]

        uint32_t current_sound = Read_Sound_Sensor();
 8001436:	f000 fc29 	bl	8001c8c <Read_Sound_Sensor>
 800143a:	f8c7 02e0 	str.w	r0, [r7, #736]	@ 0x2e0

        float total_accel = sqrtf(powf(accel_filt_asm[0], 2) + powf(accel_filt_asm[1], 2) + powf(accel_filt_asm[2], 2));
 800143e:	f507 734a 	add.w	r3, r7, #808	@ 0x328
 8001442:	f5a3 7349 	sub.w	r3, r3, #804	@ 0x324
 8001446:	edd3 7a00 	vldr	s15, [r3]
 800144a:	eef0 0a00 	vmov.f32	s1, #0	@ 0x40000000  2.0
 800144e:	eeb0 0a67 	vmov.f32	s0, s15
 8001452:	f007 fa49 	bl	80088e8 <powf>
 8001456:	eeb0 8a40 	vmov.f32	s16, s0
 800145a:	f507 734a 	add.w	r3, r7, #808	@ 0x328
 800145e:	f5a3 7349 	sub.w	r3, r3, #804	@ 0x324
 8001462:	edd3 7a01 	vldr	s15, [r3, #4]
 8001466:	eef0 0a00 	vmov.f32	s1, #0	@ 0x40000000  2.0
 800146a:	eeb0 0a67 	vmov.f32	s0, s15
 800146e:	f007 fa3b 	bl	80088e8 <powf>
 8001472:	eef0 7a40 	vmov.f32	s15, s0
 8001476:	ee38 8a27 	vadd.f32	s16, s16, s15
 800147a:	f507 734a 	add.w	r3, r7, #808	@ 0x328
 800147e:	f5a3 7349 	sub.w	r3, r3, #804	@ 0x324
 8001482:	edd3 7a02 	vldr	s15, [r3, #8]
 8001486:	eef0 0a00 	vmov.f32	s1, #0	@ 0x40000000  2.0
 800148a:	eeb0 0a67 	vmov.f32	s0, s15
 800148e:	f007 fa2b 	bl	80088e8 <powf>
 8001492:	eef0 7a40 	vmov.f32	s15, s0
 8001496:	ee78 7a27 	vadd.f32	s15, s16, s15
 800149a:	eeb0 0a67 	vmov.f32	s0, s15
 800149e:	f007 fa7b 	bl	8008998 <sqrtf>
 80014a2:	ed87 0ab7 	vstr	s0, [r7, #732]	@ 0x2dc
        float total_gyro = sqrtf(powf(gyro_velocity[0], 2) + powf(gyro_velocity[1], 2) + powf(gyro_velocity[2], 2));
 80014a6:	f507 734a 	add.w	r3, r7, #808	@ 0x328
 80014aa:	f5a3 7346 	sub.w	r3, r3, #792	@ 0x318
 80014ae:	edd3 7a00 	vldr	s15, [r3]
 80014b2:	eef0 0a00 	vmov.f32	s1, #0	@ 0x40000000  2.0
 80014b6:	eeb0 0a67 	vmov.f32	s0, s15
 80014ba:	f007 fa15 	bl	80088e8 <powf>
 80014be:	eeb0 8a40 	vmov.f32	s16, s0
 80014c2:	f507 734a 	add.w	r3, r7, #808	@ 0x328
 80014c6:	f5a3 7346 	sub.w	r3, r3, #792	@ 0x318
 80014ca:	edd3 7a01 	vldr	s15, [r3, #4]
 80014ce:	eef0 0a00 	vmov.f32	s1, #0	@ 0x40000000  2.0
 80014d2:	eeb0 0a67 	vmov.f32	s0, s15
 80014d6:	f007 fa07 	bl	80088e8 <powf>
 80014da:	eef0 7a40 	vmov.f32	s15, s0
 80014de:	ee38 8a27 	vadd.f32	s16, s16, s15
 80014e2:	f507 734a 	add.w	r3, r7, #808	@ 0x328
 80014e6:	f5a3 7346 	sub.w	r3, r3, #792	@ 0x318
 80014ea:	edd3 7a02 	vldr	s15, [r3, #8]
 80014ee:	eef0 0a00 	vmov.f32	s1, #0	@ 0x40000000  2.0
 80014f2:	eeb0 0a67 	vmov.f32	s0, s15
 80014f6:	f007 f9f7 	bl	80088e8 <powf>
 80014fa:	eef0 7a40 	vmov.f32	s15, s0
 80014fe:	ee78 7a27 	vadd.f32	s15, s16, s15
 8001502:	eeb0 0a67 	vmov.f32	s0, s15
 8001506:	f007 fa47 	bl	8008998 <sqrtf>
 800150a:	ed87 0ab6 	vstr	s0, [r7, #728]	@ 0x2d8

        if (current_sound > peak_sound_window) peak_sound_window = current_sound;
 800150e:	f8d7 22e0 	ldr.w	r2, [r7, #736]	@ 0x2e0
 8001512:	f8d7 3304 	ldr.w	r3, [r7, #772]	@ 0x304
 8001516:	429a      	cmp	r2, r3
 8001518:	d903      	bls.n	8001522 <main+0x5ee>
 800151a:	f8d7 32e0 	ldr.w	r3, [r7, #736]	@ 0x2e0
 800151e:	f8c7 3304 	str.w	r3, [r7, #772]	@ 0x304
        if (total_accel > peak_accel_window) peak_accel_window = total_accel;
 8001522:	ed97 7ab7 	vldr	s14, [r7, #732]	@ 0x2dc
 8001526:	edd7 7ac0 	vldr	s15, [r7, #768]	@ 0x300
 800152a:	eeb4 7ae7 	vcmpe.f32	s14, s15
 800152e:	eef1 fa10 	vmrs	APSR_nzcv, fpscr
 8001532:	dd03      	ble.n	800153c <main+0x608>
 8001534:	f8d7 32dc 	ldr.w	r3, [r7, #732]	@ 0x2dc
 8001538:	f8c7 3300 	str.w	r3, [r7, #768]	@ 0x300
        if (total_gyro > peak_gyro_window) peak_gyro_window = total_gyro;
 800153c:	ed97 7ab6 	vldr	s14, [r7, #728]	@ 0x2d8
 8001540:	edd7 7abf 	vldr	s15, [r7, #764]	@ 0x2fc
 8001544:	eeb4 7ae7 	vcmpe.f32	s14, s15
 8001548:	eef1 fa10 	vmrs	APSR_nzcv, fpscr
 800154c:	dd03      	ble.n	8001556 <main+0x622>
 800154e:	f8d7 32d8 	ldr.w	r3, [r7, #728]	@ 0x2d8
 8001552:	f8c7 32fc 	str.w	r3, [r7, #764]	@ 0x2fc

        float ACCEL_THRESHOLD_HIGH = 20.0f; 
 8001556:	4bb9      	ldr	r3, [pc, #740]	@ (800183c <main+0x908>)
 8001558:	f8c7 32d4 	str.w	r3, [r7, #724]	@ 0x2d4
        float ACCEL_THRESHOLD_LOW = 5.0f;   
 800155c:	4bb8      	ldr	r3, [pc, #736]	@ (8001840 <main+0x90c>)
 800155e:	f8c7 32d0 	str.w	r3, [r7, #720]	@ 0x2d0
        float GYRO_THRESHOLD = 400.0f;      
 8001562:	4bb8      	ldr	r3, [pc, #736]	@ (8001844 <main+0x910>)
 8001564:	f8c7 32cc 	str.w	r3, [r7, #716]	@ 0x2cc

        static int last_printed_second = -1;

        // 500ms Print and Baseline Update (Silenced during ALARM)
        if (i % 25 == 0) {
 8001568:	f8d7 1324 	ldr.w	r1, [r7, #804]	@ 0x324
 800156c:	4bb6      	ldr	r3, [pc, #728]	@ (8001848 <main+0x914>)
 800156e:	fb83 2301 	smull	r2, r3, r3, r1
 8001572:	10da      	asrs	r2, r3, #3
 8001574:	17cb      	asrs	r3, r1, #31
 8001576:	1ad2      	subs	r2, r2, r3
 8001578:	4613      	mov	r3, r2
 800157a:	009b      	lsls	r3, r3, #2
 800157c:	4413      	add	r3, r2
 800157e:	009a      	lsls	r2, r3, #2
 8001580:	4413      	add	r3, r2
 8001582:	1aca      	subs	r2, r1, r3
 8001584:	2a00      	cmp	r2, #0
 8001586:	d175      	bne.n	8001674 <main+0x740>
            if (current_state != STATE_CONFIRMED) {
 8001588:	4bb0      	ldr	r3, [pc, #704]	@ (800184c <main+0x918>)
 800158a:	781b      	ldrb	r3, [r3, #0]
 800158c:	2b03      	cmp	r3, #3
 800158e:	d024      	beq.n	80015da <main+0x6a6>
                sprintf(buffer, "Sound:%lu | Accel:%.2f | Gyro:%.2f\r\n", peak_sound_window, peak_accel_window, peak_gyro_window);
 8001590:	f8d7 0300 	ldr.w	r0, [r7, #768]	@ 0x300
 8001594:	f7ff f808 	bl	80005a8 <__aeabi_f2d>
 8001598:	4604      	mov	r4, r0
 800159a:	460d      	mov	r5, r1
 800159c:	f8d7 02fc 	ldr.w	r0, [r7, #764]	@ 0x2fc
 80015a0:	f7ff f802 	bl	80005a8 <__aeabi_f2d>
 80015a4:	4602      	mov	r2, r0
 80015a6:	460b      	mov	r3, r1
 80015a8:	f107 003c 	add.w	r0, r7, #60	@ 0x3c
 80015ac:	e9cd 2302 	strd	r2, r3, [sp, #8]
 80015b0:	e9cd 4500 	strd	r4, r5, [sp]
 80015b4:	f8d7 2304 	ldr.w	r2, [r7, #772]	@ 0x304
 80015b8:	49a5      	ldr	r1, [pc, #660]	@ (8001850 <main+0x91c>)
 80015ba:	f005 f861 	bl	8006680 <siprintf>
                HAL_UART_Transmit(&huart1, (uint8_t*)buffer, strlen(buffer), HAL_MAX_DELAY);
 80015be:	f107 033c 	add.w	r3, r7, #60	@ 0x3c
 80015c2:	4618      	mov	r0, r3
 80015c4:	f7fe fe84 	bl	80002d0 <strlen>
 80015c8:	4603      	mov	r3, r0
 80015ca:	b29a      	uxth	r2, r3
 80015cc:	f107 013c 	add.w	r1, r7, #60	@ 0x3c
 80015d0:	f04f 33ff 	mov.w	r3, #4294967295
 80015d4:	489f      	ldr	r0, [pc, #636]	@ (8001854 <main+0x920>)
 80015d6:	f003 fd99 	bl	800510c <HAL_UART_Transmit>
            }
            
            sound_history[2] = sound_history[1];
 80015da:	f507 734a 	add.w	r3, r7, #808	@ 0x328
 80015de:	f5a3 733e 	sub.w	r3, r3, #760	@ 0x2f8
 80015e2:	685a      	ldr	r2, [r3, #4]
 80015e4:	f507 734a 	add.w	r3, r7, #808	@ 0x328
 80015e8:	f5a3 733e 	sub.w	r3, r3, #760	@ 0x2f8
 80015ec:	609a      	str	r2, [r3, #8]
            sound_history[1] = sound_history[0];
 80015ee:	f507 734a 	add.w	r3, r7, #808	@ 0x328
 80015f2:	f5a3 733e 	sub.w	r3, r3, #760	@ 0x2f8
 80015f6:	681a      	ldr	r2, [r3, #0]
 80015f8:	f507 734a 	add.w	r3, r7, #808	@ 0x328
 80015fc:	f5a3 733e 	sub.w	r3, r3, #760	@ 0x2f8
 8001600:	605a      	str	r2, [r3, #4]
            sound_history[0] = peak_sound_window;
 8001602:	f507 734a 	add.w	r3, r7, #808	@ 0x328
 8001606:	f5a3 733e 	sub.w	r3, r3, #760	@ 0x2f8
 800160a:	f8d7 2304 	ldr.w	r2, [r7, #772]	@ 0x304
 800160e:	601a      	str	r2, [r3, #0]

            bg_sound_max = sound_history[0];
 8001610:	f507 734a 	add.w	r3, r7, #808	@ 0x328
 8001614:	f5a3 733e 	sub.w	r3, r3, #760	@ 0x2f8
 8001618:	681b      	ldr	r3, [r3, #0]
 800161a:	f8c7 32f8 	str.w	r3, [r7, #760]	@ 0x2f8
            if (sound_history[1] > bg_sound_max) bg_sound_max = sound_history[1];
 800161e:	f507 734a 	add.w	r3, r7, #808	@ 0x328
 8001622:	f5a3 733e 	sub.w	r3, r3, #760	@ 0x2f8
 8001626:	685b      	ldr	r3, [r3, #4]
 8001628:	f8d7 22f8 	ldr.w	r2, [r7, #760]	@ 0x2f8
 800162c:	429a      	cmp	r2, r3
 800162e:	d206      	bcs.n	800163e <main+0x70a>
 8001630:	f507 734a 	add.w	r3, r7, #808	@ 0x328
 8001634:	f5a3 733e 	sub.w	r3, r3, #760	@ 0x2f8
 8001638:	685b      	ldr	r3, [r3, #4]
 800163a:	f8c7 32f8 	str.w	r3, [r7, #760]	@ 0x2f8
            if (sound_history[2] > bg_sound_max) bg_sound_max = sound_history[2];
 800163e:	f507 734a 	add.w	r3, r7, #808	@ 0x328
 8001642:	f5a3 733e 	sub.w	r3, r3, #760	@ 0x2f8
 8001646:	689b      	ldr	r3, [r3, #8]
 8001648:	f8d7 22f8 	ldr.w	r2, [r7, #760]	@ 0x2f8
 800164c:	429a      	cmp	r2, r3
 800164e:	d206      	bcs.n	800165e <main+0x72a>
 8001650:	f507 734a 	add.w	r3, r7, #808	@ 0x328
 8001654:	f5a3 733e 	sub.w	r3, r3, #760	@ 0x2f8
 8001658:	689b      	ldr	r3, [r3, #8]
 800165a:	f8c7 32f8 	str.w	r3, [r7, #760]	@ 0x2f8

            peak_sound_window = 0; 
 800165e:	2300      	movs	r3, #0
 8001660:	f8c7 3304 	str.w	r3, [r7, #772]	@ 0x304
            peak_accel_window = 0.0f;
 8001664:	f04f 0300 	mov.w	r3, #0
 8001668:	f8c7 3300 	str.w	r3, [r7, #768]	@ 0x300
            peak_gyro_window = 0.0f;
 800166c:	f04f 0300 	mov.w	r3, #0
 8001670:	f8c7 32fc 	str.w	r3, [r7, #764]	@ 0x2fc
        }
        
        i++; 
 8001674:	f8d7 3324 	ldr.w	r3, [r7, #804]	@ 0x324
 8001678:	3301      	adds	r3, #1
 800167a:	f8c7 3324 	str.w	r3, [r7, #804]	@ 0x324

        // ********* Fall Detection FSM *********/
        switch (current_state) {
 800167e:	4b73      	ldr	r3, [pc, #460]	@ (800184c <main+0x918>)
 8001680:	781b      	ldrb	r3, [r3, #0]
 8001682:	2b03      	cmp	r3, #3
 8001684:	f200 8238 	bhi.w	8001af8 <main+0xbc4>
 8001688:	a201      	add	r2, pc, #4	@ (adr r2, 8001690 <main+0x75c>)
 800168a:	f852 f023 	ldr.w	pc, [r2, r3, lsl #2]
 800168e:	bf00      	nop
 8001690:	080016a1 	.word	0x080016a1
 8001694:	08001787 	.word	0x08001787
 8001698:	0800190f 	.word	0x0800190f
 800169c:	08001ad7 	.word	0x08001ad7
            case STATE_NORMAL:
                seen_impact = 0;
 80016a0:	4b6d      	ldr	r3, [pc, #436]	@ (8001858 <main+0x924>)
 80016a2:	2200      	movs	r2, #0
 80016a4:	601a      	str	r2, [r3, #0]
                seen_rotation = 0;
 80016a6:	4b6d      	ldr	r3, [pc, #436]	@ (800185c <main+0x928>)
 80016a8:	2200      	movs	r2, #0
 80016aa:	601a      	str	r2, [r3, #0]
                seen_freefall = 0;
 80016ac:	4b6c      	ldr	r3, [pc, #432]	@ (8001860 <main+0x92c>)
 80016ae:	2200      	movs	r2, #0
 80016b0:	601a      	str	r2, [r3, #0]
                seen_loud_noise = 0;
 80016b2:	4b6c      	ldr	r3, [pc, #432]	@ (8001864 <main+0x930>)
 80016b4:	2200      	movs	r2, #0
 80016b6:	601a      	str	r2, [r3, #0]
                delay_ms = 20; 
 80016b8:	2314      	movs	r3, #20
 80016ba:	f8c7 3320 	str.w	r3, [r7, #800]	@ 0x320

                if (total_accel > ACCEL_THRESHOLD_HIGH) seen_impact = 1;
 80016be:	ed97 7ab7 	vldr	s14, [r7, #732]	@ 0x2dc
 80016c2:	edd7 7ab5 	vldr	s15, [r7, #724]	@ 0x2d4
 80016c6:	eeb4 7ae7 	vcmpe.f32	s14, s15
 80016ca:	eef1 fa10 	vmrs	APSR_nzcv, fpscr
 80016ce:	dd02      	ble.n	80016d6 <main+0x7a2>
 80016d0:	4b61      	ldr	r3, [pc, #388]	@ (8001858 <main+0x924>)
 80016d2:	2201      	movs	r2, #1
 80016d4:	601a      	str	r2, [r3, #0]
                if (total_accel < ACCEL_THRESHOLD_LOW)  seen_freefall = 1;
 80016d6:	ed97 7ab7 	vldr	s14, [r7, #732]	@ 0x2dc
 80016da:	edd7 7ab4 	vldr	s15, [r7, #720]	@ 0x2d0
 80016de:	eeb4 7ae7 	vcmpe.f32	s14, s15
 80016e2:	eef1 fa10 	vmrs	APSR_nzcv, fpscr
 80016e6:	d502      	bpl.n	80016ee <main+0x7ba>
 80016e8:	4b5d      	ldr	r3, [pc, #372]	@ (8001860 <main+0x92c>)
 80016ea:	2201      	movs	r2, #1
 80016ec:	601a      	str	r2, [r3, #0]
                if (total_gyro  > GYRO_THRESHOLD)       seen_rotation = 1;
 80016ee:	ed97 7ab6 	vldr	s14, [r7, #728]	@ 0x2d8
 80016f2:	edd7 7ab3 	vldr	s15, [r7, #716]	@ 0x2cc
 80016f6:	eeb4 7ae7 	vcmpe.f32	s14, s15
 80016fa:	eef1 fa10 	vmrs	APSR_nzcv, fpscr
 80016fe:	dd02      	ble.n	8001706 <main+0x7d2>
 8001700:	4b56      	ldr	r3, [pc, #344]	@ (800185c <main+0x928>)
 8001702:	2201      	movs	r2, #1
 8001704:	601a      	str	r2, [r3, #0]

                if (seen_impact || seen_freefall || seen_rotation) {
 8001706:	4b54      	ldr	r3, [pc, #336]	@ (8001858 <main+0x924>)
 8001708:	681b      	ldr	r3, [r3, #0]
 800170a:	2b00      	cmp	r3, #0
 800170c:	d108      	bne.n	8001720 <main+0x7ec>
 800170e:	4b54      	ldr	r3, [pc, #336]	@ (8001860 <main+0x92c>)
 8001710:	681b      	ldr	r3, [r3, #0]
 8001712:	2b00      	cmp	r3, #0
 8001714:	d104      	bne.n	8001720 <main+0x7ec>
 8001716:	4b51      	ldr	r3, [pc, #324]	@ (800185c <main+0x928>)
 8001718:	681b      	ldr	r3, [r3, #0]
 800171a:	2b00      	cmp	r3, #0
 800171c:	f000 81e7 	beq.w	8001aee <main+0xbba>
                    current_state = STATE_FALLING;
 8001720:	4b4a      	ldr	r3, [pc, #296]	@ (800184c <main+0x918>)
 8001722:	2201      	movs	r2, #1
 8001724:	701a      	strb	r2, [r3, #0]
                    state_timer = HAL_GetTick();
 8001726:	f001 f9d5 	bl	8002ad4 <HAL_GetTick>
 800172a:	4603      	mov	r3, r0
 800172c:	4a4e      	ldr	r2, [pc, #312]	@ (8001868 <main+0x934>)
 800172e:	6013      	str	r3, [r2, #0]
                    sprintf(buffer,
                        "\r\n=================================\r\n"
                        " EVENT DETECTED - INVESTIGATING...\r\n"
                        " Trigger: %s%s%s\r\n"
                        "=================================\r\n",
                        seen_impact ? "IMPACT " : "",
 8001730:	4b49      	ldr	r3, [pc, #292]	@ (8001858 <main+0x924>)
 8001732:	681b      	ldr	r3, [r3, #0]
                    sprintf(buffer,
 8001734:	2b00      	cmp	r3, #0
 8001736:	d001      	beq.n	800173c <main+0x808>
 8001738:	4a4c      	ldr	r2, [pc, #304]	@ (800186c <main+0x938>)
 800173a:	e000      	b.n	800173e <main+0x80a>
 800173c:	4a4c      	ldr	r2, [pc, #304]	@ (8001870 <main+0x93c>)
                        seen_freefall ? "FREEFALL " : "",
 800173e:	4b48      	ldr	r3, [pc, #288]	@ (8001860 <main+0x92c>)
 8001740:	681b      	ldr	r3, [r3, #0]
                    sprintf(buffer,
 8001742:	2b00      	cmp	r3, #0
 8001744:	d001      	beq.n	800174a <main+0x816>
 8001746:	494b      	ldr	r1, [pc, #300]	@ (8001874 <main+0x940>)
 8001748:	e000      	b.n	800174c <main+0x818>
 800174a:	4949      	ldr	r1, [pc, #292]	@ (8001870 <main+0x93c>)
                        seen_rotation ? "ROTATION" : "");
 800174c:	4b43      	ldr	r3, [pc, #268]	@ (800185c <main+0x928>)
 800174e:	681b      	ldr	r3, [r3, #0]
                    sprintf(buffer,
 8001750:	2b00      	cmp	r3, #0
 8001752:	d001      	beq.n	8001758 <main+0x824>
 8001754:	4b48      	ldr	r3, [pc, #288]	@ (8001878 <main+0x944>)
 8001756:	e000      	b.n	800175a <main+0x826>
 8001758:	4b45      	ldr	r3, [pc, #276]	@ (8001870 <main+0x93c>)
 800175a:	f107 003c 	add.w	r0, r7, #60	@ 0x3c
 800175e:	9300      	str	r3, [sp, #0]
 8001760:	460b      	mov	r3, r1
 8001762:	4946      	ldr	r1, [pc, #280]	@ (800187c <main+0x948>)
 8001764:	f004 ff8c 	bl	8006680 <siprintf>
                    HAL_UART_Transmit(&huart1, (uint8_t*)buffer, strlen(buffer), HAL_MAX_DELAY);
 8001768:	f107 033c 	add.w	r3, r7, #60	@ 0x3c
 800176c:	4618      	mov	r0, r3
 800176e:	f7fe fdaf 	bl	80002d0 <strlen>
 8001772:	4603      	mov	r3, r0
 8001774:	b29a      	uxth	r2, r3
 8001776:	f107 013c 	add.w	r1, r7, #60	@ 0x3c
 800177a:	f04f 33ff 	mov.w	r3, #4294967295
 800177e:	4835      	ldr	r0, [pc, #212]	@ (8001854 <main+0x920>)
 8001780:	f003 fcc4 	bl	800510c <HAL_UART_Transmit>
                }
                break;
 8001784:	e1b3      	b.n	8001aee <main+0xbba>

            case STATE_FALLING:
                delay_ms = 20; 
 8001786:	2314      	movs	r3, #20
 8001788:	f8c7 3320 	str.w	r3, [r7, #800]	@ 0x320

                if (total_accel > ACCEL_THRESHOLD_HIGH) seen_impact = 1; 
 800178c:	ed97 7ab7 	vldr	s14, [r7, #732]	@ 0x2dc
 8001790:	edd7 7ab5 	vldr	s15, [r7, #724]	@ 0x2d4
 8001794:	eeb4 7ae7 	vcmpe.f32	s14, s15
 8001798:	eef1 fa10 	vmrs	APSR_nzcv, fpscr
 800179c:	dd02      	ble.n	80017a4 <main+0x870>
 800179e:	4b2e      	ldr	r3, [pc, #184]	@ (8001858 <main+0x924>)
 80017a0:	2201      	movs	r2, #1
 80017a2:	601a      	str	r2, [r3, #0]
                if (total_accel < ACCEL_THRESHOLD_LOW)  seen_freefall = 1; 
 80017a4:	ed97 7ab7 	vldr	s14, [r7, #732]	@ 0x2dc
 80017a8:	edd7 7ab4 	vldr	s15, [r7, #720]	@ 0x2d0
 80017ac:	eeb4 7ae7 	vcmpe.f32	s14, s15
 80017b0:	eef1 fa10 	vmrs	APSR_nzcv, fpscr
 80017b4:	d502      	bpl.n	80017bc <main+0x888>
 80017b6:	4b2a      	ldr	r3, [pc, #168]	@ (8001860 <main+0x92c>)
 80017b8:	2201      	movs	r2, #1
 80017ba:	601a      	str	r2, [r3, #0]
                if (total_gyro  > GYRO_THRESHOLD)       seen_rotation = 1; 
 80017bc:	ed97 7ab6 	vldr	s14, [r7, #728]	@ 0x2d8
 80017c0:	edd7 7ab3 	vldr	s15, [r7, #716]	@ 0x2cc
 80017c4:	eeb4 7ae7 	vcmpe.f32	s14, s15
 80017c8:	eef1 fa10 	vmrs	APSR_nzcv, fpscr
 80017cc:	dd02      	ble.n	80017d4 <main+0x8a0>
 80017ce:	4b23      	ldr	r3, [pc, #140]	@ (800185c <main+0x928>)
 80017d0:	2201      	movs	r2, #1
 80017d2:	601a      	str	r2, [r3, #0]
                
                if (current_sound > (bg_sound_max + 600)) seen_loud_noise = 1;
 80017d4:	f8d7 32f8 	ldr.w	r3, [r7, #760]	@ 0x2f8
 80017d8:	f503 7316 	add.w	r3, r3, #600	@ 0x258
 80017dc:	f8d7 22e0 	ldr.w	r2, [r7, #736]	@ 0x2e0
 80017e0:	429a      	cmp	r2, r3
 80017e2:	d902      	bls.n	80017ea <main+0x8b6>
 80017e4:	4b1f      	ldr	r3, [pc, #124]	@ (8001864 <main+0x930>)
 80017e6:	2201      	movs	r2, #1
 80017e8:	601a      	str	r2, [r3, #0]

                if (seen_impact && (seen_freefall || seen_rotation)) {
 80017ea:	4b1b      	ldr	r3, [pc, #108]	@ (8001858 <main+0x924>)
 80017ec:	681b      	ldr	r3, [r3, #0]
 80017ee:	2b00      	cmp	r3, #0
 80017f0:	d069      	beq.n	80018c6 <main+0x992>
 80017f2:	4b1b      	ldr	r3, [pc, #108]	@ (8001860 <main+0x92c>)
 80017f4:	681b      	ldr	r3, [r3, #0]
 80017f6:	2b00      	cmp	r3, #0
 80017f8:	d103      	bne.n	8001802 <main+0x8ce>
 80017fa:	4b18      	ldr	r3, [pc, #96]	@ (800185c <main+0x928>)
 80017fc:	681b      	ldr	r3, [r3, #0]
 80017fe:	2b00      	cmp	r3, #0
 8001800:	d061      	beq.n	80018c6 <main+0x992>
                    if (seen_loud_noise) {
 8001802:	4b18      	ldr	r3, [pc, #96]	@ (8001864 <main+0x930>)
 8001804:	681b      	ldr	r3, [r3, #0]
 8001806:	2b00      	cmp	r3, #0
 8001808:	d03c      	beq.n	8001884 <main+0x950>
                        current_state = STATE_CONFIRMED;
 800180a:	4b10      	ldr	r3, [pc, #64]	@ (800184c <main+0x918>)
 800180c:	2203      	movs	r2, #3
 800180e:	701a      	strb	r2, [r3, #0]
                        // Sentinel + ASCII Art prints ONCE right here
                        sprintf(buffer, 
 8001810:	f107 033c 	add.w	r3, r7, #60	@ 0x3c
 8001814:	491a      	ldr	r1, [pc, #104]	@ (8001880 <main+0x94c>)
 8001816:	4618      	mov	r0, r3
 8001818:	f004 ff32 	bl	8006680 <siprintf>
                            "  AAA  L       AAA  RRRR  M   M \r\n"
                            " A   A L      A   A R   R MM MM \r\n"
                            " AAAAA L      AAAAA RRRR  M M M \r\n"
                            " A   A L      A   A R   R M   M \r\n"
                            " A   A LLLLLL A   A R   R M   M \r\n");
                        HAL_UART_Transmit(&huart1, (uint8_t*)buffer, strlen(buffer), HAL_MAX_DELAY);
 800181c:	f107 033c 	add.w	r3, r7, #60	@ 0x3c
 8001820:	4618      	mov	r0, r3
 8001822:	f7fe fd55 	bl	80002d0 <strlen>
 8001826:	4603      	mov	r3, r0
 8001828:	b29a      	uxth	r2, r3
 800182a:	f107 013c 	add.w	r1, r7, #60	@ 0x3c
 800182e:	f04f 33ff 	mov.w	r3, #4294967295
 8001832:	4808      	ldr	r0, [pc, #32]	@ (8001854 <main+0x920>)
 8001834:	f003 fc6a 	bl	800510c <HAL_UART_Transmit>
                    if (seen_loud_noise) {
 8001838:	e068      	b.n	800190c <main+0x9d8>
 800183a:	bf00      	nop
 800183c:	41a00000 	.word	0x41a00000
 8001840:	40a00000 	.word	0x40a00000
 8001844:	43c80000 	.word	0x43c80000
 8001848:	51eb851f 	.word	0x51eb851f
 800184c:	20000360 	.word	0x20000360
 8001850:	080091a0 	.word	0x080091a0
 8001854:	20000264 	.word	0x20000264
 8001858:	20000368 	.word	0x20000368
 800185c:	2000036c 	.word	0x2000036c
 8001860:	20000370 	.word	0x20000370
 8001864:	20000374 	.word	0x20000374
 8001868:	20000364 	.word	0x20000364
 800186c:	080091c8 	.word	0x080091c8
 8001870:	080091d0 	.word	0x080091d0
 8001874:	080091d4 	.word	0x080091d4
 8001878:	080091e0 	.word	0x080091e0
 800187c:	080091ec 	.word	0x080091ec
 8001880:	0800926c 	.word	0x0800926c
                    } 
                    else {
                        current_state = STATE_STILLNESS_CHECK;
 8001884:	4ba4      	ldr	r3, [pc, #656]	@ (8001b18 <main+0xbe4>)
 8001886:	2202      	movs	r2, #2
 8001888:	701a      	strb	r2, [r3, #0]
                        state_timer = HAL_GetTick();
 800188a:	f001 f923 	bl	8002ad4 <HAL_GetTick>
 800188e:	4603      	mov	r3, r0
 8001890:	4aa2      	ldr	r2, [pc, #648]	@ (8001b1c <main+0xbe8>)
 8001892:	6013      	str	r3, [r2, #0]
                        last_printed_second = -1;
 8001894:	4ba2      	ldr	r3, [pc, #648]	@ (8001b20 <main+0xbec>)
 8001896:	f04f 32ff 	mov.w	r2, #4294967295
 800189a:	601a      	str	r2, [r3, #0]
                        sprintf(buffer,
 800189c:	f107 033c 	add.w	r3, r7, #60	@ 0x3c
 80018a0:	49a0      	ldr	r1, [pc, #640]	@ (8001b24 <main+0xbf0>)
 80018a2:	4618      	mov	r0, r3
 80018a4:	f004 feec 	bl	8006680 <siprintf>
                            " SSSSS   T    I  L       L     N N N EEEEE SSSSS SSSSS \r\n"
                            "     S   T    I  L       L     N  NN E         S     S \r\n"
                            " SSSSS   T    I  LLLLLLL LLLLL N   N EEEEE SSSSS SSSSS \r\n"
                            "=================================\r\n"
                            "Silent Fall. Waiting 5s for Recovery...\r\n");
                        HAL_UART_Transmit(&huart1, (uint8_t*)buffer, strlen(buffer), HAL_MAX_DELAY);
 80018a8:	f107 033c 	add.w	r3, r7, #60	@ 0x3c
 80018ac:	4618      	mov	r0, r3
 80018ae:	f7fe fd0f 	bl	80002d0 <strlen>
 80018b2:	4603      	mov	r3, r0
 80018b4:	b29a      	uxth	r2, r3
 80018b6:	f107 013c 	add.w	r1, r7, #60	@ 0x3c
 80018ba:	f04f 33ff 	mov.w	r3, #4294967295
 80018be:	489a      	ldr	r0, [pc, #616]	@ (8001b28 <main+0xbf4>)
 80018c0:	f003 fc24 	bl	800510c <HAL_UART_Transmit>
                    if (seen_loud_noise) {
 80018c4:	e022      	b.n	800190c <main+0x9d8>
                    }
                }
                else if (HAL_GetTick() - state_timer > 1500) {
 80018c6:	f001 f905 	bl	8002ad4 <HAL_GetTick>
 80018ca:	4602      	mov	r2, r0
 80018cc:	4b93      	ldr	r3, [pc, #588]	@ (8001b1c <main+0xbe8>)
 80018ce:	681b      	ldr	r3, [r3, #0]
 80018d0:	1ad3      	subs	r3, r2, r3
 80018d2:	f240 52dc 	movw	r2, #1500	@ 0x5dc
 80018d6:	4293      	cmp	r3, r2
 80018d8:	f240 810b 	bls.w	8001af2 <main+0xbbe>
                    current_state = STATE_NORMAL;
 80018dc:	4b8e      	ldr	r3, [pc, #568]	@ (8001b18 <main+0xbe4>)
 80018de:	2200      	movs	r2, #0
 80018e0:	701a      	strb	r2, [r3, #0]
                    sprintf(buffer, "\r\n--- TIMEOUT (1.5s) - INSUFFICIENT EVIDENCE ---\r\n");
 80018e2:	f107 033c 	add.w	r3, r7, #60	@ 0x3c
 80018e6:	4991      	ldr	r1, [pc, #580]	@ (8001b2c <main+0xbf8>)
 80018e8:	4618      	mov	r0, r3
 80018ea:	f004 fec9 	bl	8006680 <siprintf>
                    HAL_UART_Transmit(&huart1, (uint8_t*)buffer, strlen(buffer), HAL_MAX_DELAY);
 80018ee:	f107 033c 	add.w	r3, r7, #60	@ 0x3c
 80018f2:	4618      	mov	r0, r3
 80018f4:	f7fe fcec 	bl	80002d0 <strlen>
 80018f8:	4603      	mov	r3, r0
 80018fa:	b29a      	uxth	r2, r3
 80018fc:	f107 013c 	add.w	r1, r7, #60	@ 0x3c
 8001900:	f04f 33ff 	mov.w	r3, #4294967295
 8001904:	4888      	ldr	r0, [pc, #544]	@ (8001b28 <main+0xbf4>)
 8001906:	f003 fc01 	bl	800510c <HAL_UART_Transmit>
                }
                break;
 800190a:	e0f2      	b.n	8001af2 <main+0xbbe>
 800190c:	e0f1      	b.n	8001af2 <main+0xbbe>

            case STATE_STILLNESS_CHECK:
                delay_ms = 20; 
 800190e:	2314      	movs	r3, #20
 8001910:	f8c7 3320 	str.w	r3, [r7, #800]	@ 0x320

                uint32_t elapsed_time = HAL_GetTick() - state_timer;
 8001914:	f001 f8de 	bl	8002ad4 <HAL_GetTick>
 8001918:	4602      	mov	r2, r0
 800191a:	4b80      	ldr	r3, [pc, #512]	@ (8001b1c <main+0xbe8>)
 800191c:	681b      	ldr	r3, [r3, #0]
 800191e:	1ad3      	subs	r3, r2, r3
 8001920:	f8c7 32c8 	str.w	r3, [r7, #712]	@ 0x2c8
                int current_second = elapsed_time / 1000;
 8001924:	f8d7 32c8 	ldr.w	r3, [r7, #712]	@ 0x2c8
 8001928:	4a81      	ldr	r2, [pc, #516]	@ (8001b30 <main+0xbfc>)
 800192a:	fba2 2303 	umull	r2, r3, r2, r3
 800192e:	099b      	lsrs	r3, r3, #6
 8001930:	f8c7 32c4 	str.w	r3, [r7, #708]	@ 0x2c4

                if (current_second != last_printed_second && current_second < 5) {
 8001934:	4b7a      	ldr	r3, [pc, #488]	@ (8001b20 <main+0xbec>)
 8001936:	681b      	ldr	r3, [r3, #0]
 8001938:	f8d7 22c4 	ldr.w	r2, [r7, #708]	@ 0x2c4
 800193c:	429a      	cmp	r2, r3
 800193e:	d045      	beq.n	80019cc <main+0xa98>
 8001940:	f8d7 32c4 	ldr.w	r3, [r7, #708]	@ 0x2c4
 8001944:	2b04      	cmp	r3, #4
 8001946:	dc41      	bgt.n	80019cc <main+0xa98>
                    char* number_art = "";
 8001948:	4b7a      	ldr	r3, [pc, #488]	@ (8001b34 <main+0xc00>)
 800194a:	f8c7 32f0 	str.w	r3, [r7, #752]	@ 0x2f0
                    switch(current_second) {
 800194e:	f8d7 32c4 	ldr.w	r3, [r7, #708]	@ 0x2c4
 8001952:	2b04      	cmp	r3, #4
 8001954:	d820      	bhi.n	8001998 <main+0xa64>
 8001956:	a201      	add	r2, pc, #4	@ (adr r2, 800195c <main+0xa28>)
 8001958:	f852 f023 	ldr.w	pc, [r2, r3, lsl #2]
 800195c:	08001971 	.word	0x08001971
 8001960:	08001979 	.word	0x08001979
 8001964:	08001981 	.word	0x08001981
 8001968:	08001989 	.word	0x08001989
 800196c:	08001991 	.word	0x08001991
                        case 0: number_art = "\r\n 55555 \r\n 5     \r\n 5555  \r\n     5 \r\n  555  \r\n"; break;
 8001970:	4b71      	ldr	r3, [pc, #452]	@ (8001b38 <main+0xc04>)
 8001972:	f8c7 32f0 	str.w	r3, [r7, #752]	@ 0x2f0
 8001976:	e00f      	b.n	8001998 <main+0xa64>
                        case 1: number_art = "\r\n 4   4 \r\n 4   4 \r\n 44444 \r\n     4 \r\n     4 \r\n"; break;
 8001978:	4b70      	ldr	r3, [pc, #448]	@ (8001b3c <main+0xc08>)
 800197a:	f8c7 32f0 	str.w	r3, [r7, #752]	@ 0x2f0
 800197e:	e00b      	b.n	8001998 <main+0xa64>
                        case 2: number_art = "\r\n  333  \r\n 3   3 \r\n   33  \r\n 3   3 \r\n  333  \r\n"; break;
 8001980:	4b6f      	ldr	r3, [pc, #444]	@ (8001b40 <main+0xc0c>)
 8001982:	f8c7 32f0 	str.w	r3, [r7, #752]	@ 0x2f0
 8001986:	e007      	b.n	8001998 <main+0xa64>
                        case 3: number_art = "\r\n  222  \r\n 2   2 \r\n   22  \r\n  2    \r\n 22222 \r\n"; break;
 8001988:	4b6e      	ldr	r3, [pc, #440]	@ (8001b44 <main+0xc10>)
 800198a:	f8c7 32f0 	str.w	r3, [r7, #752]	@ 0x2f0
 800198e:	e003      	b.n	8001998 <main+0xa64>
                        case 4: number_art = "\r\n   1   \r\n  11   \r\n   1   \r\n   1   \r\n  111  \r\n"; break;
 8001990:	4b6d      	ldr	r3, [pc, #436]	@ (8001b48 <main+0xc14>)
 8001992:	f8c7 32f0 	str.w	r3, [r7, #752]	@ 0x2f0
 8001996:	bf00      	nop
                    }
                    sprintf(buffer, "%s", number_art);
 8001998:	f107 033c 	add.w	r3, r7, #60	@ 0x3c
 800199c:	f8d7 22f0 	ldr.w	r2, [r7, #752]	@ 0x2f0
 80019a0:	496a      	ldr	r1, [pc, #424]	@ (8001b4c <main+0xc18>)
 80019a2:	4618      	mov	r0, r3
 80019a4:	f004 fe6c 	bl	8006680 <siprintf>
                    HAL_UART_Transmit(&huart1, (uint8_t*)buffer, strlen(buffer), HAL_MAX_DELAY);
 80019a8:	f107 033c 	add.w	r3, r7, #60	@ 0x3c
 80019ac:	4618      	mov	r0, r3
 80019ae:	f7fe fc8f 	bl	80002d0 <strlen>
 80019b2:	4603      	mov	r3, r0
 80019b4:	b29a      	uxth	r2, r3
 80019b6:	f107 013c 	add.w	r1, r7, #60	@ 0x3c
 80019ba:	f04f 33ff 	mov.w	r3, #4294967295
 80019be:	485a      	ldr	r0, [pc, #360]	@ (8001b28 <main+0xbf4>)
 80019c0:	f003 fba4 	bl	800510c <HAL_UART_Transmit>
                    last_printed_second = current_second;
 80019c4:	4a56      	ldr	r2, [pc, #344]	@ (8001b20 <main+0xbec>)
 80019c6:	f8d7 32c4 	ldr.w	r3, [r7, #708]	@ 0x2c4
 80019ca:	6013      	str	r3, [r2, #0]
                }

                if (elapsed_time < 2000 && current_sound > (bg_sound_max + 600)) {
 80019cc:	f8d7 32c8 	ldr.w	r3, [r7, #712]	@ 0x2c8
 80019d0:	f5b3 6ffa 	cmp.w	r3, #2000	@ 0x7d0
 80019d4:	d21f      	bcs.n	8001a16 <main+0xae2>
 80019d6:	f8d7 32f8 	ldr.w	r3, [r7, #760]	@ 0x2f8
 80019da:	f503 7316 	add.w	r3, r3, #600	@ 0x258
 80019de:	f8d7 22e0 	ldr.w	r2, [r7, #736]	@ 0x2e0
 80019e2:	429a      	cmp	r2, r3
 80019e4:	d917      	bls.n	8001a16 <main+0xae2>
                    current_state = STATE_CONFIRMED;
 80019e6:	4b4c      	ldr	r3, [pc, #304]	@ (8001b18 <main+0xbe4>)
 80019e8:	2203      	movs	r2, #3
 80019ea:	701a      	strb	r2, [r3, #0]
                    // Sentinel + ASCII Art prints ONCE right here
                    sprintf(buffer, 
 80019ec:	f107 033c 	add.w	r3, r7, #60	@ 0x3c
 80019f0:	4957      	ldr	r1, [pc, #348]	@ (8001b50 <main+0xc1c>)
 80019f2:	4618      	mov	r0, r3
 80019f4:	f004 fe44 	bl	8006680 <siprintf>
                        "  AAA  L       AAA  RRRR  M   M \r\n"
                        " A   A L      A   A R   R MM MM \r\n"
                        " AAAAA L      AAAAA RRRR  M M M \r\n"
                        " A   A L      A   A R   R M   M \r\n"
                        " A   A LLLLLL A   A R   R M   M \r\n");
                    HAL_UART_Transmit(&huart1, (uint8_t*)buffer, strlen(buffer), HAL_MAX_DELAY);
 80019f8:	f107 033c 	add.w	r3, r7, #60	@ 0x3c
 80019fc:	4618      	mov	r0, r3
 80019fe:	f7fe fc67 	bl	80002d0 <strlen>
 8001a02:	4603      	mov	r3, r0
 8001a04:	b29a      	uxth	r2, r3
 8001a06:	f107 013c 	add.w	r1, r7, #60	@ 0x3c
 8001a0a:	f04f 33ff 	mov.w	r3, #4294967295
 8001a0e:	4846      	ldr	r0, [pc, #280]	@ (8001b28 <main+0xbf4>)
 8001a10:	f003 fb7c 	bl	800510c <HAL_UART_Transmit>
 8001a14:	e05e      	b.n	8001ad4 <main+0xba0>
                }

                else if (elapsed_time > 2000 && (fabs(total_accel - 9.8f) > 4.5f)) {
 8001a16:	f8d7 32c8 	ldr.w	r3, [r7, #712]	@ 0x2c8
 8001a1a:	f5b3 6ffa 	cmp.w	r3, #2000	@ 0x7d0
 8001a1e:	d937      	bls.n	8001a90 <main+0xb5c>
 8001a20:	edd7 7ab7 	vldr	s15, [r7, #732]	@ 0x2dc
 8001a24:	ed9f 7a4b 	vldr	s14, [pc, #300]	@ 8001b54 <main+0xc20>
 8001a28:	ee77 7ac7 	vsub.f32	s15, s15, s14
 8001a2c:	eef0 7ae7 	vabs.f32	s15, s15
 8001a30:	eeb1 7a02 	vmov.f32	s14, #18	@ 0x40900000  4.5
 8001a34:	eef4 7ac7 	vcmpe.f32	s15, s14
 8001a38:	eef1 fa10 	vmrs	APSR_nzcv, fpscr
 8001a3c:	dd28      	ble.n	8001a90 <main+0xb5c>
                    current_state = STATE_NORMAL;
 8001a3e:	4b36      	ldr	r3, [pc, #216]	@ (8001b18 <main+0xbe4>)
 8001a40:	2200      	movs	r2, #0
 8001a42:	701a      	strb	r2, [r3, #0]
                    last_printed_second = -1; 
 8001a44:	4b36      	ldr	r3, [pc, #216]	@ (8001b20 <main+0xbec>)
 8001a46:	f04f 32ff 	mov.w	r2, #4294967295
 8001a4a:	601a      	str	r2, [r3, #0]
                        " NN  N O   O R   R MM MM A   A L     \r\n"
                        " N N N O   O RRRR  M M M AAAAA L     \r\n"
                        " N  NN O   O R   R M   M A   A L     \r\n"
                        " N   N  OOO  R   R M   M A   A LLLLL \r\n"
                        "=================================\r\n"
                        "RECOVERY DETECTED (Push/Stand: %.2f)\r\n", fabs(total_accel - 9.8f));
 8001a4c:	edd7 7ab7 	vldr	s15, [r7, #732]	@ 0x2dc
 8001a50:	ed9f 7a40 	vldr	s14, [pc, #256]	@ 8001b54 <main+0xc20>
 8001a54:	ee77 7ac7 	vsub.f32	s15, s15, s14
 8001a58:	eef0 7ae7 	vabs.f32	s15, s15
                    sprintf(buffer, 
 8001a5c:	ee17 0a90 	vmov	r0, s15
 8001a60:	f7fe fda2 	bl	80005a8 <__aeabi_f2d>
 8001a64:	4602      	mov	r2, r0
 8001a66:	460b      	mov	r3, r1
 8001a68:	f107 003c 	add.w	r0, r7, #60	@ 0x3c
 8001a6c:	493a      	ldr	r1, [pc, #232]	@ (8001b58 <main+0xc24>)
 8001a6e:	f004 fe07 	bl	8006680 <siprintf>
                    HAL_UART_Transmit(&huart1, (uint8_t*)buffer, strlen(buffer), HAL_MAX_DELAY);
 8001a72:	f107 033c 	add.w	r3, r7, #60	@ 0x3c
 8001a76:	4618      	mov	r0, r3
 8001a78:	f7fe fc2a 	bl	80002d0 <strlen>
 8001a7c:	4603      	mov	r3, r0
 8001a7e:	b29a      	uxth	r2, r3
 8001a80:	f107 013c 	add.w	r1, r7, #60	@ 0x3c
 8001a84:	f04f 33ff 	mov.w	r3, #4294967295
 8001a88:	4827      	ldr	r0, [pc, #156]	@ (8001b28 <main+0xbf4>)
 8001a8a:	f003 fb3f 	bl	800510c <HAL_UART_Transmit>
 8001a8e:	e021      	b.n	8001ad4 <main+0xba0>
                }
                else if (elapsed_time > 5000) {
 8001a90:	f8d7 32c8 	ldr.w	r3, [r7, #712]	@ 0x2c8
 8001a94:	f241 3288 	movw	r2, #5000	@ 0x1388
 8001a98:	4293      	cmp	r3, r2
 8001a9a:	d92c      	bls.n	8001af6 <main+0xbc2>
                    current_state = STATE_CONFIRMED;
 8001a9c:	4b1e      	ldr	r3, [pc, #120]	@ (8001b18 <main+0xbe4>)
 8001a9e:	2203      	movs	r2, #3
 8001aa0:	701a      	strb	r2, [r3, #0]
                    last_printed_second = -1; 
 8001aa2:	4b1f      	ldr	r3, [pc, #124]	@ (8001b20 <main+0xbec>)
 8001aa4:	f04f 32ff 	mov.w	r2, #4294967295
 8001aa8:	601a      	str	r2, [r3, #0]
                    // Sentinel + ASCII Art prints ONCE right here
                    sprintf(buffer, 
 8001aaa:	f107 033c 	add.w	r3, r7, #60	@ 0x3c
 8001aae:	492b      	ldr	r1, [pc, #172]	@ (8001b5c <main+0xc28>)
 8001ab0:	4618      	mov	r0, r3
 8001ab2:	f004 fde5 	bl	8006680 <siprintf>
                        "  AAA  L       AAA  RRRR  M   M \r\n"
                        " A   A L      A   A R   R MM MM \r\n"
                        " AAAAA L      AAAAA RRRR  M M M \r\n"
                        " A   A L      A   A R   R M   M \r\n"
                        " A   A LLLLLL A   A R   R M   M \r\n");
                    HAL_UART_Transmit(&huart1, (uint8_t*)buffer, strlen(buffer), HAL_MAX_DELAY);
 8001ab6:	f107 033c 	add.w	r3, r7, #60	@ 0x3c
 8001aba:	4618      	mov	r0, r3
 8001abc:	f7fe fc08 	bl	80002d0 <strlen>
 8001ac0:	4603      	mov	r3, r0
 8001ac2:	b29a      	uxth	r2, r3
 8001ac4:	f107 013c 	add.w	r1, r7, #60	@ 0x3c
 8001ac8:	f04f 33ff 	mov.w	r3, #4294967295
 8001acc:	4816      	ldr	r0, [pc, #88]	@ (8001b28 <main+0xbf4>)
 8001ace:	f003 fb1d 	bl	800510c <HAL_UART_Transmit>
                }
                break;
 8001ad2:	e010      	b.n	8001af6 <main+0xbc2>
 8001ad4:	e00f      	b.n	8001af6 <main+0xbc2>

            case STATE_CONFIRMED:
                delay_ms = 100; 
 8001ad6:	2364      	movs	r3, #100	@ 0x64
 8001ad8:	f8c7 3320 	str.w	r3, [r7, #800]	@ 0x320
                BSP_LED_Toggle(LED2); 
 8001adc:	2000      	movs	r0, #0
 8001ade:	f000 fb4f 	bl	8002180 <BSP_LED_Toggle>
                HAL_GPIO_TogglePin(GPIOA, GPIO_PIN_3); 
 8001ae2:	2108      	movs	r1, #8
 8001ae4:	f04f 4090 	mov.w	r0, #1207959552	@ 0x48000000
 8001ae8:	f002 fba4 	bl	8004234 <HAL_GPIO_TogglePin>
                // TOTAL UART SILENCE. No printing allowed here.
                break;
 8001aec:	e004      	b.n	8001af8 <main+0xbc4>
                break;
 8001aee:	bf00      	nop
 8001af0:	e002      	b.n	8001af8 <main+0xbc4>
                break;
 8001af2:	bf00      	nop
 8001af4:	e000      	b.n	8001af8 <main+0xbc4>
                break;
 8001af6:	bf00      	nop
        }

        if (current_state != STATE_CONFIRMED) {
 8001af8:	4b07      	ldr	r3, [pc, #28]	@ (8001b18 <main+0xbe4>)
 8001afa:	781b      	ldrb	r3, [r3, #0]
 8001afc:	2b03      	cmp	r3, #3
 8001afe:	f43f aa89 	beq.w	8001014 <main+0xe0>
            HAL_GPIO_WritePin(GPIOA, GPIO_PIN_3, GPIO_PIN_RESET); 
 8001b02:	2200      	movs	r2, #0
 8001b04:	2108      	movs	r1, #8
 8001b06:	f04f 4090 	mov.w	r0, #1207959552	@ 0x48000000
 8001b0a:	f002 fb7b 	bl	8004204 <HAL_GPIO_WritePin>
 8001b0e:	f7ff ba81 	b.w	8001014 <main+0xe0>
        if (HAL_GetTick() - last_sensor_read_time < (uint32_t)delay_ms) continue;
 8001b12:	bf00      	nop
    {
 8001b14:	f7ff ba7e 	b.w	8001014 <main+0xe0>
 8001b18:	20000360 	.word	0x20000360
 8001b1c:	20000364 	.word	0x20000364
 8001b20:	20000004 	.word	0x20000004
 8001b24:	08009360 	.word	0x08009360
 8001b28:	20000264 	.word	0x20000264
 8001b2c:	080094f0 	.word	0x080094f0
 8001b30:	10624dd3 	.word	0x10624dd3
 8001b34:	080091d0 	.word	0x080091d0
 8001b38:	08009524 	.word	0x08009524
 8001b3c:	08009554 	.word	0x08009554
 8001b40:	08009584 	.word	0x08009584
 8001b44:	080095b4 	.word	0x080095b4
 8001b48:	080095e4 	.word	0x080095e4
 8001b4c:	08009614 	.word	0x08009614
 8001b50:	08009618 	.word	0x08009618
 8001b54:	411ccccd 	.word	0x411ccccd
 8001b58:	08009714 	.word	0x08009714
 8001b5c:	08009848 	.word	0x08009848

08001b60 <ADC1_Init>:
    }
}

// ======================= ADC INITIALIZATION =========================
static void ADC1_Init(void)
{
 8001b60:	b580      	push	{r7, lr}
 8001b62:	b08e      	sub	sp, #56	@ 0x38
 8001b64:	af00      	add	r7, sp, #0
    ADC_ChannelConfTypeDef sConfig = {0};
 8001b66:	f107 0320 	add.w	r3, r7, #32
 8001b6a:	2200      	movs	r2, #0
 8001b6c:	601a      	str	r2, [r3, #0]
 8001b6e:	605a      	str	r2, [r3, #4]
 8001b70:	609a      	str	r2, [r3, #8]
 8001b72:	60da      	str	r2, [r3, #12]
 8001b74:	611a      	str	r2, [r3, #16]
 8001b76:	615a      	str	r2, [r3, #20]

    __HAL_RCC_ADC_CLK_ENABLE();
 8001b78:	4b3f      	ldr	r3, [pc, #252]	@ (8001c78 <ADC1_Init+0x118>)
 8001b7a:	6cdb      	ldr	r3, [r3, #76]	@ 0x4c
 8001b7c:	4a3e      	ldr	r2, [pc, #248]	@ (8001c78 <ADC1_Init+0x118>)
 8001b7e:	f443 5300 	orr.w	r3, r3, #8192	@ 0x2000
 8001b82:	64d3      	str	r3, [r2, #76]	@ 0x4c
 8001b84:	4b3c      	ldr	r3, [pc, #240]	@ (8001c78 <ADC1_Init+0x118>)
 8001b86:	6cdb      	ldr	r3, [r3, #76]	@ 0x4c
 8001b88:	f403 5300 	and.w	r3, r3, #8192	@ 0x2000
 8001b8c:	60bb      	str	r3, [r7, #8]
 8001b8e:	68bb      	ldr	r3, [r7, #8]
    __HAL_RCC_GPIOC_CLK_ENABLE();
 8001b90:	4b39      	ldr	r3, [pc, #228]	@ (8001c78 <ADC1_Init+0x118>)
 8001b92:	6cdb      	ldr	r3, [r3, #76]	@ 0x4c
 8001b94:	4a38      	ldr	r2, [pc, #224]	@ (8001c78 <ADC1_Init+0x118>)
 8001b96:	f043 0304 	orr.w	r3, r3, #4
 8001b9a:	64d3      	str	r3, [r2, #76]	@ 0x4c
 8001b9c:	4b36      	ldr	r3, [pc, #216]	@ (8001c78 <ADC1_Init+0x118>)
 8001b9e:	6cdb      	ldr	r3, [r3, #76]	@ 0x4c
 8001ba0:	f003 0304 	and.w	r3, r3, #4
 8001ba4:	607b      	str	r3, [r7, #4]
 8001ba6:	687b      	ldr	r3, [r7, #4]

    GPIO_InitTypeDef GPIO_InitStruct = {0};
 8001ba8:	f107 030c 	add.w	r3, r7, #12
 8001bac:	2200      	movs	r2, #0
 8001bae:	601a      	str	r2, [r3, #0]
 8001bb0:	605a      	str	r2, [r3, #4]
 8001bb2:	609a      	str	r2, [r3, #8]
 8001bb4:	60da      	str	r2, [r3, #12]
 8001bb6:	611a      	str	r2, [r3, #16]
    GPIO_InitStruct.Pin = GPIO_PIN_4;
 8001bb8:	2310      	movs	r3, #16
 8001bba:	60fb      	str	r3, [r7, #12]
    GPIO_InitStruct.Mode = GPIO_MODE_ANALOG_ADC_CONTROL;
 8001bbc:	230b      	movs	r3, #11
 8001bbe:	613b      	str	r3, [r7, #16]
    GPIO_InitStruct.Pull = GPIO_NOPULL;
 8001bc0:	2300      	movs	r3, #0
 8001bc2:	617b      	str	r3, [r7, #20]
    HAL_GPIO_Init(GPIOC, &GPIO_InitStruct);
 8001bc4:	f107 030c 	add.w	r3, r7, #12
 8001bc8:	4619      	mov	r1, r3
 8001bca:	482c      	ldr	r0, [pc, #176]	@ (8001c7c <ADC1_Init+0x11c>)
 8001bcc:	f002 f970 	bl	8003eb0 <HAL_GPIO_Init>

    hadc1.Instance = ADC1;
 8001bd0:	4b2b      	ldr	r3, [pc, #172]	@ (8001c80 <ADC1_Init+0x120>)
 8001bd2:	4a2c      	ldr	r2, [pc, #176]	@ (8001c84 <ADC1_Init+0x124>)
 8001bd4:	601a      	str	r2, [r3, #0]
    hadc1.Init.ClockPrescaler = ADC_CLOCK_SYNC_PCLK_DIV4;
 8001bd6:	4b2a      	ldr	r3, [pc, #168]	@ (8001c80 <ADC1_Init+0x120>)
 8001bd8:	f44f 3240 	mov.w	r2, #196608	@ 0x30000
 8001bdc:	605a      	str	r2, [r3, #4]
    hadc1.Init.Resolution = ADC_RESOLUTION_12B;
 8001bde:	4b28      	ldr	r3, [pc, #160]	@ (8001c80 <ADC1_Init+0x120>)
 8001be0:	2200      	movs	r2, #0
 8001be2:	609a      	str	r2, [r3, #8]
    hadc1.Init.DataAlign = ADC_DATAALIGN_RIGHT;
 8001be4:	4b26      	ldr	r3, [pc, #152]	@ (8001c80 <ADC1_Init+0x120>)
 8001be6:	2200      	movs	r2, #0
 8001be8:	60da      	str	r2, [r3, #12]
    hadc1.Init.ScanConvMode = ADC_SCAN_DISABLE;
 8001bea:	4b25      	ldr	r3, [pc, #148]	@ (8001c80 <ADC1_Init+0x120>)
 8001bec:	2200      	movs	r2, #0
 8001bee:	611a      	str	r2, [r3, #16]
    hadc1.Init.EOCSelection = ADC_EOC_SINGLE_CONV;
 8001bf0:	4b23      	ldr	r3, [pc, #140]	@ (8001c80 <ADC1_Init+0x120>)
 8001bf2:	2204      	movs	r2, #4
 8001bf4:	615a      	str	r2, [r3, #20]
    hadc1.Init.LowPowerAutoWait = DISABLE;
 8001bf6:	4b22      	ldr	r3, [pc, #136]	@ (8001c80 <ADC1_Init+0x120>)
 8001bf8:	2200      	movs	r2, #0
 8001bfa:	761a      	strb	r2, [r3, #24]
    hadc1.Init.ContinuousConvMode = DISABLE;
 8001bfc:	4b20      	ldr	r3, [pc, #128]	@ (8001c80 <ADC1_Init+0x120>)
 8001bfe:	2200      	movs	r2, #0
 8001c00:	765a      	strb	r2, [r3, #25]
    hadc1.Init.NbrOfConversion = 1;
 8001c02:	4b1f      	ldr	r3, [pc, #124]	@ (8001c80 <ADC1_Init+0x120>)
 8001c04:	2201      	movs	r2, #1
 8001c06:	61da      	str	r2, [r3, #28]
    hadc1.Init.DiscontinuousConvMode = DISABLE;
 8001c08:	4b1d      	ldr	r3, [pc, #116]	@ (8001c80 <ADC1_Init+0x120>)
 8001c0a:	2200      	movs	r2, #0
 8001c0c:	f883 2020 	strb.w	r2, [r3, #32]
    hadc1.Init.ExternalTrigConv = ADC_SOFTWARE_START;
 8001c10:	4b1b      	ldr	r3, [pc, #108]	@ (8001c80 <ADC1_Init+0x120>)
 8001c12:	2200      	movs	r2, #0
 8001c14:	629a      	str	r2, [r3, #40]	@ 0x28
    hadc1.Init.ExternalTrigConvEdge = ADC_EXTERNALTRIGCONVEDGE_NONE;
 8001c16:	4b1a      	ldr	r3, [pc, #104]	@ (8001c80 <ADC1_Init+0x120>)
 8001c18:	2200      	movs	r2, #0
 8001c1a:	62da      	str	r2, [r3, #44]	@ 0x2c
    hadc1.Init.DMAContinuousRequests = DISABLE;
 8001c1c:	4b18      	ldr	r3, [pc, #96]	@ (8001c80 <ADC1_Init+0x120>)
 8001c1e:	2200      	movs	r2, #0
 8001c20:	f883 2030 	strb.w	r2, [r3, #48]	@ 0x30
    hadc1.Init.Overrun = ADC_OVR_DATA_PRESERVED;
 8001c24:	4b16      	ldr	r3, [pc, #88]	@ (8001c80 <ADC1_Init+0x120>)
 8001c26:	2200      	movs	r2, #0
 8001c28:	635a      	str	r2, [r3, #52]	@ 0x34
    hadc1.Init.OversamplingMode = DISABLE;
 8001c2a:	4b15      	ldr	r3, [pc, #84]	@ (8001c80 <ADC1_Init+0x120>)
 8001c2c:	2200      	movs	r2, #0
 8001c2e:	f883 2038 	strb.w	r2, [r3, #56]	@ 0x38
    if (HAL_ADC_Init(&hadc1) != HAL_OK)
 8001c32:	4813      	ldr	r0, [pc, #76]	@ (8001c80 <ADC1_Init+0x120>)
 8001c34:	f001 f958 	bl	8002ee8 <HAL_ADC_Init>
 8001c38:	4603      	mov	r3, r0
 8001c3a:	2b00      	cmp	r3, #0
 8001c3c:	d001      	beq.n	8001c42 <ADC1_Init+0xe2>
    {
        while(1); 
 8001c3e:	bf00      	nop
 8001c40:	e7fd      	b.n	8001c3e <ADC1_Init+0xde>
    }

    sConfig.Channel = ADC_CHANNEL_13;
 8001c42:	4b11      	ldr	r3, [pc, #68]	@ (8001c88 <ADC1_Init+0x128>)
 8001c44:	623b      	str	r3, [r7, #32]
    sConfig.Rank = ADC_REGULAR_RANK_1;
 8001c46:	2306      	movs	r3, #6
 8001c48:	627b      	str	r3, [r7, #36]	@ 0x24
    sConfig.SamplingTime = ADC_SAMPLETIME_92CYCLES_5;
 8001c4a:	2305      	movs	r3, #5
 8001c4c:	62bb      	str	r3, [r7, #40]	@ 0x28
    sConfig.SingleDiff = ADC_SINGLE_ENDED;
 8001c4e:	237f      	movs	r3, #127	@ 0x7f
 8001c50:	62fb      	str	r3, [r7, #44]	@ 0x2c
    sConfig.OffsetNumber = ADC_OFFSET_NONE;
 8001c52:	2304      	movs	r3, #4
 8001c54:	633b      	str	r3, [r7, #48]	@ 0x30
    sConfig.Offset = 0;
 8001c56:	2300      	movs	r3, #0
 8001c58:	637b      	str	r3, [r7, #52]	@ 0x34
    if (HAL_ADC_ConfigChannel(&hadc1, &sConfig) != HAL_OK)
 8001c5a:	f107 0320 	add.w	r3, r7, #32
 8001c5e:	4619      	mov	r1, r3
 8001c60:	4807      	ldr	r0, [pc, #28]	@ (8001c80 <ADC1_Init+0x120>)
 8001c62:	f001 fb91 	bl	8003388 <HAL_ADC_ConfigChannel>
 8001c66:	4603      	mov	r3, r0
 8001c68:	2b00      	cmp	r3, #0
 8001c6a:	d001      	beq.n	8001c70 <ADC1_Init+0x110>
    {
        while(1); 
 8001c6c:	bf00      	nop
 8001c6e:	e7fd      	b.n	8001c6c <ADC1_Init+0x10c>
    }
}
 8001c70:	bf00      	nop
 8001c72:	3738      	adds	r7, #56	@ 0x38
 8001c74:	46bd      	mov	sp, r7
 8001c76:	bd80      	pop	{r7, pc}
 8001c78:	40021000 	.word	0x40021000
 8001c7c:	48000800 	.word	0x48000800
 8001c80:	200002f8 	.word	0x200002f8
 8001c84:	50040000 	.word	0x50040000
 8001c88:	36902000 	.word	0x36902000

08001c8c <Read_Sound_Sensor>:

uint32_t Read_Sound_Sensor(void)
{
 8001c8c:	b580      	push	{r7, lr}
 8001c8e:	b084      	sub	sp, #16
 8001c90:	af00      	add	r7, sp, #0
    uint32_t start_time = HAL_GetTick();
 8001c92:	f000 ff1f 	bl	8002ad4 <HAL_GetTick>
 8001c96:	6078      	str	r0, [r7, #4]
    uint32_t max_val = 0;
 8001c98:	2300      	movs	r3, #0
 8001c9a:	60fb      	str	r3, [r7, #12]
    uint32_t min_val = 4095;
 8001c9c:	f640 73ff 	movw	r3, #4095	@ 0xfff
 8001ca0:	60bb      	str	r3, [r7, #8]

    while (HAL_GetTick() - start_time < 10) {
 8001ca2:	e019      	b.n	8001cd8 <Read_Sound_Sensor+0x4c>
        HAL_ADC_Start(&hadc1);
 8001ca4:	4813      	ldr	r0, [pc, #76]	@ (8001cf4 <Read_Sound_Sensor+0x68>)
 8001ca6:	f001 fa6f 	bl	8003188 <HAL_ADC_Start>
        if (HAL_ADC_PollForConversion(&hadc1, 1) == HAL_OK) {
 8001caa:	2101      	movs	r1, #1
 8001cac:	4811      	ldr	r0, [pc, #68]	@ (8001cf4 <Read_Sound_Sensor+0x68>)
 8001cae:	f001 face 	bl	800324e <HAL_ADC_PollForConversion>
 8001cb2:	4603      	mov	r3, r0
 8001cb4:	2b00      	cmp	r3, #0
 8001cb6:	d10f      	bne.n	8001cd8 <Read_Sound_Sensor+0x4c>
            uint32_t val = HAL_ADC_GetValue(&hadc1);
 8001cb8:	480e      	ldr	r0, [pc, #56]	@ (8001cf4 <Read_Sound_Sensor+0x68>)
 8001cba:	f001 fb57 	bl	800336c <HAL_ADC_GetValue>
 8001cbe:	6038      	str	r0, [r7, #0]
            if (val > max_val) max_val = val;
 8001cc0:	683a      	ldr	r2, [r7, #0]
 8001cc2:	68fb      	ldr	r3, [r7, #12]
 8001cc4:	429a      	cmp	r2, r3
 8001cc6:	d901      	bls.n	8001ccc <Read_Sound_Sensor+0x40>
 8001cc8:	683b      	ldr	r3, [r7, #0]
 8001cca:	60fb      	str	r3, [r7, #12]
            if (val < min_val) min_val = val;
 8001ccc:	683a      	ldr	r2, [r7, #0]
 8001cce:	68bb      	ldr	r3, [r7, #8]
 8001cd0:	429a      	cmp	r2, r3
 8001cd2:	d201      	bcs.n	8001cd8 <Read_Sound_Sensor+0x4c>
 8001cd4:	683b      	ldr	r3, [r7, #0]
 8001cd6:	60bb      	str	r3, [r7, #8]
    while (HAL_GetTick() - start_time < 10) {
 8001cd8:	f000 fefc 	bl	8002ad4 <HAL_GetTick>
 8001cdc:	4602      	mov	r2, r0
 8001cde:	687b      	ldr	r3, [r7, #4]
 8001ce0:	1ad3      	subs	r3, r2, r3
 8001ce2:	2b09      	cmp	r3, #9
 8001ce4:	d9de      	bls.n	8001ca4 <Read_Sound_Sensor+0x18>
        }
    }
    return (max_val - min_val);
 8001ce6:	68fa      	ldr	r2, [r7, #12]
 8001ce8:	68bb      	ldr	r3, [r7, #8]
 8001cea:	1ad3      	subs	r3, r2, r3
}
 8001cec:	4618      	mov	r0, r3
 8001cee:	3710      	adds	r7, #16
 8001cf0:	46bd      	mov	sp, r7
 8001cf2:	bd80      	pop	{r7, pc}
 8001cf4:	200002f8 	.word	0x200002f8

08001cf8 <UART1_Init>:
    result=result/4;
    return result;
}

static void UART1_Init(void)
{
 8001cf8:	b580      	push	{r7, lr}
 8001cfa:	b088      	sub	sp, #32
 8001cfc:	af00      	add	r7, sp, #0
        __HAL_RCC_GPIOB_CLK_ENABLE();
 8001cfe:	4b2d      	ldr	r3, [pc, #180]	@ (8001db4 <UART1_Init+0xbc>)
 8001d00:	6cdb      	ldr	r3, [r3, #76]	@ 0x4c
 8001d02:	4a2c      	ldr	r2, [pc, #176]	@ (8001db4 <UART1_Init+0xbc>)
 8001d04:	f043 0302 	orr.w	r3, r3, #2
 8001d08:	64d3      	str	r3, [r2, #76]	@ 0x4c
 8001d0a:	4b2a      	ldr	r3, [pc, #168]	@ (8001db4 <UART1_Init+0xbc>)
 8001d0c:	6cdb      	ldr	r3, [r3, #76]	@ 0x4c
 8001d0e:	f003 0302 	and.w	r3, r3, #2
 8001d12:	60bb      	str	r3, [r7, #8]
 8001d14:	68bb      	ldr	r3, [r7, #8]
        __HAL_RCC_USART1_CLK_ENABLE();
 8001d16:	4b27      	ldr	r3, [pc, #156]	@ (8001db4 <UART1_Init+0xbc>)
 8001d18:	6e1b      	ldr	r3, [r3, #96]	@ 0x60
 8001d1a:	4a26      	ldr	r2, [pc, #152]	@ (8001db4 <UART1_Init+0xbc>)
 8001d1c:	f443 4380 	orr.w	r3, r3, #16384	@ 0x4000
 8001d20:	6613      	str	r3, [r2, #96]	@ 0x60
 8001d22:	4b24      	ldr	r3, [pc, #144]	@ (8001db4 <UART1_Init+0xbc>)
 8001d24:	6e1b      	ldr	r3, [r3, #96]	@ 0x60
 8001d26:	f403 4380 	and.w	r3, r3, #16384	@ 0x4000
 8001d2a:	607b      	str	r3, [r7, #4]
 8001d2c:	687b      	ldr	r3, [r7, #4]

        GPIO_InitTypeDef GPIO_InitStruct = {0};
 8001d2e:	f107 030c 	add.w	r3, r7, #12
 8001d32:	2200      	movs	r2, #0
 8001d34:	601a      	str	r2, [r3, #0]
 8001d36:	605a      	str	r2, [r3, #4]
 8001d38:	609a      	str	r2, [r3, #8]
 8001d3a:	60da      	str	r2, [r3, #12]
 8001d3c:	611a      	str	r2, [r3, #16]
        GPIO_InitStruct.Alternate = GPIO_AF7_USART1;
 8001d3e:	2307      	movs	r3, #7
 8001d40:	61fb      	str	r3, [r7, #28]
        GPIO_InitStruct.Pin = GPIO_PIN_7|GPIO_PIN_6;
 8001d42:	23c0      	movs	r3, #192	@ 0xc0
 8001d44:	60fb      	str	r3, [r7, #12]
        GPIO_InitStruct.Mode = GPIO_MODE_AF_PP;
 8001d46:	2302      	movs	r3, #2
 8001d48:	613b      	str	r3, [r7, #16]
        GPIO_InitStruct.Pull = GPIO_NOPULL;
 8001d4a:	2300      	movs	r3, #0
 8001d4c:	617b      	str	r3, [r7, #20]
        GPIO_InitStruct.Speed = GPIO_SPEED_FREQ_VERY_HIGH;
 8001d4e:	2303      	movs	r3, #3
 8001d50:	61bb      	str	r3, [r7, #24]
        HAL_GPIO_Init(GPIOB, &GPIO_InitStruct);
 8001d52:	f107 030c 	add.w	r3, r7, #12
 8001d56:	4619      	mov	r1, r3
 8001d58:	4817      	ldr	r0, [pc, #92]	@ (8001db8 <UART1_Init+0xc0>)
 8001d5a:	f002 f8a9 	bl	8003eb0 <HAL_GPIO_Init>

        huart1.Instance = USART1;
 8001d5e:	4b17      	ldr	r3, [pc, #92]	@ (8001dbc <UART1_Init+0xc4>)
 8001d60:	4a17      	ldr	r2, [pc, #92]	@ (8001dc0 <UART1_Init+0xc8>)
 8001d62:	601a      	str	r2, [r3, #0]
        huart1.Init.BaudRate = 115200;
 8001d64:	4b15      	ldr	r3, [pc, #84]	@ (8001dbc <UART1_Init+0xc4>)
 8001d66:	f44f 32e1 	mov.w	r2, #115200	@ 0x1c200
 8001d6a:	605a      	str	r2, [r3, #4]
        huart1.Init.WordLength = UART_WORDLENGTH_8B;
 8001d6c:	4b13      	ldr	r3, [pc, #76]	@ (8001dbc <UART1_Init+0xc4>)
 8001d6e:	2200      	movs	r2, #0
 8001d70:	609a      	str	r2, [r3, #8]
        huart1.Init.StopBits = UART_STOPBITS_1;
 8001d72:	4b12      	ldr	r3, [pc, #72]	@ (8001dbc <UART1_Init+0xc4>)
 8001d74:	2200      	movs	r2, #0
 8001d76:	60da      	str	r2, [r3, #12]
        huart1.Init.Parity = UART_PARITY_NONE;
 8001d78:	4b10      	ldr	r3, [pc, #64]	@ (8001dbc <UART1_Init+0xc4>)
 8001d7a:	2200      	movs	r2, #0
 8001d7c:	611a      	str	r2, [r3, #16]
        huart1.Init.Mode = UART_MODE_TX_RX;
 8001d7e:	4b0f      	ldr	r3, [pc, #60]	@ (8001dbc <UART1_Init+0xc4>)
 8001d80:	220c      	movs	r2, #12
 8001d82:	615a      	str	r2, [r3, #20]
        huart1.Init.HwFlowCtl = UART_HWCONTROL_NONE;
 8001d84:	4b0d      	ldr	r3, [pc, #52]	@ (8001dbc <UART1_Init+0xc4>)
 8001d86:	2200      	movs	r2, #0
 8001d88:	619a      	str	r2, [r3, #24]
        huart1.Init.OverSampling = UART_OVERSAMPLING_16;
 8001d8a:	4b0c      	ldr	r3, [pc, #48]	@ (8001dbc <UART1_Init+0xc4>)
 8001d8c:	2200      	movs	r2, #0
 8001d8e:	61da      	str	r2, [r3, #28]
        huart1.Init.OneBitSampling = UART_ONE_BIT_SAMPLE_DISABLE;
 8001d90:	4b0a      	ldr	r3, [pc, #40]	@ (8001dbc <UART1_Init+0xc4>)
 8001d92:	2200      	movs	r2, #0
 8001d94:	621a      	str	r2, [r3, #32]
        huart1.AdvancedInit.AdvFeatureInit = UART_ADVFEATURE_NO_INIT;
 8001d96:	4b09      	ldr	r3, [pc, #36]	@ (8001dbc <UART1_Init+0xc4>)
 8001d98:	2200      	movs	r2, #0
 8001d9a:	629a      	str	r2, [r3, #40]	@ 0x28
        if (HAL_UART_Init(&huart1) != HAL_OK)
 8001d9c:	4807      	ldr	r0, [pc, #28]	@ (8001dbc <UART1_Init+0xc4>)
 8001d9e:	f003 f95b 	bl	8005058 <HAL_UART_Init>
 8001da2:	4603      	mov	r3, r0
 8001da4:	2b00      	cmp	r3, #0
 8001da6:	d001      	beq.n	8001dac <UART1_Init+0xb4>
        {
          while(1);
 8001da8:	bf00      	nop
 8001daa:	e7fd      	b.n	8001da8 <UART1_Init+0xb0>
        }
}
 8001dac:	bf00      	nop
 8001dae:	3720      	adds	r7, #32
 8001db0:	46bd      	mov	sp, r7
 8001db2:	bd80      	pop	{r7, pc}
 8001db4:	40021000 	.word	0x40021000
 8001db8:	48000400 	.word	0x48000400
 8001dbc:	20000264 	.word	0x20000264
 8001dc0:	40013800 	.word	0x40013800

08001dc4 <Buzzer_GPIO_Init>:

static void Buzzer_GPIO_Init(void)
{
 8001dc4:	b580      	push	{r7, lr}
 8001dc6:	b086      	sub	sp, #24
 8001dc8:	af00      	add	r7, sp, #0
    __HAL_RCC_GPIOA_CLK_ENABLE();
 8001dca:	4b12      	ldr	r3, [pc, #72]	@ (8001e14 <Buzzer_GPIO_Init+0x50>)
 8001dcc:	6cdb      	ldr	r3, [r3, #76]	@ 0x4c
 8001dce:	4a11      	ldr	r2, [pc, #68]	@ (8001e14 <Buzzer_GPIO_Init+0x50>)
 8001dd0:	f043 0301 	orr.w	r3, r3, #1
 8001dd4:	64d3      	str	r3, [r2, #76]	@ 0x4c
 8001dd6:	4b0f      	ldr	r3, [pc, #60]	@ (8001e14 <Buzzer_GPIO_Init+0x50>)
 8001dd8:	6cdb      	ldr	r3, [r3, #76]	@ 0x4c
 8001dda:	f003 0301 	and.w	r3, r3, #1
 8001dde:	603b      	str	r3, [r7, #0]
 8001de0:	683b      	ldr	r3, [r7, #0]
    GPIO_InitTypeDef GPIO_InitStruct = {0};
 8001de2:	1d3b      	adds	r3, r7, #4
 8001de4:	2200      	movs	r2, #0
 8001de6:	601a      	str	r2, [r3, #0]
 8001de8:	605a      	str	r2, [r3, #4]
 8001dea:	609a      	str	r2, [r3, #8]
 8001dec:	60da      	str	r2, [r3, #12]
 8001dee:	611a      	str	r2, [r3, #16]
    GPIO_InitStruct.Pin = GPIO_PIN_3;
 8001df0:	2308      	movs	r3, #8
 8001df2:	607b      	str	r3, [r7, #4]
    GPIO_InitStruct.Mode = GPIO_MODE_OUTPUT_PP; 
 8001df4:	2301      	movs	r3, #1
 8001df6:	60bb      	str	r3, [r7, #8]
    GPIO_InitStruct.Pull = GPIO_NOPULL;
 8001df8:	2300      	movs	r3, #0
 8001dfa:	60fb      	str	r3, [r7, #12]
    GPIO_InitStruct.Speed = GPIO_SPEED_FREQ_LOW;
 8001dfc:	2300      	movs	r3, #0
 8001dfe:	613b      	str	r3, [r7, #16]
    HAL_GPIO_Init(GPIOA, &GPIO_InitStruct);
 8001e00:	1d3b      	adds	r3, r7, #4
 8001e02:	4619      	mov	r1, r3
 8001e04:	f04f 4090 	mov.w	r0, #1207959552	@ 0x48000000
 8001e08:	f002 f852 	bl	8003eb0 <HAL_GPIO_Init>
}
 8001e0c:	bf00      	nop
 8001e0e:	3718      	adds	r7, #24
 8001e10:	46bd      	mov	sp, r7
 8001e12:	bd80      	pop	{r7, pc}
 8001e14:	40021000 	.word	0x40021000

08001e18 <Button_GPIO_Init>:

static void Button_GPIO_Init(void)
{
 8001e18:	b580      	push	{r7, lr}
 8001e1a:	b086      	sub	sp, #24
 8001e1c:	af00      	add	r7, sp, #0
    __HAL_RCC_GPIOC_CLK_ENABLE();
 8001e1e:	4b11      	ldr	r3, [pc, #68]	@ (8001e64 <Button_GPIO_Init+0x4c>)
 8001e20:	6cdb      	ldr	r3, [r3, #76]	@ 0x4c
 8001e22:	4a10      	ldr	r2, [pc, #64]	@ (8001e64 <Button_GPIO_Init+0x4c>)
 8001e24:	f043 0304 	orr.w	r3, r3, #4
 8001e28:	64d3      	str	r3, [r2, #76]	@ 0x4c
 8001e2a:	4b0e      	ldr	r3, [pc, #56]	@ (8001e64 <Button_GPIO_Init+0x4c>)
 8001e2c:	6cdb      	ldr	r3, [r3, #76]	@ 0x4c
 8001e2e:	f003 0304 	and.w	r3, r3, #4
 8001e32:	603b      	str	r3, [r7, #0]
 8001e34:	683b      	ldr	r3, [r7, #0]
    GPIO_InitTypeDef GPIO_InitStruct = {0};
 8001e36:	1d3b      	adds	r3, r7, #4
 8001e38:	2200      	movs	r2, #0
 8001e3a:	601a      	str	r2, [r3, #0]
 8001e3c:	605a      	str	r2, [r3, #4]
 8001e3e:	609a      	str	r2, [r3, #8]
 8001e40:	60da      	str	r2, [r3, #12]
 8001e42:	611a      	str	r2, [r3, #16]
    GPIO_InitStruct.Pin = GPIO_PIN_13;
 8001e44:	f44f 5300 	mov.w	r3, #8192	@ 0x2000
 8001e48:	607b      	str	r3, [r7, #4]
    GPIO_InitStruct.Mode = GPIO_MODE_INPUT;
 8001e4a:	2300      	movs	r3, #0
 8001e4c:	60bb      	str	r3, [r7, #8]
    GPIO_InitStruct.Pull = GPIO_NOPULL; 
 8001e4e:	2300      	movs	r3, #0
 8001e50:	60fb      	str	r3, [r7, #12]
    HAL_GPIO_Init(GPIOC, &GPIO_InitStruct);
 8001e52:	1d3b      	adds	r3, r7, #4
 8001e54:	4619      	mov	r1, r3
 8001e56:	4804      	ldr	r0, [pc, #16]	@ (8001e68 <Button_GPIO_Init+0x50>)
 8001e58:	f002 f82a 	bl	8003eb0 <HAL_GPIO_Init>
}
 8001e5c:	bf00      	nop
 8001e5e:	3718      	adds	r7, #24
 8001e60:	46bd      	mov	sp, r7
 8001e62:	bd80      	pop	{r7, pc}
 8001e64:	40021000 	.word	0x40021000
 8001e68:	48000800 	.word	0x48000800

08001e6c <_read>:

int _read(int file, char *ptr, int len) { return 0; }
 8001e6c:	b480      	push	{r7}
 8001e6e:	b085      	sub	sp, #20
 8001e70:	af00      	add	r7, sp, #0
 8001e72:	60f8      	str	r0, [r7, #12]
 8001e74:	60b9      	str	r1, [r7, #8]
 8001e76:	607a      	str	r2, [r7, #4]
 8001e78:	2300      	movs	r3, #0
 8001e7a:	4618      	mov	r0, r3
 8001e7c:	3714      	adds	r7, #20
 8001e7e:	46bd      	mov	sp, r7
 8001e80:	f85d 7b04 	ldr.w	r7, [sp], #4
 8001e84:	4770      	bx	lr

08001e86 <_fstat>:
int _fstat(int file, struct stat *st) { return 0; }
 8001e86:	b480      	push	{r7}
 8001e88:	b083      	sub	sp, #12
 8001e8a:	af00      	add	r7, sp, #0
 8001e8c:	6078      	str	r0, [r7, #4]
 8001e8e:	6039      	str	r1, [r7, #0]
 8001e90:	2300      	movs	r3, #0
 8001e92:	4618      	mov	r0, r3
 8001e94:	370c      	adds	r7, #12
 8001e96:	46bd      	mov	sp, r7
 8001e98:	f85d 7b04 	ldr.w	r7, [sp], #4
 8001e9c:	4770      	bx	lr

08001e9e <_lseek>:
int _lseek(int file, int ptr, int dir) { return 0; }
 8001e9e:	b480      	push	{r7}
 8001ea0:	b085      	sub	sp, #20
 8001ea2:	af00      	add	r7, sp, #0
 8001ea4:	60f8      	str	r0, [r7, #12]
 8001ea6:	60b9      	str	r1, [r7, #8]
 8001ea8:	607a      	str	r2, [r7, #4]
 8001eaa:	2300      	movs	r3, #0
 8001eac:	4618      	mov	r0, r3
 8001eae:	3714      	adds	r7, #20
 8001eb0:	46bd      	mov	sp, r7
 8001eb2:	f85d 7b04 	ldr.w	r7, [sp], #4
 8001eb6:	4770      	bx	lr

08001eb8 <_isatty>:
int _isatty(int file) { return 1; }
 8001eb8:	b480      	push	{r7}
 8001eba:	b083      	sub	sp, #12
 8001ebc:	af00      	add	r7, sp, #0
 8001ebe:	6078      	str	r0, [r7, #4]
 8001ec0:	2301      	movs	r3, #1
 8001ec2:	4618      	mov	r0, r3
 8001ec4:	370c      	adds	r7, #12
 8001ec6:	46bd      	mov	sp, r7
 8001ec8:	f85d 7b04 	ldr.w	r7, [sp], #4
 8001ecc:	4770      	bx	lr

08001ece <_close>:
int _close(int file) { return -1; }
 8001ece:	b480      	push	{r7}
 8001ed0:	b083      	sub	sp, #12
 8001ed2:	af00      	add	r7, sp, #0
 8001ed4:	6078      	str	r0, [r7, #4]
 8001ed6:	f04f 33ff 	mov.w	r3, #4294967295
 8001eda:	4618      	mov	r0, r3
 8001edc:	370c      	adds	r7, #12
 8001ede:	46bd      	mov	sp, r7
 8001ee0:	f85d 7b04 	ldr.w	r7, [sp], #4
 8001ee4:	4770      	bx	lr

08001ee6 <_getpid>:
int _getpid(void) { return 1; }
 8001ee6:	b480      	push	{r7}
 8001ee8:	af00      	add	r7, sp, #0
 8001eea:	2301      	movs	r3, #1
 8001eec:	4618      	mov	r0, r3
 8001eee:	46bd      	mov	sp, r7
 8001ef0:	f85d 7b04 	ldr.w	r7, [sp], #4
 8001ef4:	4770      	bx	lr

08001ef6 <_kill>:
 8001ef6:	b480      	push	{r7}
 8001ef8:	b083      	sub	sp, #12
 8001efa:	af00      	add	r7, sp, #0
 8001efc:	6078      	str	r0, [r7, #4]
 8001efe:	6039      	str	r1, [r7, #0]
 8001f00:	f04f 33ff 	mov.w	r3, #4294967295
 8001f04:	4618      	mov	r0, r3
 8001f06:	370c      	adds	r7, #12
 8001f08:	46bd      	mov	sp, r7
 8001f0a:	f85d 7b04 	ldr.w	r7, [sp], #4
 8001f0e:	4770      	bx	lr

08001f10 <HAL_MspInit>:
/* USER CODE END 0 */
/**
  * Initializes the Global MSP.
  */
void HAL_MspInit(void)
{
 8001f10:	b480      	push	{r7}
 8001f12:	b083      	sub	sp, #12
 8001f14:	af00      	add	r7, sp, #0
  /* USER CODE BEGIN MspInit 0 */

  /* USER CODE END MspInit 0 */

  __HAL_RCC_SYSCFG_CLK_ENABLE();
 8001f16:	4b0f      	ldr	r3, [pc, #60]	@ (8001f54 <HAL_MspInit+0x44>)
 8001f18:	6e1b      	ldr	r3, [r3, #96]	@ 0x60
 8001f1a:	4a0e      	ldr	r2, [pc, #56]	@ (8001f54 <HAL_MspInit+0x44>)
 8001f1c:	f043 0301 	orr.w	r3, r3, #1
 8001f20:	6613      	str	r3, [r2, #96]	@ 0x60
 8001f22:	4b0c      	ldr	r3, [pc, #48]	@ (8001f54 <HAL_MspInit+0x44>)
 8001f24:	6e1b      	ldr	r3, [r3, #96]	@ 0x60
 8001f26:	f003 0301 	and.w	r3, r3, #1
 8001f2a:	607b      	str	r3, [r7, #4]
 8001f2c:	687b      	ldr	r3, [r7, #4]
  __HAL_RCC_PWR_CLK_ENABLE();
 8001f2e:	4b09      	ldr	r3, [pc, #36]	@ (8001f54 <HAL_MspInit+0x44>)
 8001f30:	6d9b      	ldr	r3, [r3, #88]	@ 0x58
 8001f32:	4a08      	ldr	r2, [pc, #32]	@ (8001f54 <HAL_MspInit+0x44>)
 8001f34:	f043 5380 	orr.w	r3, r3, #268435456	@ 0x10000000
 8001f38:	6593      	str	r3, [r2, #88]	@ 0x58
 8001f3a:	4b06      	ldr	r3, [pc, #24]	@ (8001f54 <HAL_MspInit+0x44>)
 8001f3c:	6d9b      	ldr	r3, [r3, #88]	@ 0x58
 8001f3e:	f003 5380 	and.w	r3, r3, #268435456	@ 0x10000000
 8001f42:	603b      	str	r3, [r7, #0]
 8001f44:	683b      	ldr	r3, [r7, #0]
  /* System interrupt init*/

  /* USER CODE BEGIN MspInit 1 */

  /* USER CODE END MspInit 1 */
}
 8001f46:	bf00      	nop
 8001f48:	370c      	adds	r7, #12
 8001f4a:	46bd      	mov	sp, r7
 8001f4c:	f85d 7b04 	ldr.w	r7, [sp], #4
 8001f50:	4770      	bx	lr
 8001f52:	bf00      	nop
 8001f54:	40021000 	.word	0x40021000

08001f58 <NMI_Handler>:
/******************************************************************************/
/**
  * @brief This function handles Non maskable interrupt.
  */
void NMI_Handler(void)
{
 8001f58:	b480      	push	{r7}
 8001f5a:	af00      	add	r7, sp, #0
  /* USER CODE BEGIN NonMaskableInt_IRQn 0 */

  /* USER CODE END NonMaskableInt_IRQn 0 */
  /* USER CODE BEGIN NonMaskableInt_IRQn 1 */
  while (1)
 8001f5c:	bf00      	nop
 8001f5e:	e7fd      	b.n	8001f5c <NMI_Handler+0x4>

08001f60 <HardFault_Handler>:

/**
  * @brief This function handles Hard fault interrupt.
  */
void HardFault_Handler(void)
{
 8001f60:	b480      	push	{r7}
 8001f62:	af00      	add	r7, sp, #0
  /* USER CODE BEGIN HardFault_IRQn 0 */

  /* USER CODE END HardFault_IRQn 0 */
  while (1)
 8001f64:	bf00      	nop
 8001f66:	e7fd      	b.n	8001f64 <HardFault_Handler+0x4>

08001f68 <MemManage_Handler>:

/**
  * @brief This function handles Memory management fault.
  */
void MemManage_Handler(void)
{
 8001f68:	b480      	push	{r7}
 8001f6a:	af00      	add	r7, sp, #0
  /* USER CODE BEGIN MemoryManagement_IRQn 0 */

  /* USER CODE END MemoryManagement_IRQn 0 */
  while (1)
 8001f6c:	bf00      	nop
 8001f6e:	e7fd      	b.n	8001f6c <MemManage_Handler+0x4>

08001f70 <BusFault_Handler>:

/**
  * @brief This function handles Prefetch fault, memory access fault.
  */
void BusFault_Handler(void)
{
 8001f70:	b480      	push	{r7}
 8001f72:	af00      	add	r7, sp, #0
  /* USER CODE BEGIN BusFault_IRQn 0 */

  /* USER CODE END BusFault_IRQn 0 */
  while (1)
 8001f74:	bf00      	nop
 8001f76:	e7fd      	b.n	8001f74 <BusFault_Handler+0x4>

08001f78 <UsageFault_Handler>:

/**
  * @brief This function handles Undefined instruction or illegal state.
  */
void UsageFault_Handler(void)
{
 8001f78:	b480      	push	{r7}
 8001f7a:	af00      	add	r7, sp, #0
  /* USER CODE BEGIN UsageFault_IRQn 0 */

  /* USER CODE END UsageFault_IRQn 0 */
  while (1)
 8001f7c:	bf00      	nop
 8001f7e:	e7fd      	b.n	8001f7c <UsageFault_Handler+0x4>

08001f80 <SVC_Handler>:

/**
  * @brief This function handles System service call via SWI instruction.
  */
void SVC_Handler(void)
{
 8001f80:	b480      	push	{r7}
 8001f82:	af00      	add	r7, sp, #0

  /* USER CODE END SVCall_IRQn 0 */
  /* USER CODE BEGIN SVCall_IRQn 1 */

  /* USER CODE END SVCall_IRQn 1 */
}
 8001f84:	bf00      	nop
 8001f86:	46bd      	mov	sp, r7
 8001f88:	f85d 7b04 	ldr.w	r7, [sp], #4
 8001f8c:	4770      	bx	lr

08001f8e <DebugMon_Handler>:

/**
  * @brief This function handles Debug monitor.
  */
void DebugMon_Handler(void)
{
 8001f8e:	b480      	push	{r7}
 8001f90:	af00      	add	r7, sp, #0

  /* USER CODE END DebugMonitor_IRQn 0 */
  /* USER CODE BEGIN DebugMonitor_IRQn 1 */

  /* USER CODE END DebugMonitor_IRQn 1 */
}
 8001f92:	bf00      	nop
 8001f94:	46bd      	mov	sp, r7
 8001f96:	f85d 7b04 	ldr.w	r7, [sp], #4
 8001f9a:	4770      	bx	lr

08001f9c <PendSV_Handler>:

/**
  * @brief This function handles Pendable request for system service.
  */
void PendSV_Handler(void)
{
 8001f9c:	b480      	push	{r7}
 8001f9e:	af00      	add	r7, sp, #0

  /* USER CODE END PendSV_IRQn 0 */
  /* USER CODE BEGIN PendSV_IRQn 1 */

  /* USER CODE END PendSV_IRQn 1 */
}
 8001fa0:	bf00      	nop
 8001fa2:	46bd      	mov	sp, r7
 8001fa4:	f85d 7b04 	ldr.w	r7, [sp], #4
 8001fa8:	4770      	bx	lr

08001faa <SysTick_Handler>:

/**
  * @brief This function handles System tick timer.
  */
void SysTick_Handler(void)
{
 8001faa:	b580      	push	{r7, lr}
 8001fac:	af00      	add	r7, sp, #0
  /* USER CODE BEGIN SysTick_IRQn 0 */

  /* USER CODE END SysTick_IRQn 0 */
  HAL_IncTick();
 8001fae:	f000 fd7d 	bl	8002aac <HAL_IncTick>
  /* USER CODE BEGIN SysTick_IRQn 1 */

  /* USER CODE END SysTick_IRQn 1 */
}
 8001fb2:	bf00      	nop
 8001fb4:	bd80      	pop	{r7, pc}

08001fb6 <EXTI9_5_IRQHandler>:

/**
  * @brief This function handles EXTI line[9:5] interrupts.
  */
void EXTI9_5_IRQHandler(void)
{
 8001fb6:	b580      	push	{r7, lr}
 8001fb8:	af00      	add	r7, sp, #0
  /* USER CODE BEGIN EXTI9_5_IRQn 0 */

  /* USER CODE END EXTI9_5_IRQn 0 */
  HAL_GPIO_EXTI_IRQHandler(SPSGRF_915_GPIO3_EXTI5_Pin);
 8001fba:	2020      	movs	r0, #32
 8001fbc:	f002 f954 	bl	8004268 <HAL_GPIO_EXTI_IRQHandler>
  HAL_GPIO_EXTI_IRQHandler(SPBTLE_RF_IRQ_EXTI6_Pin);
 8001fc0:	2040      	movs	r0, #64	@ 0x40
 8001fc2:	f002 f951 	bl	8004268 <HAL_GPIO_EXTI_IRQHandler>
  HAL_GPIO_EXTI_IRQHandler(VL53L0X_GPIO1_EXTI7_Pin);
 8001fc6:	2080      	movs	r0, #128	@ 0x80
 8001fc8:	f002 f94e 	bl	8004268 <HAL_GPIO_EXTI_IRQHandler>
  HAL_GPIO_EXTI_IRQHandler(LSM3MDL_DRDY_EXTI8_Pin);
 8001fcc:	f44f 7080 	mov.w	r0, #256	@ 0x100
 8001fd0:	f002 f94a 	bl	8004268 <HAL_GPIO_EXTI_IRQHandler>
  /* USER CODE BEGIN EXTI9_5_IRQn 1 */

  /* USER CODE END EXTI9_5_IRQn 1 */
}
 8001fd4:	bf00      	nop
 8001fd6:	bd80      	pop	{r7, pc}

08001fd8 <EXTI15_10_IRQHandler>:

/**
  * @brief This function handles EXTI line[15:10] interrupts.
  */
void EXTI15_10_IRQHandler(void)
{
 8001fd8:	b580      	push	{r7, lr}
 8001fda:	af00      	add	r7, sp, #0
  /* USER CODE BEGIN EXTI15_10_IRQn 0 */

  /* USER CODE END EXTI15_10_IRQn 0 */
  HAL_GPIO_EXTI_IRQHandler(LPS22HB_INT_DRDY_EXTI10_Pin);
 8001fdc:	f44f 6080 	mov.w	r0, #1024	@ 0x400
 8001fe0:	f002 f942 	bl	8004268 <HAL_GPIO_EXTI_IRQHandler>
  HAL_GPIO_EXTI_IRQHandler(LSM6DSL_INT1_EXTI11_Pin);
 8001fe4:	f44f 6000 	mov.w	r0, #2048	@ 0x800
 8001fe8:	f002 f93e 	bl	8004268 <HAL_GPIO_EXTI_IRQHandler>
  HAL_GPIO_EXTI_IRQHandler(USB_OTG_FS_PWR_EN_Pin);
 8001fec:	f44f 5080 	mov.w	r0, #4096	@ 0x1000
 8001ff0:	f002 f93a 	bl	8004268 <HAL_GPIO_EXTI_IRQHandler>
  HAL_GPIO_EXTI_IRQHandler(BUTTON_EXTI13_Pin);
 8001ff4:	f44f 5000 	mov.w	r0, #8192	@ 0x2000
 8001ff8:	f002 f936 	bl	8004268 <HAL_GPIO_EXTI_IRQHandler>
  HAL_GPIO_EXTI_IRQHandler(ARD_D2_Pin);
 8001ffc:	f44f 4080 	mov.w	r0, #16384	@ 0x4000
 8002000:	f002 f932 	bl	8004268 <HAL_GPIO_EXTI_IRQHandler>
  HAL_GPIO_EXTI_IRQHandler(HTS221_DRDY_EXTI15_Pin);
 8002004:	f44f 4000 	mov.w	r0, #32768	@ 0x8000
 8002008:	f002 f92e 	bl	8004268 <HAL_GPIO_EXTI_IRQHandler>
  /* USER CODE BEGIN EXTI15_10_IRQn 1 */

  /* USER CODE END EXTI15_10_IRQn 1 */
}
 800200c:	bf00      	nop
 800200e:	bd80      	pop	{r7, pc}

08002010 <_sbrk>:
 *
 * @param incr Memory size
 * @return Pointer to allocated memory
 */
void *_sbrk(ptrdiff_t incr)
{
 8002010:	b580      	push	{r7, lr}
 8002012:	b086      	sub	sp, #24
 8002014:	af00      	add	r7, sp, #0
 8002016:	6078      	str	r0, [r7, #4]
  extern uint8_t _end; /* Symbol defined in the linker script */
  extern uint8_t _estack; /* Symbol defined in the linker script */
  extern uint32_t _Min_Stack_Size; /* Symbol defined in the linker script */
  const uint32_t stack_limit = (uint32_t)&_estack - (uint32_t)&_Min_Stack_Size;
 8002018:	4a14      	ldr	r2, [pc, #80]	@ (800206c <_sbrk+0x5c>)
 800201a:	4b15      	ldr	r3, [pc, #84]	@ (8002070 <_sbrk+0x60>)
 800201c:	1ad3      	subs	r3, r2, r3
 800201e:	617b      	str	r3, [r7, #20]
  const uint8_t *max_heap = (uint8_t *)stack_limit;
 8002020:	697b      	ldr	r3, [r7, #20]
 8002022:	613b      	str	r3, [r7, #16]
  uint8_t *prev_heap_end;

  /* Initialize heap end at first call */
  if (NULL == __sbrk_heap_end)
 8002024:	4b13      	ldr	r3, [pc, #76]	@ (8002074 <_sbrk+0x64>)
 8002026:	681b      	ldr	r3, [r3, #0]
 8002028:	2b00      	cmp	r3, #0
 800202a:	d102      	bne.n	8002032 <_sbrk+0x22>
  {
    __sbrk_heap_end = &_end;
 800202c:	4b11      	ldr	r3, [pc, #68]	@ (8002074 <_sbrk+0x64>)
 800202e:	4a12      	ldr	r2, [pc, #72]	@ (8002078 <_sbrk+0x68>)
 8002030:	601a      	str	r2, [r3, #0]
  }

  /* Protect heap from growing into the reserved MSP stack */
  if (__sbrk_heap_end + incr > max_heap)
 8002032:	4b10      	ldr	r3, [pc, #64]	@ (8002074 <_sbrk+0x64>)
 8002034:	681a      	ldr	r2, [r3, #0]
 8002036:	687b      	ldr	r3, [r7, #4]
 8002038:	4413      	add	r3, r2
 800203a:	693a      	ldr	r2, [r7, #16]
 800203c:	429a      	cmp	r2, r3
 800203e:	d207      	bcs.n	8002050 <_sbrk+0x40>
  {
    errno = ENOMEM;
 8002040:	f004 fc6a 	bl	8006918 <__errno>
 8002044:	4603      	mov	r3, r0
 8002046:	220c      	movs	r2, #12
 8002048:	601a      	str	r2, [r3, #0]
    return (void *)-1;
 800204a:	f04f 33ff 	mov.w	r3, #4294967295
 800204e:	e009      	b.n	8002064 <_sbrk+0x54>
  }

  prev_heap_end = __sbrk_heap_end;
 8002050:	4b08      	ldr	r3, [pc, #32]	@ (8002074 <_sbrk+0x64>)
 8002052:	681b      	ldr	r3, [r3, #0]
 8002054:	60fb      	str	r3, [r7, #12]
  __sbrk_heap_end += incr;
 8002056:	4b07      	ldr	r3, [pc, #28]	@ (8002074 <_sbrk+0x64>)
 8002058:	681a      	ldr	r2, [r3, #0]
 800205a:	687b      	ldr	r3, [r7, #4]
 800205c:	4413      	add	r3, r2
 800205e:	4a05      	ldr	r2, [pc, #20]	@ (8002074 <_sbrk+0x64>)
 8002060:	6013      	str	r3, [r2, #0]

  return (void *)prev_heap_end;
 8002062:	68fb      	ldr	r3, [r7, #12]
}
 8002064:	4618      	mov	r0, r3
 8002066:	3718      	adds	r7, #24
 8002068:	46bd      	mov	sp, r7
 800206a:	bd80      	pop	{r7, pc}
 800206c:	200a0000 	.word	0x200a0000
 8002070:	00000400 	.word	0x00000400
 8002074:	20000378 	.word	0x20000378
 8002078:	20000528 	.word	0x20000528

0800207c <SystemInit>:
  * @brief  Setup the microcontroller system.
  * @retval None
  */

void SystemInit(void)
{
 800207c:	b480      	push	{r7}
 800207e:	af00      	add	r7, sp, #0
  SCB->VTOR = VECT_TAB_BASE_ADDRESS | VECT_TAB_OFFSET;
#endif

  /* FPU settings ------------------------------------------------------------*/
#if (__FPU_PRESENT == 1) && (__FPU_USED == 1)
  SCB->CPACR |= ((3UL << 20U)|(3UL << 22U));  /* set CP10 and CP11 Full Access */
 8002080:	4b06      	ldr	r3, [pc, #24]	@ (800209c <SystemInit+0x20>)
 8002082:	f8d3 3088 	ldr.w	r3, [r3, #136]	@ 0x88
 8002086:	4a05      	ldr	r2, [pc, #20]	@ (800209c <SystemInit+0x20>)
 8002088:	f443 0370 	orr.w	r3, r3, #15728640	@ 0xf00000
 800208c:	f8c2 3088 	str.w	r3, [r2, #136]	@ 0x88
#endif
}
 8002090:	bf00      	nop
 8002092:	46bd      	mov	sp, r7
 8002094:	f85d 7b04 	ldr.w	r7, [sp], #4
 8002098:	4770      	bx	lr
 800209a:	bf00      	nop
 800209c:	e000ed00 	.word	0xe000ed00

080020a0 <Reset_Handler>:

    .section	.text.Reset_Handler
	.weak	Reset_Handler
	.type	Reset_Handler, %function
Reset_Handler:
  ldr   sp, =_estack    /* Set stack pointer */
 80020a0:	f8df d034 	ldr.w	sp, [pc, #52]	@ 80020d8 <LoopForever+0x2>

/* Call the clock system initialization function.*/
    bl  SystemInit
 80020a4:	f7ff ffea 	bl	800207c <SystemInit>

/* Copy the data segment initializers from flash to SRAM */
  ldr r0, =_sdata
 80020a8:	480c      	ldr	r0, [pc, #48]	@ (80020dc <LoopForever+0x6>)
  ldr r1, =_edata
 80020aa:	490d      	ldr	r1, [pc, #52]	@ (80020e0 <LoopForever+0xa>)
  ldr r2, =_sidata
 80020ac:	4a0d      	ldr	r2, [pc, #52]	@ (80020e4 <LoopForever+0xe>)
  movs r3, #0
 80020ae:	2300      	movs	r3, #0
  b LoopCopyDataInit
 80020b0:	e002      	b.n	80020b8 <LoopCopyDataInit>

080020b2 <CopyDataInit>:

CopyDataInit:
  ldr r4, [r2, r3]
 80020b2:	58d4      	ldr	r4, [r2, r3]
  str r4, [r0, r3]
 80020b4:	50c4      	str	r4, [r0, r3]
  adds r3, r3, #4
 80020b6:	3304      	adds	r3, #4

080020b8 <LoopCopyDataInit>:

LoopCopyDataInit:
  adds r4, r0, r3
 80020b8:	18c4      	adds	r4, r0, r3
  cmp r4, r1
 80020ba:	428c      	cmp	r4, r1
  bcc CopyDataInit
 80020bc:	d3f9      	bcc.n	80020b2 <CopyDataInit>
  
/* Zero fill the bss segment. */
  ldr r2, =_sbss
 80020be:	4a0a      	ldr	r2, [pc, #40]	@ (80020e8 <LoopForever+0x12>)
  ldr r4, =_ebss
 80020c0:	4c0a      	ldr	r4, [pc, #40]	@ (80020ec <LoopForever+0x16>)
  movs r3, #0
 80020c2:	2300      	movs	r3, #0
  b LoopFillZerobss
 80020c4:	e001      	b.n	80020ca <LoopFillZerobss>

080020c6 <FillZerobss>:

FillZerobss:
  str  r3, [r2]
 80020c6:	6013      	str	r3, [r2, #0]
  adds r2, r2, #4
 80020c8:	3204      	adds	r2, #4

080020ca <LoopFillZerobss>:

LoopFillZerobss:
  cmp r2, r4
 80020ca:	42a2      	cmp	r2, r4
  bcc FillZerobss
 80020cc:	d3fb      	bcc.n	80020c6 <FillZerobss>

/* Call static constructors */
    bl __libc_init_array
 80020ce:	f004 fc29 	bl	8006924 <__libc_init_array>
/* Call the application's entry point.*/
	bl	main
 80020d2:	f7fe ff2f 	bl	8000f34 <main>

080020d6 <LoopForever>:

LoopForever:
    b LoopForever
 80020d6:	e7fe      	b.n	80020d6 <LoopForever>
  ldr   sp, =_estack    /* Set stack pointer */
 80020d8:	200a0000 	.word	0x200a0000
  ldr r0, =_sdata
 80020dc:	20000000 	.word	0x20000000
  ldr r1, =_edata
 80020e0:	20000248 	.word	0x20000248
  ldr r2, =_sidata
 80020e4:	08009cfc 	.word	0x08009cfc
  ldr r2, =_sbss
 80020e8:	20000248 	.word	0x20000248
  ldr r4, =_ebss
 80020ec:	20000528 	.word	0x20000528

080020f0 <ADC1_IRQHandler>:
 * @retval : None
*/
    .section	.text.Default_Handler,"ax",%progbits
Default_Handler:
Infinite_Loop:
	b	Infinite_Loop
 80020f0:	e7fe      	b.n	80020f0 <ADC1_IRQHandler>
	...

080020f4 <BSP_LED_Init>:
  * @param  Led  LED to be initialized. 
  *              This parameter can be one of the following values:
  *                @arg  LED2
  */
void BSP_LED_Init(Led_TypeDef Led)
{
 80020f4:	b580      	push	{r7, lr}
 80020f6:	b088      	sub	sp, #32
 80020f8:	af00      	add	r7, sp, #0
 80020fa:	4603      	mov	r3, r0
 80020fc:	71fb      	strb	r3, [r7, #7]
  GPIO_InitTypeDef  gpio_init_structure;
  
  LEDx_GPIO_CLK_ENABLE(Led);
 80020fe:	79fb      	ldrb	r3, [r7, #7]
 8002100:	2b00      	cmp	r3, #0
 8002102:	d10b      	bne.n	800211c <BSP_LED_Init+0x28>
 8002104:	4b11      	ldr	r3, [pc, #68]	@ (800214c <BSP_LED_Init+0x58>)
 8002106:	6cdb      	ldr	r3, [r3, #76]	@ 0x4c
 8002108:	4a10      	ldr	r2, [pc, #64]	@ (800214c <BSP_LED_Init+0x58>)
 800210a:	f043 0302 	orr.w	r3, r3, #2
 800210e:	64d3      	str	r3, [r2, #76]	@ 0x4c
 8002110:	4b0e      	ldr	r3, [pc, #56]	@ (800214c <BSP_LED_Init+0x58>)
 8002112:	6cdb      	ldr	r3, [r3, #76]	@ 0x4c
 8002114:	f003 0302 	and.w	r3, r3, #2
 8002118:	60bb      	str	r3, [r7, #8]
 800211a:	68bb      	ldr	r3, [r7, #8]
  /* Configure the GPIO_LED pin */
  gpio_init_structure.Pin   = GPIO_PIN[Led];
 800211c:	f44f 4380 	mov.w	r3, #16384	@ 0x4000
 8002120:	60fb      	str	r3, [r7, #12]
  gpio_init_structure.Mode  = GPIO_MODE_OUTPUT_PP;
 8002122:	2301      	movs	r3, #1
 8002124:	613b      	str	r3, [r7, #16]
  gpio_init_structure.Pull  = GPIO_NOPULL;
 8002126:	2300      	movs	r3, #0
 8002128:	617b      	str	r3, [r7, #20]
  gpio_init_structure.Speed = GPIO_SPEED_FREQ_HIGH;
 800212a:	2302      	movs	r3, #2
 800212c:	61bb      	str	r3, [r7, #24]
  
  HAL_GPIO_Init(GPIO_PORT[Led], &gpio_init_structure);
 800212e:	79fb      	ldrb	r3, [r7, #7]
 8002130:	4a07      	ldr	r2, [pc, #28]	@ (8002150 <BSP_LED_Init+0x5c>)
 8002132:	f852 3023 	ldr.w	r3, [r2, r3, lsl #2]
 8002136:	f107 020c 	add.w	r2, r7, #12
 800213a:	4611      	mov	r1, r2
 800213c:	4618      	mov	r0, r3
 800213e:	f001 feb7 	bl	8003eb0 <HAL_GPIO_Init>
}
 8002142:	bf00      	nop
 8002144:	3720      	adds	r7, #32
 8002146:	46bd      	mov	sp, r7
 8002148:	bd80      	pop	{r7, pc}
 800214a:	bf00      	nop
 800214c:	40021000 	.word	0x40021000
 8002150:	2000000c 	.word	0x2000000c

08002154 <BSP_LED_Off>:
  * @param  Led  LED to be set off
  *              This parameter can be one of the following values:
  *                @arg  LED2
  */
void BSP_LED_Off(Led_TypeDef Led)
{
 8002154:	b580      	push	{r7, lr}
 8002156:	b082      	sub	sp, #8
 8002158:	af00      	add	r7, sp, #0
 800215a:	4603      	mov	r3, r0
 800215c:	71fb      	strb	r3, [r7, #7]
  HAL_GPIO_WritePin(GPIO_PORT[Led], GPIO_PIN[Led], GPIO_PIN_RESET);
 800215e:	79fb      	ldrb	r3, [r7, #7]
 8002160:	4a06      	ldr	r2, [pc, #24]	@ (800217c <BSP_LED_Off+0x28>)
 8002162:	f852 3023 	ldr.w	r3, [r2, r3, lsl #2]
 8002166:	f44f 4280 	mov.w	r2, #16384	@ 0x4000
 800216a:	b291      	uxth	r1, r2
 800216c:	2200      	movs	r2, #0
 800216e:	4618      	mov	r0, r3
 8002170:	f002 f848 	bl	8004204 <HAL_GPIO_WritePin>
}
 8002174:	bf00      	nop
 8002176:	3708      	adds	r7, #8
 8002178:	46bd      	mov	sp, r7
 800217a:	bd80      	pop	{r7, pc}
 800217c:	2000000c 	.word	0x2000000c

08002180 <BSP_LED_Toggle>:
  * @param  Led  LED to be toggled
  *              This parameter can be one of the following values:
  *                @arg  LED2
  */
void BSP_LED_Toggle(Led_TypeDef Led)
{
 8002180:	b580      	push	{r7, lr}
 8002182:	b082      	sub	sp, #8
 8002184:	af00      	add	r7, sp, #0
 8002186:	4603      	mov	r3, r0
 8002188:	71fb      	strb	r3, [r7, #7]
  HAL_GPIO_TogglePin(GPIO_PORT[Led], GPIO_PIN[Led]);
 800218a:	79fb      	ldrb	r3, [r7, #7]
 800218c:	4a06      	ldr	r2, [pc, #24]	@ (80021a8 <BSP_LED_Toggle+0x28>)
 800218e:	f852 3023 	ldr.w	r3, [r2, r3, lsl #2]
 8002192:	f44f 4280 	mov.w	r2, #16384	@ 0x4000
 8002196:	b292      	uxth	r2, r2
 8002198:	4611      	mov	r1, r2
 800219a:	4618      	mov	r0, r3
 800219c:	f002 f84a 	bl	8004234 <HAL_GPIO_TogglePin>
}
 80021a0:	bf00      	nop
 80021a2:	3708      	adds	r7, #8
 80021a4:	46bd      	mov	sp, r7
 80021a6:	bd80      	pop	{r7, pc}
 80021a8:	2000000c 	.word	0x2000000c

080021ac <I2Cx_MspInit>:
  * @brief  Initializes I2C MSP.
  * @param  i2c_handler  I2C handler
  * @retval None
  */
static void I2Cx_MspInit(I2C_HandleTypeDef *i2c_handler)
{
 80021ac:	b580      	push	{r7, lr}
 80021ae:	b08a      	sub	sp, #40	@ 0x28
 80021b0:	af00      	add	r7, sp, #0
 80021b2:	6078      	str	r0, [r7, #4]
  GPIO_InitTypeDef  gpio_init_structure;

  /*** Configure the GPIOs ***/
  /* Enable GPIO clock */
  DISCOVERY_I2Cx_SCL_SDA_GPIO_CLK_ENABLE();
 80021b4:	4b27      	ldr	r3, [pc, #156]	@ (8002254 <I2Cx_MspInit+0xa8>)
 80021b6:	6cdb      	ldr	r3, [r3, #76]	@ 0x4c
 80021b8:	4a26      	ldr	r2, [pc, #152]	@ (8002254 <I2Cx_MspInit+0xa8>)
 80021ba:	f043 0302 	orr.w	r3, r3, #2
 80021be:	64d3      	str	r3, [r2, #76]	@ 0x4c
 80021c0:	4b24      	ldr	r3, [pc, #144]	@ (8002254 <I2Cx_MspInit+0xa8>)
 80021c2:	6cdb      	ldr	r3, [r3, #76]	@ 0x4c
 80021c4:	f003 0302 	and.w	r3, r3, #2
 80021c8:	613b      	str	r3, [r7, #16]
 80021ca:	693b      	ldr	r3, [r7, #16]

  /* Configure I2C Tx, Rx as alternate function */
  gpio_init_structure.Pin = DISCOVERY_I2Cx_SCL_PIN | DISCOVERY_I2Cx_SDA_PIN;
 80021cc:	f44f 6340 	mov.w	r3, #3072	@ 0xc00
 80021d0:	617b      	str	r3, [r7, #20]
  gpio_init_structure.Mode = GPIO_MODE_AF_OD;
 80021d2:	2312      	movs	r3, #18
 80021d4:	61bb      	str	r3, [r7, #24]
  gpio_init_structure.Pull = GPIO_PULLUP;
 80021d6:	2301      	movs	r3, #1
 80021d8:	61fb      	str	r3, [r7, #28]
  gpio_init_structure.Speed = GPIO_SPEED_FREQ_VERY_HIGH;
 80021da:	2303      	movs	r3, #3
 80021dc:	623b      	str	r3, [r7, #32]
  gpio_init_structure.Alternate = DISCOVERY_I2Cx_SCL_SDA_AF;
 80021de:	2304      	movs	r3, #4
 80021e0:	627b      	str	r3, [r7, #36]	@ 0x24
  HAL_GPIO_Init(DISCOVERY_I2Cx_SCL_SDA_GPIO_PORT, &gpio_init_structure);
 80021e2:	f107 0314 	add.w	r3, r7, #20
 80021e6:	4619      	mov	r1, r3
 80021e8:	481b      	ldr	r0, [pc, #108]	@ (8002258 <I2Cx_MspInit+0xac>)
 80021ea:	f001 fe61 	bl	8003eb0 <HAL_GPIO_Init>

  HAL_GPIO_Init(DISCOVERY_I2Cx_SCL_SDA_GPIO_PORT, &gpio_init_structure);
 80021ee:	f107 0314 	add.w	r3, r7, #20
 80021f2:	4619      	mov	r1, r3
 80021f4:	4818      	ldr	r0, [pc, #96]	@ (8002258 <I2Cx_MspInit+0xac>)
 80021f6:	f001 fe5b 	bl	8003eb0 <HAL_GPIO_Init>

  /*** Configure the I2C peripheral ***/
  /* Enable I2C clock */
  DISCOVERY_I2Cx_CLK_ENABLE();
 80021fa:	4b16      	ldr	r3, [pc, #88]	@ (8002254 <I2Cx_MspInit+0xa8>)
 80021fc:	6d9b      	ldr	r3, [r3, #88]	@ 0x58
 80021fe:	4a15      	ldr	r2, [pc, #84]	@ (8002254 <I2Cx_MspInit+0xa8>)
 8002200:	f443 0380 	orr.w	r3, r3, #4194304	@ 0x400000
 8002204:	6593      	str	r3, [r2, #88]	@ 0x58
 8002206:	4b13      	ldr	r3, [pc, #76]	@ (8002254 <I2Cx_MspInit+0xa8>)
 8002208:	6d9b      	ldr	r3, [r3, #88]	@ 0x58
 800220a:	f403 0380 	and.w	r3, r3, #4194304	@ 0x400000
 800220e:	60fb      	str	r3, [r7, #12]
 8002210:	68fb      	ldr	r3, [r7, #12]

  /* Force the I2C peripheral clock reset */
  DISCOVERY_I2Cx_FORCE_RESET();
 8002212:	4b10      	ldr	r3, [pc, #64]	@ (8002254 <I2Cx_MspInit+0xa8>)
 8002214:	6b9b      	ldr	r3, [r3, #56]	@ 0x38
 8002216:	4a0f      	ldr	r2, [pc, #60]	@ (8002254 <I2Cx_MspInit+0xa8>)
 8002218:	f443 0380 	orr.w	r3, r3, #4194304	@ 0x400000
 800221c:	6393      	str	r3, [r2, #56]	@ 0x38

  /* Release the I2C peripheral clock reset */
  DISCOVERY_I2Cx_RELEASE_RESET();
 800221e:	4b0d      	ldr	r3, [pc, #52]	@ (8002254 <I2Cx_MspInit+0xa8>)
 8002220:	6b9b      	ldr	r3, [r3, #56]	@ 0x38
 8002222:	4a0c      	ldr	r2, [pc, #48]	@ (8002254 <I2Cx_MspInit+0xa8>)
 8002224:	f423 0380 	bic.w	r3, r3, #4194304	@ 0x400000
 8002228:	6393      	str	r3, [r2, #56]	@ 0x38

  /* Enable and set I2Cx Interrupt to a lower priority */
  HAL_NVIC_SetPriority(DISCOVERY_I2Cx_EV_IRQn, 0x0F, 0);
 800222a:	2200      	movs	r2, #0
 800222c:	210f      	movs	r1, #15
 800222e:	2021      	movs	r0, #33	@ 0x21
 8002230:	f001 fe07 	bl	8003e42 <HAL_NVIC_SetPriority>
  HAL_NVIC_EnableIRQ(DISCOVERY_I2Cx_EV_IRQn);
 8002234:	2021      	movs	r0, #33	@ 0x21
 8002236:	f001 fe20 	bl	8003e7a <HAL_NVIC_EnableIRQ>

  /* Enable and set I2Cx Interrupt to a lower priority */
  HAL_NVIC_SetPriority(DISCOVERY_I2Cx_ER_IRQn, 0x0F, 0);
 800223a:	2200      	movs	r2, #0
 800223c:	210f      	movs	r1, #15
 800223e:	2022      	movs	r0, #34	@ 0x22
 8002240:	f001 fdff 	bl	8003e42 <HAL_NVIC_SetPriority>
  HAL_NVIC_EnableIRQ(DISCOVERY_I2Cx_ER_IRQn);
 8002244:	2022      	movs	r0, #34	@ 0x22
 8002246:	f001 fe18 	bl	8003e7a <HAL_NVIC_EnableIRQ>
}
 800224a:	bf00      	nop
 800224c:	3728      	adds	r7, #40	@ 0x28
 800224e:	46bd      	mov	sp, r7
 8002250:	bd80      	pop	{r7, pc}
 8002252:	bf00      	nop
 8002254:	40021000 	.word	0x40021000
 8002258:	48000400 	.word	0x48000400

0800225c <I2Cx_Init>:
  * @brief  Initializes I2C HAL.
  * @param  i2c_handler  I2C handler
  * @retval None
  */
static void I2Cx_Init(I2C_HandleTypeDef *i2c_handler)
{
 800225c:	b580      	push	{r7, lr}
 800225e:	b082      	sub	sp, #8
 8002260:	af00      	add	r7, sp, #0
 8002262:	6078      	str	r0, [r7, #4]
  /* I2C configuration */
  i2c_handler->Instance              = DISCOVERY_I2Cx;
 8002264:	687b      	ldr	r3, [r7, #4]
 8002266:	4a12      	ldr	r2, [pc, #72]	@ (80022b0 <I2Cx_Init+0x54>)
 8002268:	601a      	str	r2, [r3, #0]
  i2c_handler->Init.Timing           = DISCOVERY_I2Cx_TIMING;
 800226a:	687b      	ldr	r3, [r7, #4]
 800226c:	4a11      	ldr	r2, [pc, #68]	@ (80022b4 <I2Cx_Init+0x58>)
 800226e:	605a      	str	r2, [r3, #4]
  i2c_handler->Init.OwnAddress1      = 0;
 8002270:	687b      	ldr	r3, [r7, #4]
 8002272:	2200      	movs	r2, #0
 8002274:	609a      	str	r2, [r3, #8]
  i2c_handler->Init.AddressingMode   = I2C_ADDRESSINGMODE_7BIT;
 8002276:	687b      	ldr	r3, [r7, #4]
 8002278:	2201      	movs	r2, #1
 800227a:	60da      	str	r2, [r3, #12]
  i2c_handler->Init.DualAddressMode  = I2C_DUALADDRESS_DISABLE;
 800227c:	687b      	ldr	r3, [r7, #4]
 800227e:	2200      	movs	r2, #0
 8002280:	611a      	str	r2, [r3, #16]
  i2c_handler->Init.OwnAddress2      = 0;
 8002282:	687b      	ldr	r3, [r7, #4]
 8002284:	2200      	movs	r2, #0
 8002286:	615a      	str	r2, [r3, #20]
  i2c_handler->Init.GeneralCallMode  = I2C_GENERALCALL_DISABLE;
 8002288:	687b      	ldr	r3, [r7, #4]
 800228a:	2200      	movs	r2, #0
 800228c:	61da      	str	r2, [r3, #28]
  i2c_handler->Init.NoStretchMode    = I2C_NOSTRETCH_DISABLE;
 800228e:	687b      	ldr	r3, [r7, #4]
 8002290:	2200      	movs	r2, #0
 8002292:	621a      	str	r2, [r3, #32]

  /* Init the I2C */
  I2Cx_MspInit(i2c_handler);
 8002294:	6878      	ldr	r0, [r7, #4]
 8002296:	f7ff ff89 	bl	80021ac <I2Cx_MspInit>
  HAL_I2C_Init(i2c_handler);
 800229a:	6878      	ldr	r0, [r7, #4]
 800229c:	f002 f807 	bl	80042ae <HAL_I2C_Init>
  
  /**Configure Analogue filter */
  HAL_I2CEx_ConfigAnalogFilter(i2c_handler, I2C_ANALOGFILTER_ENABLE);  
 80022a0:	2100      	movs	r1, #0
 80022a2:	6878      	ldr	r0, [r7, #4]
 80022a4:	f002 fdc8 	bl	8004e38 <HAL_I2CEx_ConfigAnalogFilter>
}
 80022a8:	bf00      	nop
 80022aa:	3708      	adds	r7, #8
 80022ac:	46bd      	mov	sp, r7
 80022ae:	bd80      	pop	{r7, pc}
 80022b0:	40005800 	.word	0x40005800
 80022b4:	00702681 	.word	0x00702681

080022b8 <I2Cx_ReadMultiple>:
  * @param  Buffer  Pointer to data buffer
  * @param  Length  Length of the data
  * @retval HAL status
  */
static HAL_StatusTypeDef I2Cx_ReadMultiple(I2C_HandleTypeDef *i2c_handler, uint8_t Addr, uint16_t Reg, uint16_t MemAddress, uint8_t *Buffer, uint16_t Length)
{
 80022b8:	b580      	push	{r7, lr}
 80022ba:	b08a      	sub	sp, #40	@ 0x28
 80022bc:	af04      	add	r7, sp, #16
 80022be:	60f8      	str	r0, [r7, #12]
 80022c0:	4608      	mov	r0, r1
 80022c2:	4611      	mov	r1, r2
 80022c4:	461a      	mov	r2, r3
 80022c6:	4603      	mov	r3, r0
 80022c8:	72fb      	strb	r3, [r7, #11]
 80022ca:	460b      	mov	r3, r1
 80022cc:	813b      	strh	r3, [r7, #8]
 80022ce:	4613      	mov	r3, r2
 80022d0:	80fb      	strh	r3, [r7, #6]
  HAL_StatusTypeDef status = HAL_OK;
 80022d2:	2300      	movs	r3, #0
 80022d4:	75fb      	strb	r3, [r7, #23]

  status = HAL_I2C_Mem_Read(i2c_handler, Addr, (uint16_t)Reg, MemAddress, Buffer, Length, 1000);
 80022d6:	7afb      	ldrb	r3, [r7, #11]
 80022d8:	b299      	uxth	r1, r3
 80022da:	88f8      	ldrh	r0, [r7, #6]
 80022dc:	893a      	ldrh	r2, [r7, #8]
 80022de:	f44f 737a 	mov.w	r3, #1000	@ 0x3e8
 80022e2:	9302      	str	r3, [sp, #8]
 80022e4:	8cbb      	ldrh	r3, [r7, #36]	@ 0x24
 80022e6:	9301      	str	r3, [sp, #4]
 80022e8:	6a3b      	ldr	r3, [r7, #32]
 80022ea:	9300      	str	r3, [sp, #0]
 80022ec:	4603      	mov	r3, r0
 80022ee:	68f8      	ldr	r0, [r7, #12]
 80022f0:	f002 f9d0 	bl	8004694 <HAL_I2C_Mem_Read>
 80022f4:	4603      	mov	r3, r0
 80022f6:	75fb      	strb	r3, [r7, #23]

  /* Check the communication status */
  if(status != HAL_OK)
 80022f8:	7dfb      	ldrb	r3, [r7, #23]
 80022fa:	2b00      	cmp	r3, #0
 80022fc:	d004      	beq.n	8002308 <I2Cx_ReadMultiple+0x50>
  {
    /* I2C error occurred */
    I2Cx_Error(i2c_handler, Addr);
 80022fe:	7afb      	ldrb	r3, [r7, #11]
 8002300:	4619      	mov	r1, r3
 8002302:	68f8      	ldr	r0, [r7, #12]
 8002304:	f000 f832 	bl	800236c <I2Cx_Error>
  }
  return status;
 8002308:	7dfb      	ldrb	r3, [r7, #23]
}
 800230a:	4618      	mov	r0, r3
 800230c:	3718      	adds	r7, #24
 800230e:	46bd      	mov	sp, r7
 8002310:	bd80      	pop	{r7, pc}

08002312 <I2Cx_WriteMultiple>:
  * @param  Buffer  The target register value to be written
  * @param  Length  buffer size to be written
  * @retval HAL status
  */
static HAL_StatusTypeDef I2Cx_WriteMultiple(I2C_HandleTypeDef *i2c_handler, uint8_t Addr, uint16_t Reg, uint16_t MemAddress, uint8_t *Buffer, uint16_t Length)
{
 8002312:	b580      	push	{r7, lr}
 8002314:	b08a      	sub	sp, #40	@ 0x28
 8002316:	af04      	add	r7, sp, #16
 8002318:	60f8      	str	r0, [r7, #12]
 800231a:	4608      	mov	r0, r1
 800231c:	4611      	mov	r1, r2
 800231e:	461a      	mov	r2, r3
 8002320:	4603      	mov	r3, r0
 8002322:	72fb      	strb	r3, [r7, #11]
 8002324:	460b      	mov	r3, r1
 8002326:	813b      	strh	r3, [r7, #8]
 8002328:	4613      	mov	r3, r2
 800232a:	80fb      	strh	r3, [r7, #6]
  HAL_StatusTypeDef status = HAL_OK;
 800232c:	2300      	movs	r3, #0
 800232e:	75fb      	strb	r3, [r7, #23]

  status = HAL_I2C_Mem_Write(i2c_handler, Addr, (uint16_t)Reg, MemAddress, Buffer, Length, 1000);
 8002330:	7afb      	ldrb	r3, [r7, #11]
 8002332:	b299      	uxth	r1, r3
 8002334:	88f8      	ldrh	r0, [r7, #6]
 8002336:	893a      	ldrh	r2, [r7, #8]
 8002338:	f44f 737a 	mov.w	r3, #1000	@ 0x3e8
 800233c:	9302      	str	r3, [sp, #8]
 800233e:	8cbb      	ldrh	r3, [r7, #36]	@ 0x24
 8002340:	9301      	str	r3, [sp, #4]
 8002342:	6a3b      	ldr	r3, [r7, #32]
 8002344:	9300      	str	r3, [sp, #0]
 8002346:	4603      	mov	r3, r0
 8002348:	68f8      	ldr	r0, [r7, #12]
 800234a:	f002 f88f 	bl	800446c <HAL_I2C_Mem_Write>
 800234e:	4603      	mov	r3, r0
 8002350:	75fb      	strb	r3, [r7, #23]

  /* Check the communication status */
  if(status != HAL_OK)
 8002352:	7dfb      	ldrb	r3, [r7, #23]
 8002354:	2b00      	cmp	r3, #0
 8002356:	d004      	beq.n	8002362 <I2Cx_WriteMultiple+0x50>
  {
    /* Re-Initiaize the I2C Bus */
    I2Cx_Error(i2c_handler, Addr);
 8002358:	7afb      	ldrb	r3, [r7, #11]
 800235a:	4619      	mov	r1, r3
 800235c:	68f8      	ldr	r0, [r7, #12]
 800235e:	f000 f805 	bl	800236c <I2Cx_Error>
  }
  return status;
 8002362:	7dfb      	ldrb	r3, [r7, #23]
}
 8002364:	4618      	mov	r0, r3
 8002366:	3718      	adds	r7, #24
 8002368:	46bd      	mov	sp, r7
 800236a:	bd80      	pop	{r7, pc}

0800236c <I2Cx_Error>:
  * @param  i2c_handler  I2C handler
  * @param  Addr  I2C Address
  * @retval None
  */
static void I2Cx_Error(I2C_HandleTypeDef *i2c_handler, uint8_t Addr)
{
 800236c:	b580      	push	{r7, lr}
 800236e:	b082      	sub	sp, #8
 8002370:	af00      	add	r7, sp, #0
 8002372:	6078      	str	r0, [r7, #4]
 8002374:	460b      	mov	r3, r1
 8002376:	70fb      	strb	r3, [r7, #3]
  /* De-initialize the I2C communication bus */
  HAL_I2C_DeInit(i2c_handler);
 8002378:	6878      	ldr	r0, [r7, #4]
 800237a:	f002 f833 	bl	80043e4 <HAL_I2C_DeInit>
  
  /* Re-Initialize the I2C communication bus */
  I2Cx_Init(i2c_handler);
 800237e:	6878      	ldr	r0, [r7, #4]
 8002380:	f7ff ff6c 	bl	800225c <I2Cx_Init>
}
 8002384:	bf00      	nop
 8002386:	3708      	adds	r7, #8
 8002388:	46bd      	mov	sp, r7
 800238a:	bd80      	pop	{r7, pc}

0800238c <SENSOR_IO_Init>:
/**
  * @brief  Initializes Sensors low level.
  * @retval None
  */
void SENSOR_IO_Init(void)
{
 800238c:	b580      	push	{r7, lr}
 800238e:	af00      	add	r7, sp, #0
  I2Cx_Init(&hI2cHandler);
 8002390:	4802      	ldr	r0, [pc, #8]	@ (800239c <SENSOR_IO_Init+0x10>)
 8002392:	f7ff ff63 	bl	800225c <I2Cx_Init>
}
 8002396:	bf00      	nop
 8002398:	bd80      	pop	{r7, pc}
 800239a:	bf00      	nop
 800239c:	2000037c 	.word	0x2000037c

080023a0 <SENSOR_IO_Write>:
  * @param  Reg  Reg address
  * @param  Value  Data to be written
  * @retval None
  */
void SENSOR_IO_Write(uint8_t Addr, uint8_t Reg, uint8_t Value)
{
 80023a0:	b580      	push	{r7, lr}
 80023a2:	b084      	sub	sp, #16
 80023a4:	af02      	add	r7, sp, #8
 80023a6:	4603      	mov	r3, r0
 80023a8:	71fb      	strb	r3, [r7, #7]
 80023aa:	460b      	mov	r3, r1
 80023ac:	71bb      	strb	r3, [r7, #6]
 80023ae:	4613      	mov	r3, r2
 80023b0:	717b      	strb	r3, [r7, #5]
  I2Cx_WriteMultiple(&hI2cHandler, Addr, (uint16_t)Reg, I2C_MEMADD_SIZE_8BIT,(uint8_t*)&Value, 1);
 80023b2:	79bb      	ldrb	r3, [r7, #6]
 80023b4:	b29a      	uxth	r2, r3
 80023b6:	79f9      	ldrb	r1, [r7, #7]
 80023b8:	2301      	movs	r3, #1
 80023ba:	9301      	str	r3, [sp, #4]
 80023bc:	1d7b      	adds	r3, r7, #5
 80023be:	9300      	str	r3, [sp, #0]
 80023c0:	2301      	movs	r3, #1
 80023c2:	4803      	ldr	r0, [pc, #12]	@ (80023d0 <SENSOR_IO_Write+0x30>)
 80023c4:	f7ff ffa5 	bl	8002312 <I2Cx_WriteMultiple>
}
 80023c8:	bf00      	nop
 80023ca:	3708      	adds	r7, #8
 80023cc:	46bd      	mov	sp, r7
 80023ce:	bd80      	pop	{r7, pc}
 80023d0:	2000037c 	.word	0x2000037c

080023d4 <SENSOR_IO_Read>:
  * @param  Addr  I2C address
  * @param  Reg  Reg address
  * @retval Data to be read
  */
uint8_t SENSOR_IO_Read(uint8_t Addr, uint8_t Reg)
{
 80023d4:	b580      	push	{r7, lr}
 80023d6:	b086      	sub	sp, #24
 80023d8:	af02      	add	r7, sp, #8
 80023da:	4603      	mov	r3, r0
 80023dc:	460a      	mov	r2, r1
 80023de:	71fb      	strb	r3, [r7, #7]
 80023e0:	4613      	mov	r3, r2
 80023e2:	71bb      	strb	r3, [r7, #6]
  uint8_t read_value = 0;
 80023e4:	2300      	movs	r3, #0
 80023e6:	73fb      	strb	r3, [r7, #15]

  I2Cx_ReadMultiple(&hI2cHandler, Addr, Reg, I2C_MEMADD_SIZE_8BIT, (uint8_t*)&read_value, 1);
 80023e8:	79bb      	ldrb	r3, [r7, #6]
 80023ea:	b29a      	uxth	r2, r3
 80023ec:	79f9      	ldrb	r1, [r7, #7]
 80023ee:	2301      	movs	r3, #1
 80023f0:	9301      	str	r3, [sp, #4]
 80023f2:	f107 030f 	add.w	r3, r7, #15
 80023f6:	9300      	str	r3, [sp, #0]
 80023f8:	2301      	movs	r3, #1
 80023fa:	4804      	ldr	r0, [pc, #16]	@ (800240c <SENSOR_IO_Read+0x38>)
 80023fc:	f7ff ff5c 	bl	80022b8 <I2Cx_ReadMultiple>

  return read_value;
 8002400:	7bfb      	ldrb	r3, [r7, #15]
}
 8002402:	4618      	mov	r0, r3
 8002404:	3710      	adds	r7, #16
 8002406:	46bd      	mov	sp, r7
 8002408:	bd80      	pop	{r7, pc}
 800240a:	bf00      	nop
 800240c:	2000037c 	.word	0x2000037c

08002410 <SENSOR_IO_ReadMultiple>:
  * @param  Buffer  Pointer to data buffer
  * @param  Length  Length of the data
  * @retval HAL status
  */
uint16_t SENSOR_IO_ReadMultiple(uint8_t Addr, uint8_t Reg, uint8_t *Buffer, uint16_t Length)
{
 8002410:	b580      	push	{r7, lr}
 8002412:	b084      	sub	sp, #16
 8002414:	af02      	add	r7, sp, #8
 8002416:	603a      	str	r2, [r7, #0]
 8002418:	461a      	mov	r2, r3
 800241a:	4603      	mov	r3, r0
 800241c:	71fb      	strb	r3, [r7, #7]
 800241e:	460b      	mov	r3, r1
 8002420:	71bb      	strb	r3, [r7, #6]
 8002422:	4613      	mov	r3, r2
 8002424:	80bb      	strh	r3, [r7, #4]
 return I2Cx_ReadMultiple(&hI2cHandler, Addr, (uint16_t)Reg, I2C_MEMADD_SIZE_8BIT, Buffer, Length);
 8002426:	79bb      	ldrb	r3, [r7, #6]
 8002428:	b29a      	uxth	r2, r3
 800242a:	79f9      	ldrb	r1, [r7, #7]
 800242c:	88bb      	ldrh	r3, [r7, #4]
 800242e:	9301      	str	r3, [sp, #4]
 8002430:	683b      	ldr	r3, [r7, #0]
 8002432:	9300      	str	r3, [sp, #0]
 8002434:	2301      	movs	r3, #1
 8002436:	4804      	ldr	r0, [pc, #16]	@ (8002448 <SENSOR_IO_ReadMultiple+0x38>)
 8002438:	f7ff ff3e 	bl	80022b8 <I2Cx_ReadMultiple>
 800243c:	4603      	mov	r3, r0
}
 800243e:	4618      	mov	r0, r3
 8002440:	3708      	adds	r7, #8
 8002442:	46bd      	mov	sp, r7
 8002444:	bd80      	pop	{r7, pc}
 8002446:	bf00      	nop
 8002448:	2000037c 	.word	0x2000037c

0800244c <BSP_ACCELERO_Init>:
/**
  * @brief  Initialize the ACCELERO.
  * @retval ACCELERO_OK or ACCELERO_ERROR
  */
ACCELERO_StatusTypeDef BSP_ACCELERO_Init(void)
{  
 800244c:	b580      	push	{r7, lr}
 800244e:	b084      	sub	sp, #16
 8002450:	af00      	add	r7, sp, #0
  ACCELERO_StatusTypeDef ret = ACCELERO_OK;
 8002452:	2300      	movs	r3, #0
 8002454:	73fb      	strb	r3, [r7, #15]
  uint16_t ctrl = 0x0000;
 8002456:	2300      	movs	r3, #0
 8002458:	81bb      	strh	r3, [r7, #12]
  ACCELERO_InitTypeDef LSM6DSL_InitStructure;

  if(Lsm6dslAccDrv.ReadID() != LSM6DSL_ACC_GYRO_WHO_AM_I)
 800245a:	4b1a      	ldr	r3, [pc, #104]	@ (80024c4 <BSP_ACCELERO_Init+0x78>)
 800245c:	689b      	ldr	r3, [r3, #8]
 800245e:	4798      	blx	r3
 8002460:	4603      	mov	r3, r0
 8002462:	2b6a      	cmp	r3, #106	@ 0x6a
 8002464:	d002      	beq.n	800246c <BSP_ACCELERO_Init+0x20>
  {
    ret = ACCELERO_ERROR;
 8002466:	2301      	movs	r3, #1
 8002468:	73fb      	strb	r3, [r7, #15]
 800246a:	e025      	b.n	80024b8 <BSP_ACCELERO_Init+0x6c>
  }
  else
  {
    /* Initialize the ACCELERO accelerometer driver structure */
    AccelerometerDrv = &Lsm6dslAccDrv;
 800246c:	4b16      	ldr	r3, [pc, #88]	@ (80024c8 <BSP_ACCELERO_Init+0x7c>)
 800246e:	4a15      	ldr	r2, [pc, #84]	@ (80024c4 <BSP_ACCELERO_Init+0x78>)
 8002470:	601a      	str	r2, [r3, #0]
  
    /* MEMS configuration ------------------------------------------------------*/
    /* Fill the ACCELERO accelerometer structure */
    LSM6DSL_InitStructure.AccOutput_DataRate = LSM6DSL_ODR_52Hz;
 8002472:	2330      	movs	r3, #48	@ 0x30
 8002474:	717b      	strb	r3, [r7, #5]
    LSM6DSL_InitStructure.Axes_Enable = 0;
 8002476:	2300      	movs	r3, #0
 8002478:	71bb      	strb	r3, [r7, #6]
    LSM6DSL_InitStructure.AccFull_Scale = LSM6DSL_ACC_FULLSCALE_2G;
 800247a:	2300      	movs	r3, #0
 800247c:	72bb      	strb	r3, [r7, #10]
    LSM6DSL_InitStructure.BlockData_Update = LSM6DSL_BDU_BLOCK_UPDATE;
 800247e:	2340      	movs	r3, #64	@ 0x40
 8002480:	723b      	strb	r3, [r7, #8]
    LSM6DSL_InitStructure.High_Resolution = 0;
 8002482:	2300      	movs	r3, #0
 8002484:	71fb      	strb	r3, [r7, #7]
    LSM6DSL_InitStructure.Communication_Mode = 0;
 8002486:	2300      	movs	r3, #0
 8002488:	72fb      	strb	r3, [r7, #11]
        
    /* Configure MEMS: data rate, full scale  */
    ctrl =  (LSM6DSL_InitStructure.AccOutput_DataRate | LSM6DSL_InitStructure.AccFull_Scale);
 800248a:	797a      	ldrb	r2, [r7, #5]
 800248c:	7abb      	ldrb	r3, [r7, #10]
 800248e:	4313      	orrs	r3, r2
 8002490:	b2db      	uxtb	r3, r3
 8002492:	81bb      	strh	r3, [r7, #12]
    
    /* Configure MEMS: BDU and Auto-increment for multi read/write */
    ctrl |= ((LSM6DSL_InitStructure.BlockData_Update | LSM6DSL_ACC_GYRO_IF_INC_ENABLED) << 8);
 8002494:	7a3b      	ldrb	r3, [r7, #8]
 8002496:	f043 0304 	orr.w	r3, r3, #4
 800249a:	b2db      	uxtb	r3, r3
 800249c:	b21b      	sxth	r3, r3
 800249e:	021b      	lsls	r3, r3, #8
 80024a0:	b21a      	sxth	r2, r3
 80024a2:	f9b7 300c 	ldrsh.w	r3, [r7, #12]
 80024a6:	4313      	orrs	r3, r2
 80024a8:	b21b      	sxth	r3, r3
 80024aa:	81bb      	strh	r3, [r7, #12]

    /* Configure the ACCELERO accelerometer main parameters */
    AccelerometerDrv->Init(ctrl);
 80024ac:	4b06      	ldr	r3, [pc, #24]	@ (80024c8 <BSP_ACCELERO_Init+0x7c>)
 80024ae:	681b      	ldr	r3, [r3, #0]
 80024b0:	681b      	ldr	r3, [r3, #0]
 80024b2:	89ba      	ldrh	r2, [r7, #12]
 80024b4:	4610      	mov	r0, r2
 80024b6:	4798      	blx	r3
  }  

  return ret;
 80024b8:	7bfb      	ldrb	r3, [r7, #15]
}
 80024ba:	4618      	mov	r0, r3
 80024bc:	3710      	adds	r7, #16
 80024be:	46bd      	mov	sp, r7
 80024c0:	bd80      	pop	{r7, pc}
 80024c2:	bf00      	nop
 80024c4:	20000010 	.word	0x20000010
 80024c8:	200003d0 	.word	0x200003d0

080024cc <BSP_ACCELERO_AccGetXYZ>:
  * @param  pDataXYZ Pointer on 3 angular accelerations table with  
  *                  pDataXYZ[0] = X axis, pDataXYZ[1] = Y axis, pDataXYZ[2] = Z axis
  * @retval None
  */
void BSP_ACCELERO_AccGetXYZ(int16_t *pDataXYZ)
{
 80024cc:	b580      	push	{r7, lr}
 80024ce:	b082      	sub	sp, #8
 80024d0:	af00      	add	r7, sp, #0
 80024d2:	6078      	str	r0, [r7, #4]
  if(AccelerometerDrv != NULL)
 80024d4:	4b08      	ldr	r3, [pc, #32]	@ (80024f8 <BSP_ACCELERO_AccGetXYZ+0x2c>)
 80024d6:	681b      	ldr	r3, [r3, #0]
 80024d8:	2b00      	cmp	r3, #0
 80024da:	d009      	beq.n	80024f0 <BSP_ACCELERO_AccGetXYZ+0x24>
  {
    if(AccelerometerDrv->GetXYZ != NULL)
 80024dc:	4b06      	ldr	r3, [pc, #24]	@ (80024f8 <BSP_ACCELERO_AccGetXYZ+0x2c>)
 80024de:	681b      	ldr	r3, [r3, #0]
 80024e0:	6b1b      	ldr	r3, [r3, #48]	@ 0x30
 80024e2:	2b00      	cmp	r3, #0
 80024e4:	d004      	beq.n	80024f0 <BSP_ACCELERO_AccGetXYZ+0x24>
    {   
      AccelerometerDrv->GetXYZ(pDataXYZ);
 80024e6:	4b04      	ldr	r3, [pc, #16]	@ (80024f8 <BSP_ACCELERO_AccGetXYZ+0x2c>)
 80024e8:	681b      	ldr	r3, [r3, #0]
 80024ea:	6b1b      	ldr	r3, [r3, #48]	@ 0x30
 80024ec:	6878      	ldr	r0, [r7, #4]
 80024ee:	4798      	blx	r3
    }
  }
}
 80024f0:	bf00      	nop
 80024f2:	3708      	adds	r7, #8
 80024f4:	46bd      	mov	sp, r7
 80024f6:	bd80      	pop	{r7, pc}
 80024f8:	200003d0 	.word	0x200003d0

080024fc <BSP_GYRO_Init>:
/**
  * @brief  Initialize Gyroscope.
  * @retval GYRO_OK or GYRO_ERROR
  */
uint8_t BSP_GYRO_Init(void)
{  
 80024fc:	b580      	push	{r7, lr}
 80024fe:	b084      	sub	sp, #16
 8002500:	af00      	add	r7, sp, #0
  uint8_t ret = GYRO_ERROR;
 8002502:	2301      	movs	r3, #1
 8002504:	73fb      	strb	r3, [r7, #15]
  uint16_t ctrl = 0x0000;
 8002506:	2300      	movs	r3, #0
 8002508:	81bb      	strh	r3, [r7, #12]
  GYRO_InitTypeDef LSM6DSL_InitStructure;

  if(Lsm6dslGyroDrv.ReadID() != LSM6DSL_ACC_GYRO_WHO_AM_I)
 800250a:	4b1c      	ldr	r3, [pc, #112]	@ (800257c <BSP_GYRO_Init+0x80>)
 800250c:	689b      	ldr	r3, [r3, #8]
 800250e:	4798      	blx	r3
 8002510:	4603      	mov	r3, r0
 8002512:	2b6a      	cmp	r3, #106	@ 0x6a
 8002514:	d002      	beq.n	800251c <BSP_GYRO_Init+0x20>
  {
    ret = GYRO_ERROR;
 8002516:	2301      	movs	r3, #1
 8002518:	73fb      	strb	r3, [r7, #15]
 800251a:	e029      	b.n	8002570 <BSP_GYRO_Init+0x74>
  }
  else
  {
    /* Initialize the gyroscope driver structure */
    GyroscopeDrv = &Lsm6dslGyroDrv;
 800251c:	4b18      	ldr	r3, [pc, #96]	@ (8002580 <BSP_GYRO_Init+0x84>)
 800251e:	4a17      	ldr	r2, [pc, #92]	@ (800257c <BSP_GYRO_Init+0x80>)
 8002520:	601a      	str	r2, [r3, #0]

    /* Configure Mems : data rate, power mode, full scale and axes */
    LSM6DSL_InitStructure.Power_Mode = 0;
 8002522:	2300      	movs	r3, #0
 8002524:	713b      	strb	r3, [r7, #4]
    LSM6DSL_InitStructure.Output_DataRate = LSM6DSL_ODR_52Hz;
 8002526:	2330      	movs	r3, #48	@ 0x30
 8002528:	717b      	strb	r3, [r7, #5]
    LSM6DSL_InitStructure.Axes_Enable = 0;
 800252a:	2300      	movs	r3, #0
 800252c:	71bb      	strb	r3, [r7, #6]
    LSM6DSL_InitStructure.Band_Width = 0;
 800252e:	2300      	movs	r3, #0
 8002530:	71fb      	strb	r3, [r7, #7]
    LSM6DSL_InitStructure.BlockData_Update = LSM6DSL_BDU_BLOCK_UPDATE;
 8002532:	2340      	movs	r3, #64	@ 0x40
 8002534:	723b      	strb	r3, [r7, #8]
    LSM6DSL_InitStructure.Endianness = 0;
 8002536:	2300      	movs	r3, #0
 8002538:	727b      	strb	r3, [r7, #9]
    LSM6DSL_InitStructure.Full_Scale = LSM6DSL_GYRO_FS_2000; 
 800253a:	230c      	movs	r3, #12
 800253c:	72bb      	strb	r3, [r7, #10]

    /* Configure MEMS: data rate, full scale  */
    ctrl = (LSM6DSL_InitStructure.Full_Scale | LSM6DSL_InitStructure.Output_DataRate);
 800253e:	7aba      	ldrb	r2, [r7, #10]
 8002540:	797b      	ldrb	r3, [r7, #5]
 8002542:	4313      	orrs	r3, r2
 8002544:	b2db      	uxtb	r3, r3
 8002546:	81bb      	strh	r3, [r7, #12]

    /* Configure MEMS: BDU and Auto-increment for multi read/write */
    ctrl |= ((LSM6DSL_InitStructure.BlockData_Update | LSM6DSL_ACC_GYRO_IF_INC_ENABLED) << 8);
 8002548:	7a3b      	ldrb	r3, [r7, #8]
 800254a:	f043 0304 	orr.w	r3, r3, #4
 800254e:	b2db      	uxtb	r3, r3
 8002550:	b21b      	sxth	r3, r3
 8002552:	021b      	lsls	r3, r3, #8
 8002554:	b21a      	sxth	r2, r3
 8002556:	f9b7 300c 	ldrsh.w	r3, [r7, #12]
 800255a:	4313      	orrs	r3, r2
 800255c:	b21b      	sxth	r3, r3
 800255e:	81bb      	strh	r3, [r7, #12]

    /* Initialize component */
    GyroscopeDrv->Init(ctrl);
 8002560:	4b07      	ldr	r3, [pc, #28]	@ (8002580 <BSP_GYRO_Init+0x84>)
 8002562:	681b      	ldr	r3, [r3, #0]
 8002564:	681b      	ldr	r3, [r3, #0]
 8002566:	89ba      	ldrh	r2, [r7, #12]
 8002568:	4610      	mov	r0, r2
 800256a:	4798      	blx	r3
    
    ret = GYRO_OK;
 800256c:	2300      	movs	r3, #0
 800256e:	73fb      	strb	r3, [r7, #15]
  }
  
  return ret;
 8002570:	7bfb      	ldrb	r3, [r7, #15]
}
 8002572:	4618      	mov	r0, r3
 8002574:	3710      	adds	r7, #16
 8002576:	46bd      	mov	sp, r7
 8002578:	bd80      	pop	{r7, pc}
 800257a:	bf00      	nop
 800257c:	20000044 	.word	0x20000044
 8002580:	200003d4 	.word	0x200003d4

08002584 <BSP_GYRO_GetXYZ>:
/**
  * @brief  Get XYZ angular acceleration from the Gyroscope.
  * @param  pfData: pointer on floating array         
  */
void BSP_GYRO_GetXYZ(float* pfData)
{
 8002584:	b580      	push	{r7, lr}
 8002586:	b082      	sub	sp, #8
 8002588:	af00      	add	r7, sp, #0
 800258a:	6078      	str	r0, [r7, #4]
  if(GyroscopeDrv != NULL)
 800258c:	4b08      	ldr	r3, [pc, #32]	@ (80025b0 <BSP_GYRO_GetXYZ+0x2c>)
 800258e:	681b      	ldr	r3, [r3, #0]
 8002590:	2b00      	cmp	r3, #0
 8002592:	d009      	beq.n	80025a8 <BSP_GYRO_GetXYZ+0x24>
  {
    if(GyroscopeDrv->GetXYZ!= NULL)
 8002594:	4b06      	ldr	r3, [pc, #24]	@ (80025b0 <BSP_GYRO_GetXYZ+0x2c>)
 8002596:	681b      	ldr	r3, [r3, #0]
 8002598:	6b1b      	ldr	r3, [r3, #48]	@ 0x30
 800259a:	2b00      	cmp	r3, #0
 800259c:	d004      	beq.n	80025a8 <BSP_GYRO_GetXYZ+0x24>
    {
      GyroscopeDrv->GetXYZ(pfData);
 800259e:	4b04      	ldr	r3, [pc, #16]	@ (80025b0 <BSP_GYRO_GetXYZ+0x2c>)
 80025a0:	681b      	ldr	r3, [r3, #0]
 80025a2:	6b1b      	ldr	r3, [r3, #48]	@ 0x30
 80025a4:	6878      	ldr	r0, [r7, #4]
 80025a6:	4798      	blx	r3
    }
  }
}
 80025a8:	bf00      	nop
 80025aa:	3708      	adds	r7, #8
 80025ac:	46bd      	mov	sp, r7
 80025ae:	bd80      	pop	{r7, pc}
 80025b0:	200003d4 	.word	0x200003d4

080025b4 <LSM6DSL_AccInit>:
/**
  * @brief  Set LSM6DSL Accelerometer Initialization.
  * @param  InitStruct: Init parameters
  */
void LSM6DSL_AccInit(uint16_t InitStruct)
{  
 80025b4:	b580      	push	{r7, lr}
 80025b6:	b084      	sub	sp, #16
 80025b8:	af00      	add	r7, sp, #0
 80025ba:	4603      	mov	r3, r0
 80025bc:	80fb      	strh	r3, [r7, #6]
  uint8_t ctrl = 0x00;
 80025be:	2300      	movs	r3, #0
 80025c0:	73fb      	strb	r3, [r7, #15]
  uint8_t tmp;

  /* Read CTRL1_XL */
  tmp = SENSOR_IO_Read(LSM6DSL_ACC_GYRO_I2C_ADDRESS_LOW, LSM6DSL_ACC_GYRO_CTRL1_XL);
 80025c2:	2110      	movs	r1, #16
 80025c4:	20d4      	movs	r0, #212	@ 0xd4
 80025c6:	f7ff ff05 	bl	80023d4 <SENSOR_IO_Read>
 80025ca:	4603      	mov	r3, r0
 80025cc:	73bb      	strb	r3, [r7, #14]

  /* Write value to ACC MEMS CTRL1_XL register: FS and Data Rate */
  ctrl = (uint8_t) InitStruct;
 80025ce:	88fb      	ldrh	r3, [r7, #6]
 80025d0:	73fb      	strb	r3, [r7, #15]
  tmp &= ~(0xFC);
 80025d2:	7bbb      	ldrb	r3, [r7, #14]
 80025d4:	f003 0303 	and.w	r3, r3, #3
 80025d8:	73bb      	strb	r3, [r7, #14]
  tmp |= ctrl;
 80025da:	7bba      	ldrb	r2, [r7, #14]
 80025dc:	7bfb      	ldrb	r3, [r7, #15]
 80025de:	4313      	orrs	r3, r2
 80025e0:	73bb      	strb	r3, [r7, #14]
  SENSOR_IO_Write(LSM6DSL_ACC_GYRO_I2C_ADDRESS_LOW, LSM6DSL_ACC_GYRO_CTRL1_XL, tmp);
 80025e2:	7bbb      	ldrb	r3, [r7, #14]
 80025e4:	461a      	mov	r2, r3
 80025e6:	2110      	movs	r1, #16
 80025e8:	20d4      	movs	r0, #212	@ 0xd4
 80025ea:	f7ff fed9 	bl	80023a0 <SENSOR_IO_Write>

  /* Read CTRL3_C */
  tmp = SENSOR_IO_Read(LSM6DSL_ACC_GYRO_I2C_ADDRESS_LOW, LSM6DSL_ACC_GYRO_CTRL3_C);
 80025ee:	2112      	movs	r1, #18
 80025f0:	20d4      	movs	r0, #212	@ 0xd4
 80025f2:	f7ff feef 	bl	80023d4 <SENSOR_IO_Read>
 80025f6:	4603      	mov	r3, r0
 80025f8:	73bb      	strb	r3, [r7, #14]

  /* Write value to ACC MEMS CTRL3_C register: BDU and Auto-increment */
  ctrl = ((uint8_t) (InitStruct >> 8));
 80025fa:	88fb      	ldrh	r3, [r7, #6]
 80025fc:	0a1b      	lsrs	r3, r3, #8
 80025fe:	b29b      	uxth	r3, r3
 8002600:	73fb      	strb	r3, [r7, #15]
  tmp &= ~(0x44);
 8002602:	7bbb      	ldrb	r3, [r7, #14]
 8002604:	f023 0344 	bic.w	r3, r3, #68	@ 0x44
 8002608:	73bb      	strb	r3, [r7, #14]
  tmp |= ctrl; 
 800260a:	7bba      	ldrb	r2, [r7, #14]
 800260c:	7bfb      	ldrb	r3, [r7, #15]
 800260e:	4313      	orrs	r3, r2
 8002610:	73bb      	strb	r3, [r7, #14]
  SENSOR_IO_Write(LSM6DSL_ACC_GYRO_I2C_ADDRESS_LOW, LSM6DSL_ACC_GYRO_CTRL3_C, tmp);
 8002612:	7bbb      	ldrb	r3, [r7, #14]
 8002614:	461a      	mov	r2, r3
 8002616:	2112      	movs	r1, #18
 8002618:	20d4      	movs	r0, #212	@ 0xd4
 800261a:	f7ff fec1 	bl	80023a0 <SENSOR_IO_Write>
}
 800261e:	bf00      	nop
 8002620:	3710      	adds	r7, #16
 8002622:	46bd      	mov	sp, r7
 8002624:	bd80      	pop	{r7, pc}

08002626 <LSM6DSL_AccDeInit>:

/**
  * @brief  LSM6DSL Accelerometer De-initialization.
  */
void LSM6DSL_AccDeInit(void)
{
 8002626:	b580      	push	{r7, lr}
 8002628:	b082      	sub	sp, #8
 800262a:	af00      	add	r7, sp, #0
  uint8_t ctrl = 0x00;
 800262c:	2300      	movs	r3, #0
 800262e:	71fb      	strb	r3, [r7, #7]
  
  /* Read control register 1 value */
  ctrl = SENSOR_IO_Read(LSM6DSL_ACC_GYRO_I2C_ADDRESS_LOW, LSM6DSL_ACC_GYRO_CTRL1_XL);
 8002630:	2110      	movs	r1, #16
 8002632:	20d4      	movs	r0, #212	@ 0xd4
 8002634:	f7ff fece 	bl	80023d4 <SENSOR_IO_Read>
 8002638:	4603      	mov	r3, r0
 800263a:	71fb      	strb	r3, [r7, #7]

  /* Clear ODR bits */
  ctrl &= ~(LSM6DSL_ODR_BITPOSITION);
 800263c:	79fb      	ldrb	r3, [r7, #7]
 800263e:	f003 030f 	and.w	r3, r3, #15
 8002642:	71fb      	strb	r3, [r7, #7]

  /* Set Power down */
  ctrl |= LSM6DSL_ODR_POWER_DOWN;
  
  /* write back control register */
  SENSOR_IO_Write(LSM6DSL_ACC_GYRO_I2C_ADDRESS_LOW, LSM6DSL_ACC_GYRO_CTRL1_XL, ctrl);
 8002644:	79fb      	ldrb	r3, [r7, #7]
 8002646:	461a      	mov	r2, r3
 8002648:	2110      	movs	r1, #16
 800264a:	20d4      	movs	r0, #212	@ 0xd4
 800264c:	f7ff fea8 	bl	80023a0 <SENSOR_IO_Write>
}
 8002650:	bf00      	nop
 8002652:	3708      	adds	r7, #8
 8002654:	46bd      	mov	sp, r7
 8002656:	bd80      	pop	{r7, pc}

08002658 <LSM6DSL_AccReadID>:
/**
  * @brief  Read LSM6DSL ID.
  * @retval ID 
  */
uint8_t LSM6DSL_AccReadID(void)
{  
 8002658:	b580      	push	{r7, lr}
 800265a:	af00      	add	r7, sp, #0
  /* IO interface initialization */
  SENSOR_IO_Init();
 800265c:	f7ff fe96 	bl	800238c <SENSOR_IO_Init>
  /* Read value at Who am I register address */
  return (SENSOR_IO_Read(LSM6DSL_ACC_GYRO_I2C_ADDRESS_LOW, LSM6DSL_ACC_GYRO_WHO_AM_I_REG));
 8002660:	210f      	movs	r1, #15
 8002662:	20d4      	movs	r0, #212	@ 0xd4
 8002664:	f7ff feb6 	bl	80023d4 <SENSOR_IO_Read>
 8002668:	4603      	mov	r3, r0
}
 800266a:	4618      	mov	r0, r3
 800266c:	bd80      	pop	{r7, pc}

0800266e <LSM6DSL_AccLowPower>:
/**
  * @brief  Set/Unset Accelerometer in low power mode.
  * @param  status 0 means disable Low Power Mode, otherwise Low Power Mode is enabled
  */
void LSM6DSL_AccLowPower(uint16_t status)
{
 800266e:	b580      	push	{r7, lr}
 8002670:	b084      	sub	sp, #16
 8002672:	af00      	add	r7, sp, #0
 8002674:	4603      	mov	r3, r0
 8002676:	80fb      	strh	r3, [r7, #6]
  uint8_t ctrl = 0x00;
 8002678:	2300      	movs	r3, #0
 800267a:	73fb      	strb	r3, [r7, #15]
  
  /* Read CTRL6_C value */
  ctrl = SENSOR_IO_Read(LSM6DSL_ACC_GYRO_I2C_ADDRESS_LOW, LSM6DSL_ACC_GYRO_CTRL6_C);
 800267c:	2115      	movs	r1, #21
 800267e:	20d4      	movs	r0, #212	@ 0xd4
 8002680:	f7ff fea8 	bl	80023d4 <SENSOR_IO_Read>
 8002684:	4603      	mov	r3, r0
 8002686:	73fb      	strb	r3, [r7, #15]

  /* Clear Low Power Mode bit */
  ctrl &= ~(0x10);
 8002688:	7bfb      	ldrb	r3, [r7, #15]
 800268a:	f023 0310 	bic.w	r3, r3, #16
 800268e:	73fb      	strb	r3, [r7, #15]

  /* Set Low Power Mode */
  if(status)
 8002690:	88fb      	ldrh	r3, [r7, #6]
 8002692:	2b00      	cmp	r3, #0
 8002694:	d003      	beq.n	800269e <LSM6DSL_AccLowPower+0x30>
  {
    ctrl |= LSM6DSL_ACC_GYRO_LP_XL_ENABLED;
 8002696:	7bfb      	ldrb	r3, [r7, #15]
 8002698:	f043 0310 	orr.w	r3, r3, #16
 800269c:	73fb      	strb	r3, [r7, #15]
  {
    ctrl |= LSM6DSL_ACC_GYRO_LP_XL_DISABLED;
  }
  
  /* write back control register */
  SENSOR_IO_Write(LSM6DSL_ACC_GYRO_I2C_ADDRESS_LOW, LSM6DSL_ACC_GYRO_CTRL6_C, ctrl);
 800269e:	7bfb      	ldrb	r3, [r7, #15]
 80026a0:	461a      	mov	r2, r3
 80026a2:	2115      	movs	r1, #21
 80026a4:	20d4      	movs	r0, #212	@ 0xd4
 80026a6:	f7ff fe7b 	bl	80023a0 <SENSOR_IO_Write>
}
 80026aa:	bf00      	nop
 80026ac:	3710      	adds	r7, #16
 80026ae:	46bd      	mov	sp, r7
 80026b0:	bd80      	pop	{r7, pc}
	...

080026b4 <LSM6DSL_AccReadXYZ>:
/**
  * @brief  Read X, Y & Z Acceleration values 
  * @param  pData: Data out pointer
  */
void LSM6DSL_AccReadXYZ(int16_t* pData)
{
 80026b4:	b580      	push	{r7, lr}
 80026b6:	b088      	sub	sp, #32
 80026b8:	af00      	add	r7, sp, #0
 80026ba:	6078      	str	r0, [r7, #4]
  int16_t pnRawData[3];
  uint8_t ctrlx= 0;
 80026bc:	2300      	movs	r3, #0
 80026be:	75fb      	strb	r3, [r7, #23]
  uint8_t buffer[6];
  uint8_t i = 0;
 80026c0:	2300      	movs	r3, #0
 80026c2:	77fb      	strb	r3, [r7, #31]
  float sensitivity = 0;
 80026c4:	f04f 0300 	mov.w	r3, #0
 80026c8:	61bb      	str	r3, [r7, #24]
  
  /* Read the acceleration control register content */
  ctrlx = SENSOR_IO_Read(LSM6DSL_ACC_GYRO_I2C_ADDRESS_LOW, LSM6DSL_ACC_GYRO_CTRL1_XL);
 80026ca:	2110      	movs	r1, #16
 80026cc:	20d4      	movs	r0, #212	@ 0xd4
 80026ce:	f7ff fe81 	bl	80023d4 <SENSOR_IO_Read>
 80026d2:	4603      	mov	r3, r0
 80026d4:	75fb      	strb	r3, [r7, #23]
  
  /* Read output register X, Y & Z acceleration */
  SENSOR_IO_ReadMultiple(LSM6DSL_ACC_GYRO_I2C_ADDRESS_LOW, LSM6DSL_ACC_GYRO_OUTX_L_XL, buffer, 6);
 80026d6:	f107 0208 	add.w	r2, r7, #8
 80026da:	2306      	movs	r3, #6
 80026dc:	2128      	movs	r1, #40	@ 0x28
 80026de:	20d4      	movs	r0, #212	@ 0xd4
 80026e0:	f7ff fe96 	bl	8002410 <SENSOR_IO_ReadMultiple>
  
  for(i=0; i<3; i++)
 80026e4:	2300      	movs	r3, #0
 80026e6:	77fb      	strb	r3, [r7, #31]
 80026e8:	e01a      	b.n	8002720 <LSM6DSL_AccReadXYZ+0x6c>
  {
    pnRawData[i]=((((uint16_t)buffer[2*i+1]) << 8) + (uint16_t)buffer[2*i]);
 80026ea:	7ffb      	ldrb	r3, [r7, #31]
 80026ec:	005b      	lsls	r3, r3, #1
 80026ee:	3301      	adds	r3, #1
 80026f0:	3320      	adds	r3, #32
 80026f2:	443b      	add	r3, r7
 80026f4:	f813 3c18 	ldrb.w	r3, [r3, #-24]
 80026f8:	021b      	lsls	r3, r3, #8
 80026fa:	b29b      	uxth	r3, r3
 80026fc:	7ffa      	ldrb	r2, [r7, #31]
 80026fe:	0052      	lsls	r2, r2, #1
 8002700:	3220      	adds	r2, #32
 8002702:	443a      	add	r2, r7
 8002704:	f812 2c18 	ldrb.w	r2, [r2, #-24]
 8002708:	4413      	add	r3, r2
 800270a:	b29a      	uxth	r2, r3
 800270c:	7ffb      	ldrb	r3, [r7, #31]
 800270e:	b212      	sxth	r2, r2
 8002710:	005b      	lsls	r3, r3, #1
 8002712:	3320      	adds	r3, #32
 8002714:	443b      	add	r3, r7
 8002716:	f823 2c10 	strh.w	r2, [r3, #-16]
  for(i=0; i<3; i++)
 800271a:	7ffb      	ldrb	r3, [r7, #31]
 800271c:	3301      	adds	r3, #1
 800271e:	77fb      	strb	r3, [r7, #31]
 8002720:	7ffb      	ldrb	r3, [r7, #31]
 8002722:	2b02      	cmp	r3, #2
 8002724:	d9e1      	bls.n	80026ea <LSM6DSL_AccReadXYZ+0x36>
  }
  
  /* Normal mode */
  /* Switch the sensitivity value set in the CRTL1_XL */
  switch(ctrlx & 0x0C)
 8002726:	7dfb      	ldrb	r3, [r7, #23]
 8002728:	f003 030c 	and.w	r3, r3, #12
 800272c:	2b0c      	cmp	r3, #12
 800272e:	d829      	bhi.n	8002784 <LSM6DSL_AccReadXYZ+0xd0>
 8002730:	a201      	add	r2, pc, #4	@ (adr r2, 8002738 <LSM6DSL_AccReadXYZ+0x84>)
 8002732:	f852 f023 	ldr.w	pc, [r2, r3, lsl #2]
 8002736:	bf00      	nop
 8002738:	0800276d 	.word	0x0800276d
 800273c:	08002785 	.word	0x08002785
 8002740:	08002785 	.word	0x08002785
 8002744:	08002785 	.word	0x08002785
 8002748:	0800277f 	.word	0x0800277f
 800274c:	08002785 	.word	0x08002785
 8002750:	08002785 	.word	0x08002785
 8002754:	08002785 	.word	0x08002785
 8002758:	08002773 	.word	0x08002773
 800275c:	08002785 	.word	0x08002785
 8002760:	08002785 	.word	0x08002785
 8002764:	08002785 	.word	0x08002785
 8002768:	08002779 	.word	0x08002779
  {
  case LSM6DSL_ACC_FULLSCALE_2G:
    sensitivity = LSM6DSL_ACC_SENSITIVITY_2G;
 800276c:	4b18      	ldr	r3, [pc, #96]	@ (80027d0 <LSM6DSL_AccReadXYZ+0x11c>)
 800276e:	61bb      	str	r3, [r7, #24]
    break;
 8002770:	e008      	b.n	8002784 <LSM6DSL_AccReadXYZ+0xd0>
  case LSM6DSL_ACC_FULLSCALE_4G:
    sensitivity = LSM6DSL_ACC_SENSITIVITY_4G;
 8002772:	4b18      	ldr	r3, [pc, #96]	@ (80027d4 <LSM6DSL_AccReadXYZ+0x120>)
 8002774:	61bb      	str	r3, [r7, #24]
    break;
 8002776:	e005      	b.n	8002784 <LSM6DSL_AccReadXYZ+0xd0>
  case LSM6DSL_ACC_FULLSCALE_8G:
    sensitivity = LSM6DSL_ACC_SENSITIVITY_8G;
 8002778:	4b17      	ldr	r3, [pc, #92]	@ (80027d8 <LSM6DSL_AccReadXYZ+0x124>)
 800277a:	61bb      	str	r3, [r7, #24]
    break;
 800277c:	e002      	b.n	8002784 <LSM6DSL_AccReadXYZ+0xd0>
  case LSM6DSL_ACC_FULLSCALE_16G:
    sensitivity = LSM6DSL_ACC_SENSITIVITY_16G;
 800277e:	4b17      	ldr	r3, [pc, #92]	@ (80027dc <LSM6DSL_AccReadXYZ+0x128>)
 8002780:	61bb      	str	r3, [r7, #24]
    break;    
 8002782:	bf00      	nop
  }
  
  /* Obtain the mg value for the three axis */
  for(i=0; i<3; i++)
 8002784:	2300      	movs	r3, #0
 8002786:	77fb      	strb	r3, [r7, #31]
 8002788:	e01a      	b.n	80027c0 <LSM6DSL_AccReadXYZ+0x10c>
  {
    pData[i]=( int16_t )(pnRawData[i] * sensitivity);
 800278a:	7ffb      	ldrb	r3, [r7, #31]
 800278c:	005b      	lsls	r3, r3, #1
 800278e:	3320      	adds	r3, #32
 8002790:	443b      	add	r3, r7
 8002792:	f933 3c10 	ldrsh.w	r3, [r3, #-16]
 8002796:	ee07 3a90 	vmov	s15, r3
 800279a:	eeb8 7ae7 	vcvt.f32.s32	s14, s15
 800279e:	edd7 7a06 	vldr	s15, [r7, #24]
 80027a2:	ee67 7a27 	vmul.f32	s15, s14, s15
 80027a6:	7ffb      	ldrb	r3, [r7, #31]
 80027a8:	005b      	lsls	r3, r3, #1
 80027aa:	687a      	ldr	r2, [r7, #4]
 80027ac:	4413      	add	r3, r2
 80027ae:	eefd 7ae7 	vcvt.s32.f32	s15, s15
 80027b2:	ee17 2a90 	vmov	r2, s15
 80027b6:	b212      	sxth	r2, r2
 80027b8:	801a      	strh	r2, [r3, #0]
  for(i=0; i<3; i++)
 80027ba:	7ffb      	ldrb	r3, [r7, #31]
 80027bc:	3301      	adds	r3, #1
 80027be:	77fb      	strb	r3, [r7, #31]
 80027c0:	7ffb      	ldrb	r3, [r7, #31]
 80027c2:	2b02      	cmp	r3, #2
 80027c4:	d9e1      	bls.n	800278a <LSM6DSL_AccReadXYZ+0xd6>
  }
}
 80027c6:	bf00      	nop
 80027c8:	bf00      	nop
 80027ca:	3720      	adds	r7, #32
 80027cc:	46bd      	mov	sp, r7
 80027ce:	bd80      	pop	{r7, pc}
 80027d0:	3d79db23 	.word	0x3d79db23
 80027d4:	3df9db23 	.word	0x3df9db23
 80027d8:	3e79db23 	.word	0x3e79db23
 80027dc:	3ef9db23 	.word	0x3ef9db23

080027e0 <LSM6DSL_GyroInit>:
  * @brief  Set LSM6DSL Gyroscope Initialization.
  * @param  InitStruct: pointer to a LSM6DSL_InitTypeDef structure 
  *         that contains the configuration setting for the LSM6DSL.
  */
void LSM6DSL_GyroInit(uint16_t InitStruct)
{  
 80027e0:	b580      	push	{r7, lr}
 80027e2:	b084      	sub	sp, #16
 80027e4:	af00      	add	r7, sp, #0
 80027e6:	4603      	mov	r3, r0
 80027e8:	80fb      	strh	r3, [r7, #6]
  uint8_t ctrl = 0x00;
 80027ea:	2300      	movs	r3, #0
 80027ec:	73fb      	strb	r3, [r7, #15]
  uint8_t tmp;

  /* Read CTRL2_G */
  tmp = SENSOR_IO_Read(LSM6DSL_ACC_GYRO_I2C_ADDRESS_LOW, LSM6DSL_ACC_GYRO_CTRL2_G);
 80027ee:	2111      	movs	r1, #17
 80027f0:	20d4      	movs	r0, #212	@ 0xd4
 80027f2:	f7ff fdef 	bl	80023d4 <SENSOR_IO_Read>
 80027f6:	4603      	mov	r3, r0
 80027f8:	73bb      	strb	r3, [r7, #14]

  /* Write value to GYRO MEMS CTRL2_G register: FS and Data Rate */
  ctrl = (uint8_t) InitStruct;
 80027fa:	88fb      	ldrh	r3, [r7, #6]
 80027fc:	73fb      	strb	r3, [r7, #15]
  tmp &= ~(0xFC);
 80027fe:	7bbb      	ldrb	r3, [r7, #14]
 8002800:	f003 0303 	and.w	r3, r3, #3
 8002804:	73bb      	strb	r3, [r7, #14]
  tmp |= ctrl;
 8002806:	7bba      	ldrb	r2, [r7, #14]
 8002808:	7bfb      	ldrb	r3, [r7, #15]
 800280a:	4313      	orrs	r3, r2
 800280c:	73bb      	strb	r3, [r7, #14]
  SENSOR_IO_Write(LSM6DSL_ACC_GYRO_I2C_ADDRESS_LOW, LSM6DSL_ACC_GYRO_CTRL2_G, tmp);
 800280e:	7bbb      	ldrb	r3, [r7, #14]
 8002810:	461a      	mov	r2, r3
 8002812:	2111      	movs	r1, #17
 8002814:	20d4      	movs	r0, #212	@ 0xd4
 8002816:	f7ff fdc3 	bl	80023a0 <SENSOR_IO_Write>

  /* Read CTRL3_C */
  tmp = SENSOR_IO_Read(LSM6DSL_ACC_GYRO_I2C_ADDRESS_LOW, LSM6DSL_ACC_GYRO_CTRL3_C);
 800281a:	2112      	movs	r1, #18
 800281c:	20d4      	movs	r0, #212	@ 0xd4
 800281e:	f7ff fdd9 	bl	80023d4 <SENSOR_IO_Read>
 8002822:	4603      	mov	r3, r0
 8002824:	73bb      	strb	r3, [r7, #14]

  /* Write value to GYRO MEMS CTRL3_C register: BDU and Auto-increment */
  ctrl = ((uint8_t) (InitStruct >> 8));
 8002826:	88fb      	ldrh	r3, [r7, #6]
 8002828:	0a1b      	lsrs	r3, r3, #8
 800282a:	b29b      	uxth	r3, r3
 800282c:	73fb      	strb	r3, [r7, #15]
  tmp &= ~(0x44);
 800282e:	7bbb      	ldrb	r3, [r7, #14]
 8002830:	f023 0344 	bic.w	r3, r3, #68	@ 0x44
 8002834:	73bb      	strb	r3, [r7, #14]
  tmp |= ctrl; 
 8002836:	7bba      	ldrb	r2, [r7, #14]
 8002838:	7bfb      	ldrb	r3, [r7, #15]
 800283a:	4313      	orrs	r3, r2
 800283c:	73bb      	strb	r3, [r7, #14]
  SENSOR_IO_Write(LSM6DSL_ACC_GYRO_I2C_ADDRESS_LOW, LSM6DSL_ACC_GYRO_CTRL3_C, tmp);
 800283e:	7bbb      	ldrb	r3, [r7, #14]
 8002840:	461a      	mov	r2, r3
 8002842:	2112      	movs	r1, #18
 8002844:	20d4      	movs	r0, #212	@ 0xd4
 8002846:	f7ff fdab 	bl	80023a0 <SENSOR_IO_Write>
}
 800284a:	bf00      	nop
 800284c:	3710      	adds	r7, #16
 800284e:	46bd      	mov	sp, r7
 8002850:	bd80      	pop	{r7, pc}

08002852 <LSM6DSL_GyroDeInit>:

/**
  * @brief LSM6DSL Gyroscope De-initialization
  */
void LSM6DSL_GyroDeInit(void)
{
 8002852:	b580      	push	{r7, lr}
 8002854:	b082      	sub	sp, #8
 8002856:	af00      	add	r7, sp, #0
  uint8_t ctrl = 0x00;
 8002858:	2300      	movs	r3, #0
 800285a:	71fb      	strb	r3, [r7, #7]
  
  /* Read control register 1 value */
  ctrl = SENSOR_IO_Read(LSM6DSL_ACC_GYRO_I2C_ADDRESS_LOW, LSM6DSL_ACC_GYRO_CTRL2_G);
 800285c:	2111      	movs	r1, #17
 800285e:	20d4      	movs	r0, #212	@ 0xd4
 8002860:	f7ff fdb8 	bl	80023d4 <SENSOR_IO_Read>
 8002864:	4603      	mov	r3, r0
 8002866:	71fb      	strb	r3, [r7, #7]

  /* Clear ODR bits */
  ctrl &= ~(LSM6DSL_ODR_BITPOSITION);
 8002868:	79fb      	ldrb	r3, [r7, #7]
 800286a:	f003 030f 	and.w	r3, r3, #15
 800286e:	71fb      	strb	r3, [r7, #7]

  /* Set Power down */
  ctrl |= LSM6DSL_ODR_POWER_DOWN;
  
  /* write back control register */
  SENSOR_IO_Write(LSM6DSL_ACC_GYRO_I2C_ADDRESS_LOW, LSM6DSL_ACC_GYRO_CTRL2_G, ctrl);
 8002870:	79fb      	ldrb	r3, [r7, #7]
 8002872:	461a      	mov	r2, r3
 8002874:	2111      	movs	r1, #17
 8002876:	20d4      	movs	r0, #212	@ 0xd4
 8002878:	f7ff fd92 	bl	80023a0 <SENSOR_IO_Write>
}
 800287c:	bf00      	nop
 800287e:	3708      	adds	r7, #8
 8002880:	46bd      	mov	sp, r7
 8002882:	bd80      	pop	{r7, pc}

08002884 <LSM6DSL_GyroReadID>:
/**
  * @brief  Read ID address of LSM6DSL
  * @retval ID 
  */
uint8_t LSM6DSL_GyroReadID(void)
{
 8002884:	b580      	push	{r7, lr}
 8002886:	af00      	add	r7, sp, #0
  /* IO interface initialization */
  SENSOR_IO_Init();  
 8002888:	f7ff fd80 	bl	800238c <SENSOR_IO_Init>
  /* Read value at Who am I register address */
  return SENSOR_IO_Read(LSM6DSL_ACC_GYRO_I2C_ADDRESS_LOW, LSM6DSL_ACC_GYRO_WHO_AM_I_REG);
 800288c:	210f      	movs	r1, #15
 800288e:	20d4      	movs	r0, #212	@ 0xd4
 8002890:	f7ff fda0 	bl	80023d4 <SENSOR_IO_Read>
 8002894:	4603      	mov	r3, r0
}
 8002896:	4618      	mov	r0, r3
 8002898:	bd80      	pop	{r7, pc}

0800289a <LSM6DSL_GyroLowPower>:
/**
  * @brief Set/Unset LSM6DSL Gyroscope in low power mode
  * @param  status 0 means disable Low Power Mode, otherwise Low Power Mode is enabled 
  */
void LSM6DSL_GyroLowPower(uint16_t status)
{  
 800289a:	b580      	push	{r7, lr}
 800289c:	b084      	sub	sp, #16
 800289e:	af00      	add	r7, sp, #0
 80028a0:	4603      	mov	r3, r0
 80028a2:	80fb      	strh	r3, [r7, #6]
  uint8_t ctrl = 0x00;
 80028a4:	2300      	movs	r3, #0
 80028a6:	73fb      	strb	r3, [r7, #15]
  
  /* Read CTRL7_G value */
  ctrl = SENSOR_IO_Read(LSM6DSL_ACC_GYRO_I2C_ADDRESS_LOW, LSM6DSL_ACC_GYRO_CTRL7_G);
 80028a8:	2116      	movs	r1, #22
 80028aa:	20d4      	movs	r0, #212	@ 0xd4
 80028ac:	f7ff fd92 	bl	80023d4 <SENSOR_IO_Read>
 80028b0:	4603      	mov	r3, r0
 80028b2:	73fb      	strb	r3, [r7, #15]

  /* Clear Low Power Mode bit */
  ctrl &= ~(0x80);
 80028b4:	7bfb      	ldrb	r3, [r7, #15]
 80028b6:	f003 037f 	and.w	r3, r3, #127	@ 0x7f
 80028ba:	73fb      	strb	r3, [r7, #15]

  /* Set Low Power Mode */
  if(status)
 80028bc:	88fb      	ldrh	r3, [r7, #6]
 80028be:	2b00      	cmp	r3, #0
 80028c0:	d003      	beq.n	80028ca <LSM6DSL_GyroLowPower+0x30>
  {
    ctrl |= LSM6DSL_ACC_GYRO_LP_G_ENABLED;
 80028c2:	7bfb      	ldrb	r3, [r7, #15]
 80028c4:	f063 037f 	orn	r3, r3, #127	@ 0x7f
 80028c8:	73fb      	strb	r3, [r7, #15]
  {
    ctrl |= LSM6DSL_ACC_GYRO_LP_G_DISABLED;
  }
  
  /* write back control register */
  SENSOR_IO_Write(LSM6DSL_ACC_GYRO_I2C_ADDRESS_LOW, LSM6DSL_ACC_GYRO_CTRL7_G, ctrl);
 80028ca:	7bfb      	ldrb	r3, [r7, #15]
 80028cc:	461a      	mov	r2, r3
 80028ce:	2116      	movs	r1, #22
 80028d0:	20d4      	movs	r0, #212	@ 0xd4
 80028d2:	f7ff fd65 	bl	80023a0 <SENSOR_IO_Write>
}
 80028d6:	bf00      	nop
 80028d8:	3710      	adds	r7, #16
 80028da:	46bd      	mov	sp, r7
 80028dc:	bd80      	pop	{r7, pc}
	...

080028e0 <LSM6DSL_GyroReadXYZAngRate>:
/**
* @brief  Calculate the LSM6DSL angular data.
* @param  pfData: Data out pointer
*/
void LSM6DSL_GyroReadXYZAngRate(float *pfData)
{
 80028e0:	b580      	push	{r7, lr}
 80028e2:	b088      	sub	sp, #32
 80028e4:	af00      	add	r7, sp, #0
 80028e6:	6078      	str	r0, [r7, #4]
  int16_t pnRawData[3];
  uint8_t ctrlg= 0;
 80028e8:	2300      	movs	r3, #0
 80028ea:	75fb      	strb	r3, [r7, #23]
  uint8_t buffer[6];
  uint8_t i = 0;
 80028ec:	2300      	movs	r3, #0
 80028ee:	77fb      	strb	r3, [r7, #31]
  float sensitivity = 0;
 80028f0:	f04f 0300 	mov.w	r3, #0
 80028f4:	61bb      	str	r3, [r7, #24]
  
  /* Read the gyro control register content */
  ctrlg = SENSOR_IO_Read(LSM6DSL_ACC_GYRO_I2C_ADDRESS_LOW, LSM6DSL_ACC_GYRO_CTRL2_G);
 80028f6:	2111      	movs	r1, #17
 80028f8:	20d4      	movs	r0, #212	@ 0xd4
 80028fa:	f7ff fd6b 	bl	80023d4 <SENSOR_IO_Read>
 80028fe:	4603      	mov	r3, r0
 8002900:	75fb      	strb	r3, [r7, #23]
  
  /* Read output register X, Y & Z acceleration */
  SENSOR_IO_ReadMultiple(LSM6DSL_ACC_GYRO_I2C_ADDRESS_LOW, LSM6DSL_ACC_GYRO_OUTX_L_G, buffer, 6);
 8002902:	f107 0208 	add.w	r2, r7, #8
 8002906:	2306      	movs	r3, #6
 8002908:	2122      	movs	r1, #34	@ 0x22
 800290a:	20d4      	movs	r0, #212	@ 0xd4
 800290c:	f7ff fd80 	bl	8002410 <SENSOR_IO_ReadMultiple>
  
  for(i=0; i<3; i++)
 8002910:	2300      	movs	r3, #0
 8002912:	77fb      	strb	r3, [r7, #31]
 8002914:	e01a      	b.n	800294c <LSM6DSL_GyroReadXYZAngRate+0x6c>
  {
    pnRawData[i]=((((uint16_t)buffer[2*i+1]) << 8) + (uint16_t)buffer[2*i]);
 8002916:	7ffb      	ldrb	r3, [r7, #31]
 8002918:	005b      	lsls	r3, r3, #1
 800291a:	3301      	adds	r3, #1
 800291c:	3320      	adds	r3, #32
 800291e:	443b      	add	r3, r7
 8002920:	f813 3c18 	ldrb.w	r3, [r3, #-24]
 8002924:	021b      	lsls	r3, r3, #8
 8002926:	b29b      	uxth	r3, r3
 8002928:	7ffa      	ldrb	r2, [r7, #31]
 800292a:	0052      	lsls	r2, r2, #1
 800292c:	3220      	adds	r2, #32
 800292e:	443a      	add	r2, r7
 8002930:	f812 2c18 	ldrb.w	r2, [r2, #-24]
 8002934:	4413      	add	r3, r2
 8002936:	b29a      	uxth	r2, r3
 8002938:	7ffb      	ldrb	r3, [r7, #31]
 800293a:	b212      	sxth	r2, r2
 800293c:	005b      	lsls	r3, r3, #1
 800293e:	3320      	adds	r3, #32
 8002940:	443b      	add	r3, r7
 8002942:	f823 2c10 	strh.w	r2, [r3, #-16]
  for(i=0; i<3; i++)
 8002946:	7ffb      	ldrb	r3, [r7, #31]
 8002948:	3301      	adds	r3, #1
 800294a:	77fb      	strb	r3, [r7, #31]
 800294c:	7ffb      	ldrb	r3, [r7, #31]
 800294e:	2b02      	cmp	r3, #2
 8002950:	d9e1      	bls.n	8002916 <LSM6DSL_GyroReadXYZAngRate+0x36>
  }
  
  /* Normal mode */
  /* Switch the sensitivity value set in the CRTL2_G */
  switch(ctrlg & 0x0C)
 8002952:	7dfb      	ldrb	r3, [r7, #23]
 8002954:	f003 030c 	and.w	r3, r3, #12
 8002958:	2b0c      	cmp	r3, #12
 800295a:	d829      	bhi.n	80029b0 <LSM6DSL_GyroReadXYZAngRate+0xd0>
 800295c:	a201      	add	r2, pc, #4	@ (adr r2, 8002964 <LSM6DSL_GyroReadXYZAngRate+0x84>)
 800295e:	f852 f023 	ldr.w	pc, [r2, r3, lsl #2]
 8002962:	bf00      	nop
 8002964:	08002999 	.word	0x08002999
 8002968:	080029b1 	.word	0x080029b1
 800296c:	080029b1 	.word	0x080029b1
 8002970:	080029b1 	.word	0x080029b1
 8002974:	0800299f 	.word	0x0800299f
 8002978:	080029b1 	.word	0x080029b1
 800297c:	080029b1 	.word	0x080029b1
 8002980:	080029b1 	.word	0x080029b1
 8002984:	080029a5 	.word	0x080029a5
 8002988:	080029b1 	.word	0x080029b1
 800298c:	080029b1 	.word	0x080029b1
 8002990:	080029b1 	.word	0x080029b1
 8002994:	080029ab 	.word	0x080029ab
  {
  case LSM6DSL_GYRO_FS_245:
    sensitivity = LSM6DSL_GYRO_SENSITIVITY_245DPS;
 8002998:	4b16      	ldr	r3, [pc, #88]	@ (80029f4 <LSM6DSL_GyroReadXYZAngRate+0x114>)
 800299a:	61bb      	str	r3, [r7, #24]
    break;
 800299c:	e008      	b.n	80029b0 <LSM6DSL_GyroReadXYZAngRate+0xd0>
  case LSM6DSL_GYRO_FS_500:
    sensitivity = LSM6DSL_GYRO_SENSITIVITY_500DPS;
 800299e:	4b16      	ldr	r3, [pc, #88]	@ (80029f8 <LSM6DSL_GyroReadXYZAngRate+0x118>)
 80029a0:	61bb      	str	r3, [r7, #24]
    break;
 80029a2:	e005      	b.n	80029b0 <LSM6DSL_GyroReadXYZAngRate+0xd0>
  case LSM6DSL_GYRO_FS_1000:
    sensitivity = LSM6DSL_GYRO_SENSITIVITY_1000DPS;
 80029a4:	4b15      	ldr	r3, [pc, #84]	@ (80029fc <LSM6DSL_GyroReadXYZAngRate+0x11c>)
 80029a6:	61bb      	str	r3, [r7, #24]
    break;
 80029a8:	e002      	b.n	80029b0 <LSM6DSL_GyroReadXYZAngRate+0xd0>
  case LSM6DSL_GYRO_FS_2000:
    sensitivity = LSM6DSL_GYRO_SENSITIVITY_2000DPS;
 80029aa:	4b15      	ldr	r3, [pc, #84]	@ (8002a00 <LSM6DSL_GyroReadXYZAngRate+0x120>)
 80029ac:	61bb      	str	r3, [r7, #24]
    break;    
 80029ae:	bf00      	nop
  }
  //printf("Sensitivity: %f\n",sensitivity);
  /* Obtain the mg value for the three axis */
  for(i=0; i<3; i++)
 80029b0:	2300      	movs	r3, #0
 80029b2:	77fb      	strb	r3, [r7, #31]
 80029b4:	e016      	b.n	80029e4 <LSM6DSL_GyroReadXYZAngRate+0x104>
  {
    pfData[i]=( float )(pnRawData[i] * sensitivity);
 80029b6:	7ffb      	ldrb	r3, [r7, #31]
 80029b8:	005b      	lsls	r3, r3, #1
 80029ba:	3320      	adds	r3, #32
 80029bc:	443b      	add	r3, r7
 80029be:	f933 3c10 	ldrsh.w	r3, [r3, #-16]
 80029c2:	ee07 3a90 	vmov	s15, r3
 80029c6:	eeb8 7ae7 	vcvt.f32.s32	s14, s15
 80029ca:	7ffb      	ldrb	r3, [r7, #31]
 80029cc:	009b      	lsls	r3, r3, #2
 80029ce:	687a      	ldr	r2, [r7, #4]
 80029d0:	4413      	add	r3, r2
 80029d2:	edd7 7a06 	vldr	s15, [r7, #24]
 80029d6:	ee67 7a27 	vmul.f32	s15, s14, s15
 80029da:	edc3 7a00 	vstr	s15, [r3]
  for(i=0; i<3; i++)
 80029de:	7ffb      	ldrb	r3, [r7, #31]
 80029e0:	3301      	adds	r3, #1
 80029e2:	77fb      	strb	r3, [r7, #31]
 80029e4:	7ffb      	ldrb	r3, [r7, #31]
 80029e6:	2b02      	cmp	r3, #2
 80029e8:	d9e5      	bls.n	80029b6 <LSM6DSL_GyroReadXYZAngRate+0xd6>
  }
}
 80029ea:	bf00      	nop
 80029ec:	bf00      	nop
 80029ee:	3720      	adds	r7, #32
 80029f0:	46bd      	mov	sp, r7
 80029f2:	bd80      	pop	{r7, pc}
 80029f4:	410c0000 	.word	0x410c0000
 80029f8:	418c0000 	.word	0x418c0000
 80029fc:	420c0000 	.word	0x420c0000
 8002a00:	428c0000 	.word	0x428c0000

08002a04 <HAL_Init>:
  *         each 1ms in the SysTick_Handler() interrupt handler.
  *
  * @retval HAL status
  */
HAL_StatusTypeDef HAL_Init(void)
{
 8002a04:	b580      	push	{r7, lr}
 8002a06:	b082      	sub	sp, #8
 8002a08:	af00      	add	r7, sp, #0
  HAL_StatusTypeDef  status = HAL_OK;
 8002a0a:	2300      	movs	r3, #0
 8002a0c:	71fb      	strb	r3, [r7, #7]
#if (PREFETCH_ENABLE != 0)
  __HAL_FLASH_PREFETCH_BUFFER_ENABLE();
#endif /* PREFETCH_ENABLE */

  /* Set Interrupt Group Priority */
  HAL_NVIC_SetPriorityGrouping(NVIC_PRIORITYGROUP_4);
 8002a0e:	2003      	movs	r0, #3
 8002a10:	f001 fa0c 	bl	8003e2c <HAL_NVIC_SetPriorityGrouping>

  /* Use SysTick as time base source and configure 1ms tick (default clock after Reset is MSI) */
  if (HAL_InitTick(TICK_INT_PRIORITY) != HAL_OK)
 8002a14:	2000      	movs	r0, #0
 8002a16:	f000 f80d 	bl	8002a34 <HAL_InitTick>
 8002a1a:	4603      	mov	r3, r0
 8002a1c:	2b00      	cmp	r3, #0
 8002a1e:	d002      	beq.n	8002a26 <HAL_Init+0x22>
  {
    status = HAL_ERROR;
 8002a20:	2301      	movs	r3, #1
 8002a22:	71fb      	strb	r3, [r7, #7]
 8002a24:	e001      	b.n	8002a2a <HAL_Init+0x26>
  }
  else
  {
    /* Init the low level hardware */
    HAL_MspInit();
 8002a26:	f7ff fa73 	bl	8001f10 <HAL_MspInit>
  }

  /* Return function status */
  return status;
 8002a2a:	79fb      	ldrb	r3, [r7, #7]
}
 8002a2c:	4618      	mov	r0, r3
 8002a2e:	3708      	adds	r7, #8
 8002a30:	46bd      	mov	sp, r7
 8002a32:	bd80      	pop	{r7, pc}

08002a34 <HAL_InitTick>:
  *       implementation  in user file.
  * @param TickPriority  Tick interrupt priority.
  * @retval HAL status
  */
__weak HAL_StatusTypeDef HAL_InitTick(uint32_t TickPriority)
{
 8002a34:	b580      	push	{r7, lr}
 8002a36:	b084      	sub	sp, #16
 8002a38:	af00      	add	r7, sp, #0
 8002a3a:	6078      	str	r0, [r7, #4]
  HAL_StatusTypeDef  status = HAL_OK;
 8002a3c:	2300      	movs	r3, #0
 8002a3e:	73fb      	strb	r3, [r7, #15]

  /* Check uwTickFreq for MisraC 2012 (even if uwTickFreq is a enum type that doesn't take the value zero)*/
  if ((uint32_t)uwTickFreq != 0U)
 8002a40:	4b17      	ldr	r3, [pc, #92]	@ (8002aa0 <HAL_InitTick+0x6c>)
 8002a42:	781b      	ldrb	r3, [r3, #0]
 8002a44:	2b00      	cmp	r3, #0
 8002a46:	d023      	beq.n	8002a90 <HAL_InitTick+0x5c>
  {
    /*Configure the SysTick to have interrupt in 1ms time basis*/
    if (HAL_SYSTICK_Config(SystemCoreClock / (1000U / (uint32_t)uwTickFreq)) == 0U)
 8002a48:	4b16      	ldr	r3, [pc, #88]	@ (8002aa4 <HAL_InitTick+0x70>)
 8002a4a:	681a      	ldr	r2, [r3, #0]
 8002a4c:	4b14      	ldr	r3, [pc, #80]	@ (8002aa0 <HAL_InitTick+0x6c>)
 8002a4e:	781b      	ldrb	r3, [r3, #0]
 8002a50:	4619      	mov	r1, r3
 8002a52:	f44f 737a 	mov.w	r3, #1000	@ 0x3e8
 8002a56:	fbb3 f3f1 	udiv	r3, r3, r1
 8002a5a:	fbb2 f3f3 	udiv	r3, r2, r3
 8002a5e:	4618      	mov	r0, r3
 8002a60:	f001 fa19 	bl	8003e96 <HAL_SYSTICK_Config>
 8002a64:	4603      	mov	r3, r0
 8002a66:	2b00      	cmp	r3, #0
 8002a68:	d10f      	bne.n	8002a8a <HAL_InitTick+0x56>
    {
      /* Configure the SysTick IRQ priority */
      if (TickPriority < (1UL << __NVIC_PRIO_BITS))
 8002a6a:	687b      	ldr	r3, [r7, #4]
 8002a6c:	2b0f      	cmp	r3, #15
 8002a6e:	d809      	bhi.n	8002a84 <HAL_InitTick+0x50>
      {
        HAL_NVIC_SetPriority(SysTick_IRQn, TickPriority, 0U);
 8002a70:	2200      	movs	r2, #0
 8002a72:	6879      	ldr	r1, [r7, #4]
 8002a74:	f04f 30ff 	mov.w	r0, #4294967295
 8002a78:	f001 f9e3 	bl	8003e42 <HAL_NVIC_SetPriority>
        uwTickPrio = TickPriority;
 8002a7c:	4a0a      	ldr	r2, [pc, #40]	@ (8002aa8 <HAL_InitTick+0x74>)
 8002a7e:	687b      	ldr	r3, [r7, #4]
 8002a80:	6013      	str	r3, [r2, #0]
 8002a82:	e007      	b.n	8002a94 <HAL_InitTick+0x60>
      }
      else
      {
        status = HAL_ERROR;
 8002a84:	2301      	movs	r3, #1
 8002a86:	73fb      	strb	r3, [r7, #15]
 8002a88:	e004      	b.n	8002a94 <HAL_InitTick+0x60>
      }
    }
    else
    {
      status = HAL_ERROR;
 8002a8a:	2301      	movs	r3, #1
 8002a8c:	73fb      	strb	r3, [r7, #15]
 8002a8e:	e001      	b.n	8002a94 <HAL_InitTick+0x60>
    }
  }
  else
  {
    status = HAL_ERROR;
 8002a90:	2301      	movs	r3, #1
 8002a92:	73fb      	strb	r3, [r7, #15]
  }

  /* Return function status */
  return status;
 8002a94:	7bfb      	ldrb	r3, [r7, #15]
}
 8002a96:	4618      	mov	r0, r3
 8002a98:	3710      	adds	r7, #16
 8002a9a:	46bd      	mov	sp, r7
 8002a9c:	bd80      	pop	{r7, pc}
 8002a9e:	bf00      	nop
 8002aa0:	2000007c 	.word	0x2000007c
 8002aa4:	20000008 	.word	0x20000008
 8002aa8:	20000078 	.word	0x20000078

08002aac <HAL_IncTick>:
 * @note This function is declared as __weak to be overwritten in case of other
  *      implementations in user file.
  * @retval None
  */
__weak void HAL_IncTick(void)
{
 8002aac:	b480      	push	{r7}
 8002aae:	af00      	add	r7, sp, #0
  uwTick += (uint32_t)uwTickFreq;
 8002ab0:	4b06      	ldr	r3, [pc, #24]	@ (8002acc <HAL_IncTick+0x20>)
 8002ab2:	781b      	ldrb	r3, [r3, #0]
 8002ab4:	461a      	mov	r2, r3
 8002ab6:	4b06      	ldr	r3, [pc, #24]	@ (8002ad0 <HAL_IncTick+0x24>)
 8002ab8:	681b      	ldr	r3, [r3, #0]
 8002aba:	4413      	add	r3, r2
 8002abc:	4a04      	ldr	r2, [pc, #16]	@ (8002ad0 <HAL_IncTick+0x24>)
 8002abe:	6013      	str	r3, [r2, #0]
}
 8002ac0:	bf00      	nop
 8002ac2:	46bd      	mov	sp, r7
 8002ac4:	f85d 7b04 	ldr.w	r7, [sp], #4
 8002ac8:	4770      	bx	lr
 8002aca:	bf00      	nop
 8002acc:	2000007c 	.word	0x2000007c
 8002ad0:	200003d8 	.word	0x200003d8

08002ad4 <HAL_GetTick>:
  * @note This function is declared as __weak to be overwritten in case of other
  *       implementations in user file.
  * @retval tick value
  */
__weak uint32_t HAL_GetTick(void)
{
 8002ad4:	b480      	push	{r7}
 8002ad6:	af00      	add	r7, sp, #0
  return uwTick;
 8002ad8:	4b03      	ldr	r3, [pc, #12]	@ (8002ae8 <HAL_GetTick+0x14>)
 8002ada:	681b      	ldr	r3, [r3, #0]
}
 8002adc:	4618      	mov	r0, r3
 8002ade:	46bd      	mov	sp, r7
 8002ae0:	f85d 7b04 	ldr.w	r7, [sp], #4
 8002ae4:	4770      	bx	lr
 8002ae6:	bf00      	nop
 8002ae8:	200003d8 	.word	0x200003d8

08002aec <HAL_Delay>:
  *       implementations in user file.
  * @param Delay  specifies the delay time length, in milliseconds.
  * @retval None
  */
__weak void HAL_Delay(uint32_t Delay)
{
 8002aec:	b580      	push	{r7, lr}
 8002aee:	b084      	sub	sp, #16
 8002af0:	af00      	add	r7, sp, #0
 8002af2:	6078      	str	r0, [r7, #4]
  uint32_t tickstart = HAL_GetTick();
 8002af4:	f7ff ffee 	bl	8002ad4 <HAL_GetTick>
 8002af8:	60b8      	str	r0, [r7, #8]
  uint32_t wait = Delay;
 8002afa:	687b      	ldr	r3, [r7, #4]
 8002afc:	60fb      	str	r3, [r7, #12]

  /* Add a period to guaranty minimum wait */
  if (wait < HAL_MAX_DELAY)
 8002afe:	68fb      	ldr	r3, [r7, #12]
 8002b00:	f1b3 3fff 	cmp.w	r3, #4294967295
 8002b04:	d005      	beq.n	8002b12 <HAL_Delay+0x26>
  {
    wait += (uint32_t)uwTickFreq;
 8002b06:	4b0a      	ldr	r3, [pc, #40]	@ (8002b30 <HAL_Delay+0x44>)
 8002b08:	781b      	ldrb	r3, [r3, #0]
 8002b0a:	461a      	mov	r2, r3
 8002b0c:	68fb      	ldr	r3, [r7, #12]
 8002b0e:	4413      	add	r3, r2
 8002b10:	60fb      	str	r3, [r7, #12]
  }

  while ((HAL_GetTick() - tickstart) < wait)
 8002b12:	bf00      	nop
 8002b14:	f7ff ffde 	bl	8002ad4 <HAL_GetTick>
 8002b18:	4602      	mov	r2, r0
 8002b1a:	68bb      	ldr	r3, [r7, #8]
 8002b1c:	1ad3      	subs	r3, r2, r3
 8002b1e:	68fa      	ldr	r2, [r7, #12]
 8002b20:	429a      	cmp	r2, r3
 8002b22:	d8f7      	bhi.n	8002b14 <HAL_Delay+0x28>
  {
  }
}
 8002b24:	bf00      	nop
 8002b26:	bf00      	nop
 8002b28:	3710      	adds	r7, #16
 8002b2a:	46bd      	mov	sp, r7
 8002b2c:	bd80      	pop	{r7, pc}
 8002b2e:	bf00      	nop
 8002b30:	2000007c 	.word	0x2000007c

08002b34 <LL_ADC_SetCommonClock>:
  *         @arg @ref LL_ADC_CLOCK_ASYNC_DIV128
  *         @arg @ref LL_ADC_CLOCK_ASYNC_DIV256
  * @retval None
  */
__STATIC_INLINE void LL_ADC_SetCommonClock(ADC_Common_TypeDef *ADCxy_COMMON, uint32_t CommonClock)
{
 8002b34:	b480      	push	{r7}
 8002b36:	b083      	sub	sp, #12
 8002b38:	af00      	add	r7, sp, #0
 8002b3a:	6078      	str	r0, [r7, #4]
 8002b3c:	6039      	str	r1, [r7, #0]
  MODIFY_REG(ADCxy_COMMON->CCR, ADC_CCR_CKMODE | ADC_CCR_PRESC, CommonClock);
 8002b3e:	687b      	ldr	r3, [r7, #4]
 8002b40:	689b      	ldr	r3, [r3, #8]
 8002b42:	f423 127c 	bic.w	r2, r3, #4128768	@ 0x3f0000
 8002b46:	683b      	ldr	r3, [r7, #0]
 8002b48:	431a      	orrs	r2, r3
 8002b4a:	687b      	ldr	r3, [r7, #4]
 8002b4c:	609a      	str	r2, [r3, #8]
}
 8002b4e:	bf00      	nop
 8002b50:	370c      	adds	r7, #12
 8002b52:	46bd      	mov	sp, r7
 8002b54:	f85d 7b04 	ldr.w	r7, [sp], #4
 8002b58:	4770      	bx	lr

08002b5a <LL_ADC_SetCommonPathInternalCh>:
  *         @arg @ref LL_ADC_PATH_INTERNAL_TEMPSENSOR
  *         @arg @ref LL_ADC_PATH_INTERNAL_VBAT
  * @retval None
  */
__STATIC_INLINE void LL_ADC_SetCommonPathInternalCh(ADC_Common_TypeDef *ADCxy_COMMON, uint32_t PathInternal)
{
 8002b5a:	b480      	push	{r7}
 8002b5c:	b083      	sub	sp, #12
 8002b5e:	af00      	add	r7, sp, #0
 8002b60:	6078      	str	r0, [r7, #4]
 8002b62:	6039      	str	r1, [r7, #0]
  MODIFY_REG(ADCxy_COMMON->CCR, ADC_CCR_VREFEN | ADC_CCR_TSEN | ADC_CCR_VBATEN, PathInternal);
 8002b64:	687b      	ldr	r3, [r7, #4]
 8002b66:	689b      	ldr	r3, [r3, #8]
 8002b68:	f023 72e0 	bic.w	r2, r3, #29360128	@ 0x1c00000
 8002b6c:	683b      	ldr	r3, [r7, #0]
 8002b6e:	431a      	orrs	r2, r3
 8002b70:	687b      	ldr	r3, [r7, #4]
 8002b72:	609a      	str	r2, [r3, #8]
}
 8002b74:	bf00      	nop
 8002b76:	370c      	adds	r7, #12
 8002b78:	46bd      	mov	sp, r7
 8002b7a:	f85d 7b04 	ldr.w	r7, [sp], #4
 8002b7e:	4770      	bx	lr

08002b80 <LL_ADC_GetCommonPathInternalCh>:
  *         @arg @ref LL_ADC_PATH_INTERNAL_VREFINT
  *         @arg @ref LL_ADC_PATH_INTERNAL_TEMPSENSOR
  *         @arg @ref LL_ADC_PATH_INTERNAL_VBAT
  */
__STATIC_INLINE uint32_t LL_ADC_GetCommonPathInternalCh(const ADC_Common_TypeDef *ADCxy_COMMON)
{
 8002b80:	b480      	push	{r7}
 8002b82:	b083      	sub	sp, #12
 8002b84:	af00      	add	r7, sp, #0
 8002b86:	6078      	str	r0, [r7, #4]
  return (uint32_t)(READ_BIT(ADCxy_COMMON->CCR, ADC_CCR_VREFEN | ADC_CCR_TSEN | ADC_CCR_VBATEN));
 8002b88:	687b      	ldr	r3, [r7, #4]
 8002b8a:	689b      	ldr	r3, [r3, #8]
 8002b8c:	f003 73e0 	and.w	r3, r3, #29360128	@ 0x1c00000
}
 8002b90:	4618      	mov	r0, r3
 8002b92:	370c      	adds	r7, #12
 8002b94:	46bd      	mov	sp, r7
 8002b96:	f85d 7b04 	ldr.w	r7, [sp], #4
 8002b9a:	4770      	bx	lr

08002b9c <LL_ADC_SetOffset>:
  *             Other channels are slow channels (0.238 us for 12-bit resolution (ADC conversion rate up to 4.21 Ms/s)).
  * @param  OffsetLevel Value between Min_Data=0x000 and Max_Data=0xFFF
  * @retval None
  */
__STATIC_INLINE void LL_ADC_SetOffset(ADC_TypeDef *ADCx, uint32_t Offsety, uint32_t Channel, uint32_t OffsetLevel)
{
 8002b9c:	b480      	push	{r7}
 8002b9e:	b087      	sub	sp, #28
 8002ba0:	af00      	add	r7, sp, #0
 8002ba2:	60f8      	str	r0, [r7, #12]
 8002ba4:	60b9      	str	r1, [r7, #8]
 8002ba6:	607a      	str	r2, [r7, #4]
 8002ba8:	603b      	str	r3, [r7, #0]
  __IO uint32_t *preg = __ADC_PTR_REG_OFFSET(ADCx->OFR1, Offsety);
 8002baa:	68fb      	ldr	r3, [r7, #12]
 8002bac:	3360      	adds	r3, #96	@ 0x60
 8002bae:	461a      	mov	r2, r3
 8002bb0:	68bb      	ldr	r3, [r7, #8]
 8002bb2:	009b      	lsls	r3, r3, #2
 8002bb4:	4413      	add	r3, r2
 8002bb6:	617b      	str	r3, [r7, #20]

  MODIFY_REG(*preg,
 8002bb8:	697b      	ldr	r3, [r7, #20]
 8002bba:	681a      	ldr	r2, [r3, #0]
 8002bbc:	4b08      	ldr	r3, [pc, #32]	@ (8002be0 <LL_ADC_SetOffset+0x44>)
 8002bbe:	4013      	ands	r3, r2
 8002bc0:	687a      	ldr	r2, [r7, #4]
 8002bc2:	f002 41f8 	and.w	r1, r2, #2080374784	@ 0x7c000000
 8002bc6:	683a      	ldr	r2, [r7, #0]
 8002bc8:	430a      	orrs	r2, r1
 8002bca:	4313      	orrs	r3, r2
 8002bcc:	f043 4200 	orr.w	r2, r3, #2147483648	@ 0x80000000
 8002bd0:	697b      	ldr	r3, [r7, #20]
 8002bd2:	601a      	str	r2, [r3, #0]
             ADC_OFR1_OFFSET1_EN | ADC_OFR1_OFFSET1_CH | ADC_OFR1_OFFSET1,
             ADC_OFR1_OFFSET1_EN | (Channel & ADC_CHANNEL_ID_NUMBER_MASK) | OffsetLevel);
}
 8002bd4:	bf00      	nop
 8002bd6:	371c      	adds	r7, #28
 8002bd8:	46bd      	mov	sp, r7
 8002bda:	f85d 7b04 	ldr.w	r7, [sp], #4
 8002bde:	4770      	bx	lr
 8002be0:	03fff000 	.word	0x03fff000

08002be4 <LL_ADC_GetOffsetChannel>:
  *         (1, 2, 3, 4) For ADC channel read back from ADC register,
  *                      comparison with internal channel parameter to be done
  *                      using helper macro @ref __LL_ADC_CHANNEL_INTERNAL_TO_EXTERNAL().
  */
__STATIC_INLINE uint32_t LL_ADC_GetOffsetChannel(const ADC_TypeDef *ADCx, uint32_t Offsety)
{
 8002be4:	b480      	push	{r7}
 8002be6:	b085      	sub	sp, #20
 8002be8:	af00      	add	r7, sp, #0
 8002bea:	6078      	str	r0, [r7, #4]
 8002bec:	6039      	str	r1, [r7, #0]
  const __IO uint32_t *preg = __ADC_PTR_REG_OFFSET(ADCx->OFR1, Offsety);
 8002bee:	687b      	ldr	r3, [r7, #4]
 8002bf0:	3360      	adds	r3, #96	@ 0x60
 8002bf2:	461a      	mov	r2, r3
 8002bf4:	683b      	ldr	r3, [r7, #0]
 8002bf6:	009b      	lsls	r3, r3, #2
 8002bf8:	4413      	add	r3, r2
 8002bfa:	60fb      	str	r3, [r7, #12]

  return (uint32_t) READ_BIT(*preg, ADC_OFR1_OFFSET1_CH);
 8002bfc:	68fb      	ldr	r3, [r7, #12]
 8002bfe:	681b      	ldr	r3, [r3, #0]
 8002c00:	f003 43f8 	and.w	r3, r3, #2080374784	@ 0x7c000000
}
 8002c04:	4618      	mov	r0, r3
 8002c06:	3714      	adds	r7, #20
 8002c08:	46bd      	mov	sp, r7
 8002c0a:	f85d 7b04 	ldr.w	r7, [sp], #4
 8002c0e:	4770      	bx	lr

08002c10 <LL_ADC_SetOffsetState>:
  *         @arg @ref LL_ADC_OFFSET_DISABLE
  *         @arg @ref LL_ADC_OFFSET_ENABLE
  * @retval None
  */
__STATIC_INLINE void LL_ADC_SetOffsetState(ADC_TypeDef *ADCx, uint32_t Offsety, uint32_t OffsetState)
{
 8002c10:	b480      	push	{r7}
 8002c12:	b087      	sub	sp, #28
 8002c14:	af00      	add	r7, sp, #0
 8002c16:	60f8      	str	r0, [r7, #12]
 8002c18:	60b9      	str	r1, [r7, #8]
 8002c1a:	607a      	str	r2, [r7, #4]
  __IO uint32_t *preg = __ADC_PTR_REG_OFFSET(ADCx->OFR1, Offsety);
 8002c1c:	68fb      	ldr	r3, [r7, #12]
 8002c1e:	3360      	adds	r3, #96	@ 0x60
 8002c20:	461a      	mov	r2, r3
 8002c22:	68bb      	ldr	r3, [r7, #8]
 8002c24:	009b      	lsls	r3, r3, #2
 8002c26:	4413      	add	r3, r2
 8002c28:	617b      	str	r3, [r7, #20]

  MODIFY_REG(*preg,
 8002c2a:	697b      	ldr	r3, [r7, #20]
 8002c2c:	681b      	ldr	r3, [r3, #0]
 8002c2e:	f023 4200 	bic.w	r2, r3, #2147483648	@ 0x80000000
 8002c32:	687b      	ldr	r3, [r7, #4]
 8002c34:	431a      	orrs	r2, r3
 8002c36:	697b      	ldr	r3, [r7, #20]
 8002c38:	601a      	str	r2, [r3, #0]
             ADC_OFR1_OFFSET1_EN,
             OffsetState);
}
 8002c3a:	bf00      	nop
 8002c3c:	371c      	adds	r7, #28
 8002c3e:	46bd      	mov	sp, r7
 8002c40:	f85d 7b04 	ldr.w	r7, [sp], #4
 8002c44:	4770      	bx	lr

08002c46 <LL_ADC_SetSamplingTimeCommonConfig>:
  *         @arg @ref LL_ADC_SAMPLINGTIME_COMMON_DEFAULT
  *         @arg @ref LL_ADC_SAMPLINGTIME_COMMON_3C5_REPL_2C5
  * @retval None
  */
__STATIC_INLINE void LL_ADC_SetSamplingTimeCommonConfig(ADC_TypeDef *ADCx, uint32_t SamplingTimeCommonConfig)
{
 8002c46:	b480      	push	{r7}
 8002c48:	b083      	sub	sp, #12
 8002c4a:	af00      	add	r7, sp, #0
 8002c4c:	6078      	str	r0, [r7, #4]
 8002c4e:	6039      	str	r1, [r7, #0]
  MODIFY_REG(ADCx->SMPR1, ADC_SMPR1_SMPPLUS, SamplingTimeCommonConfig);
 8002c50:	687b      	ldr	r3, [r7, #4]
 8002c52:	695b      	ldr	r3, [r3, #20]
 8002c54:	f023 4200 	bic.w	r2, r3, #2147483648	@ 0x80000000
 8002c58:	683b      	ldr	r3, [r7, #0]
 8002c5a:	431a      	orrs	r2, r3
 8002c5c:	687b      	ldr	r3, [r7, #4]
 8002c5e:	615a      	str	r2, [r3, #20]
}
 8002c60:	bf00      	nop
 8002c62:	370c      	adds	r7, #12
 8002c64:	46bd      	mov	sp, r7
 8002c66:	f85d 7b04 	ldr.w	r7, [sp], #4
 8002c6a:	4770      	bx	lr

08002c6c <LL_ADC_REG_IsTriggerSourceSWStart>:
  * @param  ADCx ADC instance
  * @retval Value "0" if trigger source external trigger
  *         Value "1" if trigger source SW start.
  */
__STATIC_INLINE uint32_t LL_ADC_REG_IsTriggerSourceSWStart(const ADC_TypeDef *ADCx)
{
 8002c6c:	b480      	push	{r7}
 8002c6e:	b083      	sub	sp, #12
 8002c70:	af00      	add	r7, sp, #0
 8002c72:	6078      	str	r0, [r7, #4]
  return ((READ_BIT(ADCx->CFGR, ADC_CFGR_EXTEN) == (LL_ADC_REG_TRIG_SOFTWARE & ADC_CFGR_EXTEN)) ? 1UL : 0UL);
 8002c74:	687b      	ldr	r3, [r7, #4]
 8002c76:	68db      	ldr	r3, [r3, #12]
 8002c78:	f403 6340 	and.w	r3, r3, #3072	@ 0xc00
 8002c7c:	2b00      	cmp	r3, #0
 8002c7e:	d101      	bne.n	8002c84 <LL_ADC_REG_IsTriggerSourceSWStart+0x18>
 8002c80:	2301      	movs	r3, #1
 8002c82:	e000      	b.n	8002c86 <LL_ADC_REG_IsTriggerSourceSWStart+0x1a>
 8002c84:	2300      	movs	r3, #0
}
 8002c86:	4618      	mov	r0, r3
 8002c88:	370c      	adds	r7, #12
 8002c8a:	46bd      	mov	sp, r7
 8002c8c:	f85d 7b04 	ldr.w	r7, [sp], #4
 8002c90:	4770      	bx	lr

08002c92 <LL_ADC_REG_SetSequencerRanks>:
  *         (7) On STM32L4, fast channel (0.188 us for 12-bit resolution (ADC conversion rate up to 5.33 Ms/s)).
  *             Other channels are slow channels (0.238 us for 12-bit resolution (ADC conversion rate up to 4.21 Ms/s)).
  * @retval None
  */
__STATIC_INLINE void LL_ADC_REG_SetSequencerRanks(ADC_TypeDef *ADCx, uint32_t Rank, uint32_t Channel)
{
 8002c92:	b480      	push	{r7}
 8002c94:	b087      	sub	sp, #28
 8002c96:	af00      	add	r7, sp, #0
 8002c98:	60f8      	str	r0, [r7, #12]
 8002c9a:	60b9      	str	r1, [r7, #8]
 8002c9c:	607a      	str	r2, [r7, #4]
  /* Set bits with content of parameter "Channel" with bits position          */
  /* in register and register position depending on parameter "Rank".         */
  /* Parameters "Rank" and "Channel" are used with masks because containing   */
  /* other bits reserved for other purpose.                                   */
  __IO uint32_t *preg = __ADC_PTR_REG_OFFSET(ADCx->SQR1,
 8002c9e:	68fb      	ldr	r3, [r7, #12]
 8002ca0:	3330      	adds	r3, #48	@ 0x30
 8002ca2:	461a      	mov	r2, r3
 8002ca4:	68bb      	ldr	r3, [r7, #8]
 8002ca6:	0a1b      	lsrs	r3, r3, #8
 8002ca8:	009b      	lsls	r3, r3, #2
 8002caa:	f003 030c 	and.w	r3, r3, #12
 8002cae:	4413      	add	r3, r2
 8002cb0:	617b      	str	r3, [r7, #20]
                                             ((Rank & ADC_REG_SQRX_REGOFFSET_MASK) >> ADC_SQRX_REGOFFSET_POS));

  MODIFY_REG(*preg,
 8002cb2:	697b      	ldr	r3, [r7, #20]
 8002cb4:	681a      	ldr	r2, [r3, #0]
 8002cb6:	68bb      	ldr	r3, [r7, #8]
 8002cb8:	f003 031f 	and.w	r3, r3, #31
 8002cbc:	211f      	movs	r1, #31
 8002cbe:	fa01 f303 	lsl.w	r3, r1, r3
 8002cc2:	43db      	mvns	r3, r3
 8002cc4:	401a      	ands	r2, r3
 8002cc6:	687b      	ldr	r3, [r7, #4]
 8002cc8:	0e9b      	lsrs	r3, r3, #26
 8002cca:	f003 011f 	and.w	r1, r3, #31
 8002cce:	68bb      	ldr	r3, [r7, #8]
 8002cd0:	f003 031f 	and.w	r3, r3, #31
 8002cd4:	fa01 f303 	lsl.w	r3, r1, r3
 8002cd8:	431a      	orrs	r2, r3
 8002cda:	697b      	ldr	r3, [r7, #20]
 8002cdc:	601a      	str	r2, [r3, #0]
             ADC_CHANNEL_ID_NUMBER_MASK_POSBIT0 << (Rank & ADC_REG_RANK_ID_SQRX_MASK),
             ((Channel & ADC_CHANNEL_ID_NUMBER_MASK) >> ADC_CHANNEL_ID_NUMBER_BITOFFSET_POS)
             << (Rank & ADC_REG_RANK_ID_SQRX_MASK));
}
 8002cde:	bf00      	nop
 8002ce0:	371c      	adds	r7, #28
 8002ce2:	46bd      	mov	sp, r7
 8002ce4:	f85d 7b04 	ldr.w	r7, [sp], #4
 8002ce8:	4770      	bx	lr

08002cea <LL_ADC_SetChannelSamplingTime>:
  *             can be replaced by 3.5 ADC clock cycles.
  *             Refer to function @ref LL_ADC_SetSamplingTimeCommonConfig().
  * @retval None
  */
__STATIC_INLINE void LL_ADC_SetChannelSamplingTime(ADC_TypeDef *ADCx, uint32_t Channel, uint32_t SamplingTime)
{
 8002cea:	b480      	push	{r7}
 8002cec:	b087      	sub	sp, #28
 8002cee:	af00      	add	r7, sp, #0
 8002cf0:	60f8      	str	r0, [r7, #12]
 8002cf2:	60b9      	str	r1, [r7, #8]
 8002cf4:	607a      	str	r2, [r7, #4]
  /* Set bits with content of parameter "SamplingTime" with bits position     */
  /* in register and register position depending on parameter "Channel".      */
  /* Parameter "Channel" is used with masks because containing                */
  /* other bits reserved for other purpose.                                   */
  __IO uint32_t *preg = __ADC_PTR_REG_OFFSET(ADCx->SMPR1,
 8002cf6:	68fb      	ldr	r3, [r7, #12]
 8002cf8:	3314      	adds	r3, #20
 8002cfa:	461a      	mov	r2, r3
 8002cfc:	68bb      	ldr	r3, [r7, #8]
 8002cfe:	0e5b      	lsrs	r3, r3, #25
 8002d00:	009b      	lsls	r3, r3, #2
 8002d02:	f003 0304 	and.w	r3, r3, #4
 8002d06:	4413      	add	r3, r2
 8002d08:	617b      	str	r3, [r7, #20]
                                             ((Channel & ADC_CHANNEL_SMPRX_REGOFFSET_MASK) >> ADC_SMPRX_REGOFFSET_POS));

  MODIFY_REG(*preg,
 8002d0a:	697b      	ldr	r3, [r7, #20]
 8002d0c:	681a      	ldr	r2, [r3, #0]
 8002d0e:	68bb      	ldr	r3, [r7, #8]
 8002d10:	0d1b      	lsrs	r3, r3, #20
 8002d12:	f003 031f 	and.w	r3, r3, #31
 8002d16:	2107      	movs	r1, #7
 8002d18:	fa01 f303 	lsl.w	r3, r1, r3
 8002d1c:	43db      	mvns	r3, r3
 8002d1e:	401a      	ands	r2, r3
 8002d20:	68bb      	ldr	r3, [r7, #8]
 8002d22:	0d1b      	lsrs	r3, r3, #20
 8002d24:	f003 031f 	and.w	r3, r3, #31
 8002d28:	6879      	ldr	r1, [r7, #4]
 8002d2a:	fa01 f303 	lsl.w	r3, r1, r3
 8002d2e:	431a      	orrs	r2, r3
 8002d30:	697b      	ldr	r3, [r7, #20]
 8002d32:	601a      	str	r2, [r3, #0]
             ADC_SMPR1_SMP0 << ((Channel & ADC_CHANNEL_SMPx_BITOFFSET_MASK) >> ADC_CHANNEL_SMPx_BITOFFSET_POS),
             SamplingTime   << ((Channel & ADC_CHANNEL_SMPx_BITOFFSET_MASK) >> ADC_CHANNEL_SMPx_BITOFFSET_POS));
}
 8002d34:	bf00      	nop
 8002d36:	371c      	adds	r7, #28
 8002d38:	46bd      	mov	sp, r7
 8002d3a:	f85d 7b04 	ldr.w	r7, [sp], #4
 8002d3e:	4770      	bx	lr

08002d40 <LL_ADC_SetChannelSingleDiff>:
  *         @arg @ref LL_ADC_SINGLE_ENDED
  *         @arg @ref LL_ADC_DIFFERENTIAL_ENDED
  * @retval None
  */
__STATIC_INLINE void LL_ADC_SetChannelSingleDiff(ADC_TypeDef *ADCx, uint32_t Channel, uint32_t SingleDiff)
{
 8002d40:	b480      	push	{r7}
 8002d42:	b085      	sub	sp, #20
 8002d44:	af00      	add	r7, sp, #0
 8002d46:	60f8      	str	r0, [r7, #12]
 8002d48:	60b9      	str	r1, [r7, #8]
 8002d4a:	607a      	str	r2, [r7, #4]
  /* Bits of channels in single or differential mode are set only for         */
  /* differential mode (for single mode, mask of bits allowed to be set is    */
  /* shifted out of range of bits of channels in single or differential mode. */
  MODIFY_REG(ADCx->DIFSEL,
 8002d4c:	68fb      	ldr	r3, [r7, #12]
 8002d4e:	f8d3 20b0 	ldr.w	r2, [r3, #176]	@ 0xb0
 8002d52:	68bb      	ldr	r3, [r7, #8]
 8002d54:	f3c3 0312 	ubfx	r3, r3, #0, #19
 8002d58:	43db      	mvns	r3, r3
 8002d5a:	401a      	ands	r2, r3
 8002d5c:	687b      	ldr	r3, [r7, #4]
 8002d5e:	f003 0318 	and.w	r3, r3, #24
 8002d62:	4908      	ldr	r1, [pc, #32]	@ (8002d84 <LL_ADC_SetChannelSingleDiff+0x44>)
 8002d64:	40d9      	lsrs	r1, r3
 8002d66:	68bb      	ldr	r3, [r7, #8]
 8002d68:	400b      	ands	r3, r1
 8002d6a:	f3c3 0312 	ubfx	r3, r3, #0, #19
 8002d6e:	431a      	orrs	r2, r3
 8002d70:	68fb      	ldr	r3, [r7, #12]
 8002d72:	f8c3 20b0 	str.w	r2, [r3, #176]	@ 0xb0
             Channel & ADC_SINGLEDIFF_CHANNEL_MASK,
             (Channel & ADC_SINGLEDIFF_CHANNEL_MASK)
             & (ADC_DIFSEL_DIFSEL >> (SingleDiff & ADC_SINGLEDIFF_CHANNEL_SHIFT_MASK)));
}
 8002d76:	bf00      	nop
 8002d78:	3714      	adds	r7, #20
 8002d7a:	46bd      	mov	sp, r7
 8002d7c:	f85d 7b04 	ldr.w	r7, [sp], #4
 8002d80:	4770      	bx	lr
 8002d82:	bf00      	nop
 8002d84:	0007ffff 	.word	0x0007ffff

08002d88 <LL_ADC_DisableDeepPowerDown>:
  * @rmtoll CR       DEEPPWD        LL_ADC_DisableDeepPowerDown
  * @param  ADCx ADC instance
  * @retval None
  */
__STATIC_INLINE void LL_ADC_DisableDeepPowerDown(ADC_TypeDef *ADCx)
{
 8002d88:	b480      	push	{r7}
 8002d8a:	b083      	sub	sp, #12
 8002d8c:	af00      	add	r7, sp, #0
 8002d8e:	6078      	str	r0, [r7, #4]
  /* Note: Write register with some additional bits forced to state reset     */
  /*       instead of modifying only the selected bit for this function,      */
  /*       to not interfere with bits with HW property "rs".                  */
  CLEAR_BIT(ADCx->CR, (ADC_CR_DEEPPWD | ADC_CR_BITS_PROPERTY_RS));
 8002d90:	687b      	ldr	r3, [r7, #4]
 8002d92:	689b      	ldr	r3, [r3, #8]
 8002d94:	f023 4320 	bic.w	r3, r3, #2684354560	@ 0xa0000000
 8002d98:	f023 033f 	bic.w	r3, r3, #63	@ 0x3f
 8002d9c:	687a      	ldr	r2, [r7, #4]
 8002d9e:	6093      	str	r3, [r2, #8]
}
 8002da0:	bf00      	nop
 8002da2:	370c      	adds	r7, #12
 8002da4:	46bd      	mov	sp, r7
 8002da6:	f85d 7b04 	ldr.w	r7, [sp], #4
 8002daa:	4770      	bx	lr

08002dac <LL_ADC_IsDeepPowerDownEnabled>:
  * @rmtoll CR       DEEPPWD        LL_ADC_IsDeepPowerDownEnabled
  * @param  ADCx ADC instance
  * @retval 0: deep power down is disabled, 1: deep power down is enabled.
  */
__STATIC_INLINE uint32_t LL_ADC_IsDeepPowerDownEnabled(const ADC_TypeDef *ADCx)
{
 8002dac:	b480      	push	{r7}
 8002dae:	b083      	sub	sp, #12
 8002db0:	af00      	add	r7, sp, #0
 8002db2:	6078      	str	r0, [r7, #4]
  return ((READ_BIT(ADCx->CR, ADC_CR_DEEPPWD) == (ADC_CR_DEEPPWD)) ? 1UL : 0UL);
 8002db4:	687b      	ldr	r3, [r7, #4]
 8002db6:	689b      	ldr	r3, [r3, #8]
 8002db8:	f003 5300 	and.w	r3, r3, #536870912	@ 0x20000000
 8002dbc:	f1b3 5f00 	cmp.w	r3, #536870912	@ 0x20000000
 8002dc0:	d101      	bne.n	8002dc6 <LL_ADC_IsDeepPowerDownEnabled+0x1a>
 8002dc2:	2301      	movs	r3, #1
 8002dc4:	e000      	b.n	8002dc8 <LL_ADC_IsDeepPowerDownEnabled+0x1c>
 8002dc6:	2300      	movs	r3, #0
}
 8002dc8:	4618      	mov	r0, r3
 8002dca:	370c      	adds	r7, #12
 8002dcc:	46bd      	mov	sp, r7
 8002dce:	f85d 7b04 	ldr.w	r7, [sp], #4
 8002dd2:	4770      	bx	lr

08002dd4 <LL_ADC_EnableInternalRegulator>:
  * @rmtoll CR       ADVREGEN       LL_ADC_EnableInternalRegulator
  * @param  ADCx ADC instance
  * @retval None
  */
__STATIC_INLINE void LL_ADC_EnableInternalRegulator(ADC_TypeDef *ADCx)
{
 8002dd4:	b480      	push	{r7}
 8002dd6:	b083      	sub	sp, #12
 8002dd8:	af00      	add	r7, sp, #0
 8002dda:	6078      	str	r0, [r7, #4]
  /* Note: Write register with some additional bits forced to state reset     */
  /*       instead of modifying only the selected bit for this function,      */
  /*       to not interfere with bits with HW property "rs".                  */
  MODIFY_REG(ADCx->CR,
 8002ddc:	687b      	ldr	r3, [r7, #4]
 8002dde:	689b      	ldr	r3, [r3, #8]
 8002de0:	f023 4310 	bic.w	r3, r3, #2415919104	@ 0x90000000
 8002de4:	f023 033f 	bic.w	r3, r3, #63	@ 0x3f
 8002de8:	f043 5280 	orr.w	r2, r3, #268435456	@ 0x10000000
 8002dec:	687b      	ldr	r3, [r7, #4]
 8002dee:	609a      	str	r2, [r3, #8]
             ADC_CR_BITS_PROPERTY_RS,
             ADC_CR_ADVREGEN);
}
 8002df0:	bf00      	nop
 8002df2:	370c      	adds	r7, #12
 8002df4:	46bd      	mov	sp, r7
 8002df6:	f85d 7b04 	ldr.w	r7, [sp], #4
 8002dfa:	4770      	bx	lr

08002dfc <LL_ADC_IsInternalRegulatorEnabled>:
  * @rmtoll CR       ADVREGEN       LL_ADC_IsInternalRegulatorEnabled
  * @param  ADCx ADC instance
  * @retval 0: internal regulator is disabled, 1: internal regulator is enabled.
  */
__STATIC_INLINE uint32_t LL_ADC_IsInternalRegulatorEnabled(const ADC_TypeDef *ADCx)
{
 8002dfc:	b480      	push	{r7}
 8002dfe:	b083      	sub	sp, #12
 8002e00:	af00      	add	r7, sp, #0
 8002e02:	6078      	str	r0, [r7, #4]
  return ((READ_BIT(ADCx->CR, ADC_CR_ADVREGEN) == (ADC_CR_ADVREGEN)) ? 1UL : 0UL);
 8002e04:	687b      	ldr	r3, [r7, #4]
 8002e06:	689b      	ldr	r3, [r3, #8]
 8002e08:	f003 5380 	and.w	r3, r3, #268435456	@ 0x10000000
 8002e0c:	f1b3 5f80 	cmp.w	r3, #268435456	@ 0x10000000
 8002e10:	d101      	bne.n	8002e16 <LL_ADC_IsInternalRegulatorEnabled+0x1a>
 8002e12:	2301      	movs	r3, #1
 8002e14:	e000      	b.n	8002e18 <LL_ADC_IsInternalRegulatorEnabled+0x1c>
 8002e16:	2300      	movs	r3, #0
}
 8002e18:	4618      	mov	r0, r3
 8002e1a:	370c      	adds	r7, #12
 8002e1c:	46bd      	mov	sp, r7
 8002e1e:	f85d 7b04 	ldr.w	r7, [sp], #4
 8002e22:	4770      	bx	lr

08002e24 <LL_ADC_Enable>:
  * @rmtoll CR       ADEN           LL_ADC_Enable
  * @param  ADCx ADC instance
  * @retval None
  */
__STATIC_INLINE void LL_ADC_Enable(ADC_TypeDef *ADCx)
{
 8002e24:	b480      	push	{r7}
 8002e26:	b083      	sub	sp, #12
 8002e28:	af00      	add	r7, sp, #0
 8002e2a:	6078      	str	r0, [r7, #4]
  /* Note: Write register with some additional bits forced to state reset     */
  /*       instead of modifying only the selected bit for this function,      */
  /*       to not interfere with bits with HW property "rs".                  */
  MODIFY_REG(ADCx->CR,
 8002e2c:	687b      	ldr	r3, [r7, #4]
 8002e2e:	689b      	ldr	r3, [r3, #8]
 8002e30:	f023 4300 	bic.w	r3, r3, #2147483648	@ 0x80000000
 8002e34:	f023 033f 	bic.w	r3, r3, #63	@ 0x3f
 8002e38:	f043 0201 	orr.w	r2, r3, #1
 8002e3c:	687b      	ldr	r3, [r7, #4]
 8002e3e:	609a      	str	r2, [r3, #8]
             ADC_CR_BITS_PROPERTY_RS,
             ADC_CR_ADEN);
}
 8002e40:	bf00      	nop
 8002e42:	370c      	adds	r7, #12
 8002e44:	46bd      	mov	sp, r7
 8002e46:	f85d 7b04 	ldr.w	r7, [sp], #4
 8002e4a:	4770      	bx	lr

08002e4c <LL_ADC_IsEnabled>:
  * @rmtoll CR       ADEN           LL_ADC_IsEnabled
  * @param  ADCx ADC instance
  * @retval 0: ADC is disabled, 1: ADC is enabled.
  */
__STATIC_INLINE uint32_t LL_ADC_IsEnabled(const ADC_TypeDef *ADCx)
{
 8002e4c:	b480      	push	{r7}
 8002e4e:	b083      	sub	sp, #12
 8002e50:	af00      	add	r7, sp, #0
 8002e52:	6078      	str	r0, [r7, #4]
  return ((READ_BIT(ADCx->CR, ADC_CR_ADEN) == (ADC_CR_ADEN)) ? 1UL : 0UL);
 8002e54:	687b      	ldr	r3, [r7, #4]
 8002e56:	689b      	ldr	r3, [r3, #8]
 8002e58:	f003 0301 	and.w	r3, r3, #1
 8002e5c:	2b01      	cmp	r3, #1
 8002e5e:	d101      	bne.n	8002e64 <LL_ADC_IsEnabled+0x18>
 8002e60:	2301      	movs	r3, #1
 8002e62:	e000      	b.n	8002e66 <LL_ADC_IsEnabled+0x1a>
 8002e64:	2300      	movs	r3, #0
}
 8002e66:	4618      	mov	r0, r3
 8002e68:	370c      	adds	r7, #12
 8002e6a:	46bd      	mov	sp, r7
 8002e6c:	f85d 7b04 	ldr.w	r7, [sp], #4
 8002e70:	4770      	bx	lr

08002e72 <LL_ADC_REG_StartConversion>:
  * @rmtoll CR       ADSTART        LL_ADC_REG_StartConversion
  * @param  ADCx ADC instance
  * @retval None
  */
__STATIC_INLINE void LL_ADC_REG_StartConversion(ADC_TypeDef *ADCx)
{
 8002e72:	b480      	push	{r7}
 8002e74:	b083      	sub	sp, #12
 8002e76:	af00      	add	r7, sp, #0
 8002e78:	6078      	str	r0, [r7, #4]
  /* Note: Write register with some additional bits forced to state reset     */
  /*       instead of modifying only the selected bit for this function,      */
  /*       to not interfere with bits with HW property "rs".                  */
  MODIFY_REG(ADCx->CR,
 8002e7a:	687b      	ldr	r3, [r7, #4]
 8002e7c:	689b      	ldr	r3, [r3, #8]
 8002e7e:	f023 4300 	bic.w	r3, r3, #2147483648	@ 0x80000000
 8002e82:	f023 033f 	bic.w	r3, r3, #63	@ 0x3f
 8002e86:	f043 0204 	orr.w	r2, r3, #4
 8002e8a:	687b      	ldr	r3, [r7, #4]
 8002e8c:	609a      	str	r2, [r3, #8]
             ADC_CR_BITS_PROPERTY_RS,
             ADC_CR_ADSTART);
}
 8002e8e:	bf00      	nop
 8002e90:	370c      	adds	r7, #12
 8002e92:	46bd      	mov	sp, r7
 8002e94:	f85d 7b04 	ldr.w	r7, [sp], #4
 8002e98:	4770      	bx	lr

08002e9a <LL_ADC_REG_IsConversionOngoing>:
  * @rmtoll CR       ADSTART        LL_ADC_REG_IsConversionOngoing
  * @param  ADCx ADC instance
  * @retval 0: no conversion is on going on ADC group regular.
  */
__STATIC_INLINE uint32_t LL_ADC_REG_IsConversionOngoing(const ADC_TypeDef *ADCx)
{
 8002e9a:	b480      	push	{r7}
 8002e9c:	b083      	sub	sp, #12
 8002e9e:	af00      	add	r7, sp, #0
 8002ea0:	6078      	str	r0, [r7, #4]
  return ((READ_BIT(ADCx->CR, ADC_CR_ADSTART) == (ADC_CR_ADSTART)) ? 1UL : 0UL);
 8002ea2:	687b      	ldr	r3, [r7, #4]
 8002ea4:	689b      	ldr	r3, [r3, #8]
 8002ea6:	f003 0304 	and.w	r3, r3, #4
 8002eaa:	2b04      	cmp	r3, #4
 8002eac:	d101      	bne.n	8002eb2 <LL_ADC_REG_IsConversionOngoing+0x18>
 8002eae:	2301      	movs	r3, #1
 8002eb0:	e000      	b.n	8002eb4 <LL_ADC_REG_IsConversionOngoing+0x1a>
 8002eb2:	2300      	movs	r3, #0
}
 8002eb4:	4618      	mov	r0, r3
 8002eb6:	370c      	adds	r7, #12
 8002eb8:	46bd      	mov	sp, r7
 8002eba:	f85d 7b04 	ldr.w	r7, [sp], #4
 8002ebe:	4770      	bx	lr

08002ec0 <LL_ADC_INJ_IsConversionOngoing>:
  * @rmtoll CR       JADSTART       LL_ADC_INJ_IsConversionOngoing
  * @param  ADCx ADC instance
  * @retval 0: no conversion is on going on ADC group injected.
  */
__STATIC_INLINE uint32_t LL_ADC_INJ_IsConversionOngoing(const ADC_TypeDef *ADCx)
{
 8002ec0:	b480      	push	{r7}
 8002ec2:	b083      	sub	sp, #12
 8002ec4:	af00      	add	r7, sp, #0
 8002ec6:	6078      	str	r0, [r7, #4]
  return ((READ_BIT(ADCx->CR, ADC_CR_JADSTART) == (ADC_CR_JADSTART)) ? 1UL : 0UL);
 8002ec8:	687b      	ldr	r3, [r7, #4]
 8002eca:	689b      	ldr	r3, [r3, #8]
 8002ecc:	f003 0308 	and.w	r3, r3, #8
 8002ed0:	2b08      	cmp	r3, #8
 8002ed2:	d101      	bne.n	8002ed8 <LL_ADC_INJ_IsConversionOngoing+0x18>
 8002ed4:	2301      	movs	r3, #1
 8002ed6:	e000      	b.n	8002eda <LL_ADC_INJ_IsConversionOngoing+0x1a>
 8002ed8:	2300      	movs	r3, #0
}
 8002eda:	4618      	mov	r0, r3
 8002edc:	370c      	adds	r7, #12
 8002ede:	46bd      	mov	sp, r7
 8002ee0:	f85d 7b04 	ldr.w	r7, [sp], #4
 8002ee4:	4770      	bx	lr
	...

08002ee8 <HAL_ADC_Init>:
  *         without  disabling the other ADCs.
  * @param hadc ADC handle
  * @retval HAL status
  */
HAL_StatusTypeDef HAL_ADC_Init(ADC_HandleTypeDef *hadc)
{
 8002ee8:	b580      	push	{r7, lr}
 8002eea:	b088      	sub	sp, #32
 8002eec:	af00      	add	r7, sp, #0
 8002eee:	6078      	str	r0, [r7, #4]
  HAL_StatusTypeDef tmp_hal_status = HAL_OK;
 8002ef0:	2300      	movs	r3, #0
 8002ef2:	77fb      	strb	r3, [r7, #31]
  uint32_t tmp_cfgr;
  uint32_t tmp_adc_is_conversion_on_going_regular;
  uint32_t tmp_adc_is_conversion_on_going_injected;
  __IO uint32_t wait_loop_index = 0UL;
 8002ef4:	2300      	movs	r3, #0
 8002ef6:	60fb      	str	r3, [r7, #12]

  /* Check ADC handle */
  if (hadc == NULL)
 8002ef8:	687b      	ldr	r3, [r7, #4]
 8002efa:	2b00      	cmp	r3, #0
 8002efc:	d101      	bne.n	8002f02 <HAL_ADC_Init+0x1a>
  {
    return HAL_ERROR;
 8002efe:	2301      	movs	r3, #1
 8002f00:	e129      	b.n	8003156 <HAL_ADC_Init+0x26e>
  assert_param(IS_ADC_EOC_SELECTION(hadc->Init.EOCSelection));
  assert_param(IS_ADC_OVERRUN(hadc->Init.Overrun));
  assert_param(IS_FUNCTIONAL_STATE(hadc->Init.LowPowerAutoWait));
  assert_param(IS_FUNCTIONAL_STATE(hadc->Init.OversamplingMode));

  if (hadc->Init.ScanConvMode != ADC_SCAN_DISABLE)
 8002f02:	687b      	ldr	r3, [r7, #4]
 8002f04:	691b      	ldr	r3, [r3, #16]
 8002f06:	2b00      	cmp	r3, #0
  /* DISCEN and CONT bits cannot be set at the same time */
  assert_param(!((hadc->Init.DiscontinuousConvMode == ENABLE) && (hadc->Init.ContinuousConvMode == ENABLE)));

  /* Actions performed only if ADC is coming from state reset:                */
  /* - Initialization of ADC MSP                                              */
  if (hadc->State == HAL_ADC_STATE_RESET)
 8002f08:	687b      	ldr	r3, [r7, #4]
 8002f0a:	6d9b      	ldr	r3, [r3, #88]	@ 0x58
 8002f0c:	2b00      	cmp	r3, #0
 8002f0e:	d109      	bne.n	8002f24 <HAL_ADC_Init+0x3c>

    /* Init the low level hardware */
    hadc->MspInitCallback(hadc);
#else
    /* Init the low level hardware */
    HAL_ADC_MspInit(hadc);
 8002f10:	6878      	ldr	r0, [r7, #4]
 8002f12:	f000 f92f 	bl	8003174 <HAL_ADC_MspInit>
#endif /* USE_HAL_ADC_REGISTER_CALLBACKS */

    /* Set ADC error code to none */
    ADC_CLEAR_ERRORCODE(hadc);
 8002f16:	687b      	ldr	r3, [r7, #4]
 8002f18:	2200      	movs	r2, #0
 8002f1a:	65da      	str	r2, [r3, #92]	@ 0x5c

    /* Initialize Lock */
    hadc->Lock = HAL_UNLOCKED;
 8002f1c:	687b      	ldr	r3, [r7, #4]
 8002f1e:	2200      	movs	r2, #0
 8002f20:	f883 2054 	strb.w	r2, [r3, #84]	@ 0x54
  }

  /* - Exit from deep-power-down mode and ADC voltage regulator enable        */
  if (LL_ADC_IsDeepPowerDownEnabled(hadc->Instance) != 0UL)
 8002f24:	687b      	ldr	r3, [r7, #4]
 8002f26:	681b      	ldr	r3, [r3, #0]
 8002f28:	4618      	mov	r0, r3
 8002f2a:	f7ff ff3f 	bl	8002dac <LL_ADC_IsDeepPowerDownEnabled>
 8002f2e:	4603      	mov	r3, r0
 8002f30:	2b00      	cmp	r3, #0
 8002f32:	d004      	beq.n	8002f3e <HAL_ADC_Init+0x56>
  {
    /* Disable ADC deep power down mode */
    LL_ADC_DisableDeepPowerDown(hadc->Instance);
 8002f34:	687b      	ldr	r3, [r7, #4]
 8002f36:	681b      	ldr	r3, [r3, #0]
 8002f38:	4618      	mov	r0, r3
 8002f3a:	f7ff ff25 	bl	8002d88 <LL_ADC_DisableDeepPowerDown>
    /* System was in deep power down mode, calibration must
     be relaunched or a previously saved calibration factor
     re-applied once the ADC voltage regulator is enabled */
  }

  if (LL_ADC_IsInternalRegulatorEnabled(hadc->Instance) == 0UL)
 8002f3e:	687b      	ldr	r3, [r7, #4]
 8002f40:	681b      	ldr	r3, [r3, #0]
 8002f42:	4618      	mov	r0, r3
 8002f44:	f7ff ff5a 	bl	8002dfc <LL_ADC_IsInternalRegulatorEnabled>
 8002f48:	4603      	mov	r3, r0
 8002f4a:	2b00      	cmp	r3, #0
 8002f4c:	d115      	bne.n	8002f7a <HAL_ADC_Init+0x92>
  {
    /* Enable ADC internal voltage regulator */
    LL_ADC_EnableInternalRegulator(hadc->Instance);
 8002f4e:	687b      	ldr	r3, [r7, #4]
 8002f50:	681b      	ldr	r3, [r3, #0]
 8002f52:	4618      	mov	r0, r3
 8002f54:	f7ff ff3e 	bl	8002dd4 <LL_ADC_EnableInternalRegulator>

    /* Note: Variable divided by 2 to compensate partially              */
    /*       CPU processing cycles, scaling in us split to not          */
    /*       exceed 32 bits register capacity and handle low frequency. */
    wait_loop_index = ((LL_ADC_DELAY_INTERNAL_REGUL_STAB_US / 10UL) * ((SystemCoreClock / (100000UL * 2UL)) + 1UL));
 8002f58:	4b81      	ldr	r3, [pc, #516]	@ (8003160 <HAL_ADC_Init+0x278>)
 8002f5a:	681b      	ldr	r3, [r3, #0]
 8002f5c:	099b      	lsrs	r3, r3, #6
 8002f5e:	4a81      	ldr	r2, [pc, #516]	@ (8003164 <HAL_ADC_Init+0x27c>)
 8002f60:	fba2 2303 	umull	r2, r3, r2, r3
 8002f64:	099b      	lsrs	r3, r3, #6
 8002f66:	3301      	adds	r3, #1
 8002f68:	005b      	lsls	r3, r3, #1
 8002f6a:	60fb      	str	r3, [r7, #12]
    while (wait_loop_index != 0UL)
 8002f6c:	e002      	b.n	8002f74 <HAL_ADC_Init+0x8c>
    {
      wait_loop_index--;
 8002f6e:	68fb      	ldr	r3, [r7, #12]
 8002f70:	3b01      	subs	r3, #1
 8002f72:	60fb      	str	r3, [r7, #12]
    while (wait_loop_index != 0UL)
 8002f74:	68fb      	ldr	r3, [r7, #12]
 8002f76:	2b00      	cmp	r3, #0
 8002f78:	d1f9      	bne.n	8002f6e <HAL_ADC_Init+0x86>
  }

  /* Verification that ADC voltage regulator is correctly enabled, whether    */
  /* or not ADC is coming from state reset (if any potential problem of       */
  /* clocking, voltage regulator would not be enabled).                       */
  if (LL_ADC_IsInternalRegulatorEnabled(hadc->Instance) == 0UL)
 8002f7a:	687b      	ldr	r3, [r7, #4]
 8002f7c:	681b      	ldr	r3, [r3, #0]
 8002f7e:	4618      	mov	r0, r3
 8002f80:	f7ff ff3c 	bl	8002dfc <LL_ADC_IsInternalRegulatorEnabled>
 8002f84:	4603      	mov	r3, r0
 8002f86:	2b00      	cmp	r3, #0
 8002f88:	d10d      	bne.n	8002fa6 <HAL_ADC_Init+0xbe>
  {
    /* Update ADC state machine to error */
    SET_BIT(hadc->State, HAL_ADC_STATE_ERROR_INTERNAL);
 8002f8a:	687b      	ldr	r3, [r7, #4]
 8002f8c:	6d9b      	ldr	r3, [r3, #88]	@ 0x58
 8002f8e:	f043 0210 	orr.w	r2, r3, #16
 8002f92:	687b      	ldr	r3, [r7, #4]
 8002f94:	659a      	str	r2, [r3, #88]	@ 0x58

    /* Set ADC error code to ADC peripheral internal error */
    SET_BIT(hadc->ErrorCode, HAL_ADC_ERROR_INTERNAL);
 8002f96:	687b      	ldr	r3, [r7, #4]
 8002f98:	6ddb      	ldr	r3, [r3, #92]	@ 0x5c
 8002f9a:	f043 0201 	orr.w	r2, r3, #1
 8002f9e:	687b      	ldr	r3, [r7, #4]
 8002fa0:	65da      	str	r2, [r3, #92]	@ 0x5c

    tmp_hal_status = HAL_ERROR;
 8002fa2:	2301      	movs	r3, #1
 8002fa4:	77fb      	strb	r3, [r7, #31]

  /* Configuration of ADC parameters if previous preliminary actions are      */
  /* correctly completed and if there is no conversion on going on regular    */
  /* group (ADC may already be enabled at this point if HAL_ADC_Init() is     */
  /* called to update a parameter on the fly).                                */
  tmp_adc_is_conversion_on_going_regular = LL_ADC_REG_IsConversionOngoing(hadc->Instance);
 8002fa6:	687b      	ldr	r3, [r7, #4]
 8002fa8:	681b      	ldr	r3, [r3, #0]
 8002faa:	4618      	mov	r0, r3
 8002fac:	f7ff ff75 	bl	8002e9a <LL_ADC_REG_IsConversionOngoing>
 8002fb0:	6178      	str	r0, [r7, #20]

  if (((hadc->State & HAL_ADC_STATE_ERROR_INTERNAL) == 0UL)
 8002fb2:	687b      	ldr	r3, [r7, #4]
 8002fb4:	6d9b      	ldr	r3, [r3, #88]	@ 0x58
 8002fb6:	f003 0310 	and.w	r3, r3, #16
 8002fba:	2b00      	cmp	r3, #0
 8002fbc:	f040 80c2 	bne.w	8003144 <HAL_ADC_Init+0x25c>
      && (tmp_adc_is_conversion_on_going_regular == 0UL)
 8002fc0:	697b      	ldr	r3, [r7, #20]
 8002fc2:	2b00      	cmp	r3, #0
 8002fc4:	f040 80be 	bne.w	8003144 <HAL_ADC_Init+0x25c>
     )
  {
    /* Set ADC state */
    ADC_STATE_CLR_SET(hadc->State,
 8002fc8:	687b      	ldr	r3, [r7, #4]
 8002fca:	6d9b      	ldr	r3, [r3, #88]	@ 0x58
 8002fcc:	f423 7381 	bic.w	r3, r3, #258	@ 0x102
 8002fd0:	f043 0202 	orr.w	r2, r3, #2
 8002fd4:	687b      	ldr	r3, [r7, #4]
 8002fd6:	659a      	str	r2, [r3, #88]	@ 0x58
    /* Configuration of common ADC parameters                                 */

    /* Parameters update conditioned to ADC state:                            */
    /* Parameters that can be updated only when ADC is disabled:              */
    /*  - clock configuration                                                 */
    if (LL_ADC_IsEnabled(hadc->Instance) == 0UL)
 8002fd8:	687b      	ldr	r3, [r7, #4]
 8002fda:	681b      	ldr	r3, [r3, #0]
 8002fdc:	4618      	mov	r0, r3
 8002fde:	f7ff ff35 	bl	8002e4c <LL_ADC_IsEnabled>
 8002fe2:	4603      	mov	r3, r0
 8002fe4:	2b00      	cmp	r3, #0
 8002fe6:	d10b      	bne.n	8003000 <HAL_ADC_Init+0x118>
    {
      if (__LL_ADC_IS_ENABLED_ALL_COMMON_INSTANCE(__LL_ADC_COMMON_INSTANCE(hadc->Instance)) == 0UL)
 8002fe8:	485f      	ldr	r0, [pc, #380]	@ (8003168 <HAL_ADC_Init+0x280>)
 8002fea:	f7ff ff2f 	bl	8002e4c <LL_ADC_IsEnabled>
 8002fee:	4603      	mov	r3, r0
 8002ff0:	2b00      	cmp	r3, #0
 8002ff2:	d105      	bne.n	8003000 <HAL_ADC_Init+0x118>
        /*     parameters: MDMA, DMACFG, DELAY, DUAL (set by API                */
        /*     HAL_ADCEx_MultiModeConfigChannel() )                             */
        /*   - internal measurement paths: Vbat, temperature sensor, Vref       */
        /*     (set into HAL_ADC_ConfigChannel() or                             */
        /*     HAL_ADCEx_InjectedConfigChannel() )                              */
        LL_ADC_SetCommonClock(__LL_ADC_COMMON_INSTANCE(hadc->Instance), hadc->Init.ClockPrescaler);
 8002ff4:	687b      	ldr	r3, [r7, #4]
 8002ff6:	685b      	ldr	r3, [r3, #4]
 8002ff8:	4619      	mov	r1, r3
 8002ffa:	485c      	ldr	r0, [pc, #368]	@ (800316c <HAL_ADC_Init+0x284>)
 8002ffc:	f7ff fd9a 	bl	8002b34 <LL_ADC_SetCommonClock>
    /*  - external trigger polarity                Init.ExternalTrigConvEdge  */
    /*  - continuous conversion mode               Init.ContinuousConvMode    */
    /*  - overrun                                  Init.Overrun               */
    /*  - discontinuous mode                       Init.DiscontinuousConvMode */
    /*  - discontinuous mode channel count         Init.NbrOfDiscConversion   */
    tmp_cfgr  = (ADC_CFGR_CONTINUOUS((uint32_t)hadc->Init.ContinuousConvMode)           |
 8003000:	687b      	ldr	r3, [r7, #4]
 8003002:	7e5b      	ldrb	r3, [r3, #25]
 8003004:	035a      	lsls	r2, r3, #13
                 hadc->Init.Overrun                                                     |
 8003006:	687b      	ldr	r3, [r7, #4]
 8003008:	6b5b      	ldr	r3, [r3, #52]	@ 0x34
    tmp_cfgr  = (ADC_CFGR_CONTINUOUS((uint32_t)hadc->Init.ContinuousConvMode)           |
 800300a:	431a      	orrs	r2, r3
                 hadc->Init.DataAlign                                                   |
 800300c:	687b      	ldr	r3, [r7, #4]
 800300e:	68db      	ldr	r3, [r3, #12]
                 hadc->Init.Overrun                                                     |
 8003010:	431a      	orrs	r2, r3
                 hadc->Init.Resolution                                                  |
 8003012:	687b      	ldr	r3, [r7, #4]
 8003014:	689b      	ldr	r3, [r3, #8]
                 hadc->Init.DataAlign                                                   |
 8003016:	431a      	orrs	r2, r3
                 ADC_CFGR_REG_DISCONTINUOUS((uint32_t)hadc->Init.DiscontinuousConvMode));
 8003018:	687b      	ldr	r3, [r7, #4]
 800301a:	f893 3020 	ldrb.w	r3, [r3, #32]
 800301e:	041b      	lsls	r3, r3, #16
    tmp_cfgr  = (ADC_CFGR_CONTINUOUS((uint32_t)hadc->Init.ContinuousConvMode)           |
 8003020:	4313      	orrs	r3, r2
 8003022:	61bb      	str	r3, [r7, #24]

    if (hadc->Init.DiscontinuousConvMode == ENABLE)
 8003024:	687b      	ldr	r3, [r7, #4]
 8003026:	f893 3020 	ldrb.w	r3, [r3, #32]
 800302a:	2b01      	cmp	r3, #1
 800302c:	d106      	bne.n	800303c <HAL_ADC_Init+0x154>
    {
      tmp_cfgr |= ADC_CFGR_DISCONTINUOUS_NUM(hadc->Init.NbrOfDiscConversion);
 800302e:	687b      	ldr	r3, [r7, #4]
 8003030:	6a5b      	ldr	r3, [r3, #36]	@ 0x24
 8003032:	3b01      	subs	r3, #1
 8003034:	045b      	lsls	r3, r3, #17
 8003036:	69ba      	ldr	r2, [r7, #24]
 8003038:	4313      	orrs	r3, r2
 800303a:	61bb      	str	r3, [r7, #24]
    /* Enable external trigger if trigger selection is different of software  */
    /* start.                                                                 */
    /* Note: This configuration keeps the hardware feature of parameter       */
    /*       ExternalTrigConvEdge "trigger edge none" equivalent to           */
    /*       software start.                                                  */
    if (hadc->Init.ExternalTrigConv != ADC_SOFTWARE_START)
 800303c:	687b      	ldr	r3, [r7, #4]
 800303e:	6a9b      	ldr	r3, [r3, #40]	@ 0x28
 8003040:	2b00      	cmp	r3, #0
 8003042:	d009      	beq.n	8003058 <HAL_ADC_Init+0x170>
    {
      tmp_cfgr |= ((hadc->Init.ExternalTrigConv & ADC_CFGR_EXTSEL)
 8003044:	687b      	ldr	r3, [r7, #4]
 8003046:	6a9b      	ldr	r3, [r3, #40]	@ 0x28
 8003048:	f403 7270 	and.w	r2, r3, #960	@ 0x3c0
                   | hadc->Init.ExternalTrigConvEdge
 800304c:	687b      	ldr	r3, [r7, #4]
 800304e:	6adb      	ldr	r3, [r3, #44]	@ 0x2c
 8003050:	4313      	orrs	r3, r2
      tmp_cfgr |= ((hadc->Init.ExternalTrigConv & ADC_CFGR_EXTSEL)
 8003052:	69ba      	ldr	r2, [r7, #24]
 8003054:	4313      	orrs	r3, r2
 8003056:	61bb      	str	r3, [r7, #24]
                  );
    }

    /* Update Configuration Register CFGR */
    MODIFY_REG(hadc->Instance->CFGR, ADC_CFGR_FIELDS_1, tmp_cfgr);
 8003058:	687b      	ldr	r3, [r7, #4]
 800305a:	681b      	ldr	r3, [r3, #0]
 800305c:	68da      	ldr	r2, [r3, #12]
 800305e:	4b44      	ldr	r3, [pc, #272]	@ (8003170 <HAL_ADC_Init+0x288>)
 8003060:	4013      	ands	r3, r2
 8003062:	687a      	ldr	r2, [r7, #4]
 8003064:	6812      	ldr	r2, [r2, #0]
 8003066:	69b9      	ldr	r1, [r7, #24]
 8003068:	430b      	orrs	r3, r1
 800306a:	60d3      	str	r3, [r2, #12]
    /* Parameters that can be updated when ADC is disabled or enabled without */
    /* conversion on going on regular and injected groups:                    */
    /*  - DMA continuous request          Init.DMAContinuousRequests          */
    /*  - LowPowerAutoWait feature        Init.LowPowerAutoWait               */
    /*  - Oversampling parameters         Init.Oversampling                   */
    tmp_adc_is_conversion_on_going_injected = LL_ADC_INJ_IsConversionOngoing(hadc->Instance);
 800306c:	687b      	ldr	r3, [r7, #4]
 800306e:	681b      	ldr	r3, [r3, #0]
 8003070:	4618      	mov	r0, r3
 8003072:	f7ff ff25 	bl	8002ec0 <LL_ADC_INJ_IsConversionOngoing>
 8003076:	6138      	str	r0, [r7, #16]
    if ((tmp_adc_is_conversion_on_going_regular == 0UL)
 8003078:	697b      	ldr	r3, [r7, #20]
 800307a:	2b00      	cmp	r3, #0
 800307c:	d140      	bne.n	8003100 <HAL_ADC_Init+0x218>
        && (tmp_adc_is_conversion_on_going_injected == 0UL)
 800307e:	693b      	ldr	r3, [r7, #16]
 8003080:	2b00      	cmp	r3, #0
 8003082:	d13d      	bne.n	8003100 <HAL_ADC_Init+0x218>
       )
    {
      tmp_cfgr = (ADC_CFGR_DFSDM(hadc)                                            |
 8003084:	687b      	ldr	r3, [r7, #4]
 8003086:	6cda      	ldr	r2, [r3, #76]	@ 0x4c
                   ADC_CFGR_AUTOWAIT((uint32_t)hadc->Init.LowPowerAutoWait)        |
 8003088:	687b      	ldr	r3, [r7, #4]
 800308a:	7e1b      	ldrb	r3, [r3, #24]
 800308c:	039b      	lsls	r3, r3, #14
      tmp_cfgr = (ADC_CFGR_DFSDM(hadc)                                            |
 800308e:	431a      	orrs	r2, r3
                   ADC_CFGR_DMACONTREQ((uint32_t)hadc->Init.DMAContinuousRequests));
 8003090:	687b      	ldr	r3, [r7, #4]
 8003092:	f893 3030 	ldrb.w	r3, [r3, #48]	@ 0x30
 8003096:	005b      	lsls	r3, r3, #1
      tmp_cfgr = (ADC_CFGR_DFSDM(hadc)                                            |
 8003098:	4313      	orrs	r3, r2
 800309a:	61bb      	str	r3, [r7, #24]

      MODIFY_REG(hadc->Instance->CFGR, ADC_CFGR_FIELDS_2, tmp_cfgr);
 800309c:	687b      	ldr	r3, [r7, #4]
 800309e:	681b      	ldr	r3, [r3, #0]
 80030a0:	68db      	ldr	r3, [r3, #12]
 80030a2:	f423 4380 	bic.w	r3, r3, #16384	@ 0x4000
 80030a6:	f023 0306 	bic.w	r3, r3, #6
 80030aa:	687a      	ldr	r2, [r7, #4]
 80030ac:	6812      	ldr	r2, [r2, #0]
 80030ae:	69b9      	ldr	r1, [r7, #24]
 80030b0:	430b      	orrs	r3, r1
 80030b2:	60d3      	str	r3, [r2, #12]

      if (hadc->Init.OversamplingMode == ENABLE)
 80030b4:	687b      	ldr	r3, [r7, #4]
 80030b6:	f893 3038 	ldrb.w	r3, [r3, #56]	@ 0x38
 80030ba:	2b01      	cmp	r3, #1
 80030bc:	d118      	bne.n	80030f0 <HAL_ADC_Init+0x208>
        /* Configuration of Oversampler:                                      */
        /*  - Oversampling Ratio                                              */
        /*  - Right bit shift                                                 */
        /*  - Triggered mode                                                  */
        /*  - Oversampling mode (continued/resumed)                           */
        MODIFY_REG(hadc->Instance->CFGR2,
 80030be:	687b      	ldr	r3, [r7, #4]
 80030c0:	681b      	ldr	r3, [r3, #0]
 80030c2:	691b      	ldr	r3, [r3, #16]
 80030c4:	f423 63ff 	bic.w	r3, r3, #2040	@ 0x7f8
 80030c8:	f023 0304 	bic.w	r3, r3, #4
 80030cc:	687a      	ldr	r2, [r7, #4]
 80030ce:	6bd1      	ldr	r1, [r2, #60]	@ 0x3c
 80030d0:	687a      	ldr	r2, [r7, #4]
 80030d2:	6c12      	ldr	r2, [r2, #64]	@ 0x40
 80030d4:	4311      	orrs	r1, r2
 80030d6:	687a      	ldr	r2, [r7, #4]
 80030d8:	6c52      	ldr	r2, [r2, #68]	@ 0x44
 80030da:	4311      	orrs	r1, r2
 80030dc:	687a      	ldr	r2, [r7, #4]
 80030de:	6c92      	ldr	r2, [r2, #72]	@ 0x48
 80030e0:	430a      	orrs	r2, r1
 80030e2:	431a      	orrs	r2, r3
 80030e4:	687b      	ldr	r3, [r7, #4]
 80030e6:	681b      	ldr	r3, [r3, #0]
 80030e8:	f042 0201 	orr.w	r2, r2, #1
 80030ec:	611a      	str	r2, [r3, #16]
 80030ee:	e007      	b.n	8003100 <HAL_ADC_Init+0x218>
                  );
      }
      else
      {
        /* Disable ADC oversampling scope on ADC group regular */
        CLEAR_BIT(hadc->Instance->CFGR2, ADC_CFGR2_ROVSE);
 80030f0:	687b      	ldr	r3, [r7, #4]
 80030f2:	681b      	ldr	r3, [r3, #0]
 80030f4:	691a      	ldr	r2, [r3, #16]
 80030f6:	687b      	ldr	r3, [r7, #4]
 80030f8:	681b      	ldr	r3, [r3, #0]
 80030fa:	f022 0201 	bic.w	r2, r2, #1
 80030fe:	611a      	str	r2, [r3, #16]
    /*   Note: Scan mode is not present by hardware on this device, but       */
    /*   emulated by software for alignment over all STM32 devices.           */
    /* - if scan mode is enabled, regular channels sequence length is set to  */
    /*   parameter "NbrOfConversion".                                         */

    if (hadc->Init.ScanConvMode == ADC_SCAN_ENABLE)
 8003100:	687b      	ldr	r3, [r7, #4]
 8003102:	691b      	ldr	r3, [r3, #16]
 8003104:	2b01      	cmp	r3, #1
 8003106:	d10c      	bne.n	8003122 <HAL_ADC_Init+0x23a>
    {
      /* Set number of ranks in regular group sequencer */
      MODIFY_REG(hadc->Instance->SQR1, ADC_SQR1_L, (hadc->Init.NbrOfConversion - (uint8_t)1));
 8003108:	687b      	ldr	r3, [r7, #4]
 800310a:	681b      	ldr	r3, [r3, #0]
 800310c:	6b1b      	ldr	r3, [r3, #48]	@ 0x30
 800310e:	f023 010f 	bic.w	r1, r3, #15
 8003112:	687b      	ldr	r3, [r7, #4]
 8003114:	69db      	ldr	r3, [r3, #28]
 8003116:	1e5a      	subs	r2, r3, #1
 8003118:	687b      	ldr	r3, [r7, #4]
 800311a:	681b      	ldr	r3, [r3, #0]
 800311c:	430a      	orrs	r2, r1
 800311e:	631a      	str	r2, [r3, #48]	@ 0x30
 8003120:	e007      	b.n	8003132 <HAL_ADC_Init+0x24a>
    }
    else
    {
      CLEAR_BIT(hadc->Instance->SQR1, ADC_SQR1_L);
 8003122:	687b      	ldr	r3, [r7, #4]
 8003124:	681b      	ldr	r3, [r3, #0]
 8003126:	6b1a      	ldr	r2, [r3, #48]	@ 0x30
 8003128:	687b      	ldr	r3, [r7, #4]
 800312a:	681b      	ldr	r3, [r3, #0]
 800312c:	f022 020f 	bic.w	r2, r2, #15
 8003130:	631a      	str	r2, [r3, #48]	@ 0x30
    }

    /* Initialize the ADC state */
    /* Clear HAL_ADC_STATE_BUSY_INTERNAL bit, set HAL_ADC_STATE_READY bit */
    ADC_STATE_CLR_SET(hadc->State, HAL_ADC_STATE_BUSY_INTERNAL, HAL_ADC_STATE_READY);
 8003132:	687b      	ldr	r3, [r7, #4]
 8003134:	6d9b      	ldr	r3, [r3, #88]	@ 0x58
 8003136:	f023 0303 	bic.w	r3, r3, #3
 800313a:	f043 0201 	orr.w	r2, r3, #1
 800313e:	687b      	ldr	r3, [r7, #4]
 8003140:	659a      	str	r2, [r3, #88]	@ 0x58
 8003142:	e007      	b.n	8003154 <HAL_ADC_Init+0x26c>
  }
  else
  {
    /* Update ADC state machine to error */
    SET_BIT(hadc->State, HAL_ADC_STATE_ERROR_INTERNAL);
 8003144:	687b      	ldr	r3, [r7, #4]
 8003146:	6d9b      	ldr	r3, [r3, #88]	@ 0x58
 8003148:	f043 0210 	orr.w	r2, r3, #16
 800314c:	687b      	ldr	r3, [r7, #4]
 800314e:	659a      	str	r2, [r3, #88]	@ 0x58

    tmp_hal_status = HAL_ERROR;
 8003150:	2301      	movs	r3, #1
 8003152:	77fb      	strb	r3, [r7, #31]
  }

  /* Return function status */
  return tmp_hal_status;
 8003154:	7ffb      	ldrb	r3, [r7, #31]
}
 8003156:	4618      	mov	r0, r3
 8003158:	3720      	adds	r7, #32
 800315a:	46bd      	mov	sp, r7
 800315c:	bd80      	pop	{r7, pc}
 800315e:	bf00      	nop
 8003160:	20000008 	.word	0x20000008
 8003164:	053e2d63 	.word	0x053e2d63
 8003168:	50040000 	.word	0x50040000
 800316c:	50040300 	.word	0x50040300
 8003170:	fff0c007 	.word	0xfff0c007

08003174 <HAL_ADC_MspInit>:
  * @brief  Initialize the ADC MSP.
  * @param hadc ADC handle
  * @retval None
  */
__weak void HAL_ADC_MspInit(ADC_HandleTypeDef *hadc)
{
 8003174:	b480      	push	{r7}
 8003176:	b083      	sub	sp, #12
 8003178:	af00      	add	r7, sp, #0
 800317a:	6078      	str	r0, [r7, #4]
  UNUSED(hadc);

  /* NOTE : This function should not be modified. When the callback is needed,
            function HAL_ADC_MspInit must be implemented in the user file.
   */
}
 800317c:	bf00      	nop
 800317e:	370c      	adds	r7, #12
 8003180:	46bd      	mov	sp, r7
 8003182:	f85d 7b04 	ldr.w	r7, [sp], #4
 8003186:	4770      	bx	lr

08003188 <HAL_ADC_Start>:
  *           if ADC is master, ADC is enabled and multimode conversion is started.
  * @param hadc ADC handle
  * @retval HAL status
  */
HAL_StatusTypeDef HAL_ADC_Start(ADC_HandleTypeDef *hadc)
{
 8003188:	b580      	push	{r7, lr}
 800318a:	b084      	sub	sp, #16
 800318c:	af00      	add	r7, sp, #0
 800318e:	6078      	str	r0, [r7, #4]

  /* Check the parameters */
  assert_param(IS_ADC_ALL_INSTANCE(hadc->Instance));

  /* Perform ADC enable and conversion start if no conversion is on going */
  if (LL_ADC_REG_IsConversionOngoing(hadc->Instance) == 0UL)
 8003190:	687b      	ldr	r3, [r7, #4]
 8003192:	681b      	ldr	r3, [r3, #0]
 8003194:	4618      	mov	r0, r3
 8003196:	f7ff fe80 	bl	8002e9a <LL_ADC_REG_IsConversionOngoing>
 800319a:	4603      	mov	r3, r0
 800319c:	2b00      	cmp	r3, #0
 800319e:	d14f      	bne.n	8003240 <HAL_ADC_Start+0xb8>
  {
    /* Process locked */
    __HAL_LOCK(hadc);
 80031a0:	687b      	ldr	r3, [r7, #4]
 80031a2:	f893 3054 	ldrb.w	r3, [r3, #84]	@ 0x54
 80031a6:	2b01      	cmp	r3, #1
 80031a8:	d101      	bne.n	80031ae <HAL_ADC_Start+0x26>
 80031aa:	2302      	movs	r3, #2
 80031ac:	e04b      	b.n	8003246 <HAL_ADC_Start+0xbe>
 80031ae:	687b      	ldr	r3, [r7, #4]
 80031b0:	2201      	movs	r2, #1
 80031b2:	f883 2054 	strb.w	r2, [r3, #84]	@ 0x54

    /* Enable the ADC peripheral */
    tmp_hal_status = ADC_Enable(hadc);
 80031b6:	6878      	ldr	r0, [r7, #4]
 80031b8:	f000 fce2 	bl	8003b80 <ADC_Enable>
 80031bc:	4603      	mov	r3, r0
 80031be:	73fb      	strb	r3, [r7, #15]

    /* Start conversion if ADC is effectively enabled */
    if (tmp_hal_status == HAL_OK)
 80031c0:	7bfb      	ldrb	r3, [r7, #15]
 80031c2:	2b00      	cmp	r3, #0
 80031c4:	d137      	bne.n	8003236 <HAL_ADC_Start+0xae>
    {
      /* Set ADC state                                                        */
      /* - Clear state bitfield related to regular group conversion results   */
      /* - Set state bitfield related to regular operation                    */
      ADC_STATE_CLR_SET(hadc->State,
 80031c6:	687b      	ldr	r3, [r7, #4]
 80031c8:	6d9b      	ldr	r3, [r3, #88]	@ 0x58
 80031ca:	f423 6370 	bic.w	r3, r3, #3840	@ 0xf00
 80031ce:	f023 0301 	bic.w	r3, r3, #1
 80031d2:	f443 7280 	orr.w	r2, r3, #256	@ 0x100
 80031d6:	687b      	ldr	r3, [r7, #4]
 80031d8:	659a      	str	r2, [r3, #88]	@ 0x58
      }
#endif /* ADC_MULTIMODE_SUPPORT */

      /* Set ADC error code */
      /* Check if a conversion is on going on ADC group injected */
      if (HAL_IS_BIT_SET(hadc->State, HAL_ADC_STATE_INJ_BUSY))
 80031da:	687b      	ldr	r3, [r7, #4]
 80031dc:	6d9b      	ldr	r3, [r3, #88]	@ 0x58
 80031de:	f403 5380 	and.w	r3, r3, #4096	@ 0x1000
 80031e2:	f5b3 5f80 	cmp.w	r3, #4096	@ 0x1000
 80031e6:	d106      	bne.n	80031f6 <HAL_ADC_Start+0x6e>
      {
        /* Reset ADC error code fields related to regular conversions only */
        CLEAR_BIT(hadc->ErrorCode, (HAL_ADC_ERROR_OVR | HAL_ADC_ERROR_DMA));
 80031e8:	687b      	ldr	r3, [r7, #4]
 80031ea:	6ddb      	ldr	r3, [r3, #92]	@ 0x5c
 80031ec:	f023 0206 	bic.w	r2, r3, #6
 80031f0:	687b      	ldr	r3, [r7, #4]
 80031f2:	65da      	str	r2, [r3, #92]	@ 0x5c
 80031f4:	e002      	b.n	80031fc <HAL_ADC_Start+0x74>
      }
      else
      {
        /* Reset all ADC error code fields */
        ADC_CLEAR_ERRORCODE(hadc);
 80031f6:	687b      	ldr	r3, [r7, #4]
 80031f8:	2200      	movs	r2, #0
 80031fa:	65da      	str	r2, [r3, #92]	@ 0x5c
      }

      /* Clear ADC group regular conversion flag and overrun flag               */
      /* (To ensure of no unknown state from potential previous ADC operations) */
      __HAL_ADC_CLEAR_FLAG(hadc, (ADC_FLAG_EOC | ADC_FLAG_EOS | ADC_FLAG_OVR));
 80031fc:	687b      	ldr	r3, [r7, #4]
 80031fe:	681b      	ldr	r3, [r3, #0]
 8003200:	221c      	movs	r2, #28
 8003202:	601a      	str	r2, [r3, #0]

      /* Process unlocked */
      /* Unlock before starting ADC conversions: in case of potential         */
      /* interruption, to let the process to ADC IRQ Handler.                 */
      __HAL_UNLOCK(hadc);
 8003204:	687b      	ldr	r3, [r7, #4]
 8003206:	2200      	movs	r2, #0
 8003208:	f883 2054 	strb.w	r2, [r3, #84]	@ 0x54
          ADC_STATE_CLR_SET(hadc->State, HAL_ADC_STATE_INJ_EOC, HAL_ADC_STATE_INJ_BUSY);
        }

      }
#else
      if (READ_BIT(hadc->Instance->CFGR, ADC_CFGR_JAUTO) != 0UL)
 800320c:	687b      	ldr	r3, [r7, #4]
 800320e:	681b      	ldr	r3, [r3, #0]
 8003210:	68db      	ldr	r3, [r3, #12]
 8003212:	f003 7300 	and.w	r3, r3, #33554432	@ 0x2000000
 8003216:	2b00      	cmp	r3, #0
 8003218:	d007      	beq.n	800322a <HAL_ADC_Start+0xa2>
      {
        ADC_STATE_CLR_SET(hadc->State, HAL_ADC_STATE_INJ_EOC, HAL_ADC_STATE_INJ_BUSY);
 800321a:	687b      	ldr	r3, [r7, #4]
 800321c:	6d9b      	ldr	r3, [r3, #88]	@ 0x58
 800321e:	f423 5340 	bic.w	r3, r3, #12288	@ 0x3000
 8003222:	f443 5280 	orr.w	r2, r3, #4096	@ 0x1000
 8003226:	687b      	ldr	r3, [r7, #4]
 8003228:	659a      	str	r2, [r3, #88]	@ 0x58
      }

      /* Start ADC group regular conversion */
      LL_ADC_REG_StartConversion(hadc->Instance);
 800322a:	687b      	ldr	r3, [r7, #4]
 800322c:	681b      	ldr	r3, [r3, #0]
 800322e:	4618      	mov	r0, r3
 8003230:	f7ff fe1f 	bl	8002e72 <LL_ADC_REG_StartConversion>
 8003234:	e006      	b.n	8003244 <HAL_ADC_Start+0xbc>
#endif /* ADC_MULTIMODE_SUPPORT */
    }
    else
    {
      /* Process unlocked */
      __HAL_UNLOCK(hadc);
 8003236:	687b      	ldr	r3, [r7, #4]
 8003238:	2200      	movs	r2, #0
 800323a:	f883 2054 	strb.w	r2, [r3, #84]	@ 0x54
 800323e:	e001      	b.n	8003244 <HAL_ADC_Start+0xbc>
    }
  }
  else
  {
    tmp_hal_status = HAL_BUSY;
 8003240:	2302      	movs	r3, #2
 8003242:	73fb      	strb	r3, [r7, #15]
  }

  /* Return function status */
  return tmp_hal_status;
 8003244:	7bfb      	ldrb	r3, [r7, #15]
}
 8003246:	4618      	mov	r0, r3
 8003248:	3710      	adds	r7, #16
 800324a:	46bd      	mov	sp, r7
 800324c:	bd80      	pop	{r7, pc}

0800324e <HAL_ADC_PollForConversion>:
  * @param hadc ADC handle
  * @param Timeout Timeout value in millisecond.
  * @retval HAL status
  */
HAL_StatusTypeDef HAL_ADC_PollForConversion(ADC_HandleTypeDef *hadc, uint32_t Timeout)
{
 800324e:	b580      	push	{r7, lr}
 8003250:	b086      	sub	sp, #24
 8003252:	af00      	add	r7, sp, #0
 8003254:	6078      	str	r0, [r7, #4]
 8003256:	6039      	str	r1, [r7, #0]

  /* Check the parameters */
  assert_param(IS_ADC_ALL_INSTANCE(hadc->Instance));

  /* If end of conversion selected to end of sequence conversions */
  if (hadc->Init.EOCSelection == ADC_EOC_SEQ_CONV)
 8003258:	687b      	ldr	r3, [r7, #4]
 800325a:	695b      	ldr	r3, [r3, #20]
 800325c:	2b08      	cmp	r3, #8
 800325e:	d102      	bne.n	8003266 <HAL_ADC_PollForConversion+0x18>
  {
    tmp_Flag_End = ADC_FLAG_EOS;
 8003260:	2308      	movs	r3, #8
 8003262:	617b      	str	r3, [r7, #20]
 8003264:	e010      	b.n	8003288 <HAL_ADC_PollForConversion+0x3a>
        tmp_Flag_End = (ADC_FLAG_EOC);
      }
    }
#else
    /* Check ADC DMA mode */
    if (READ_BIT(hadc->Instance->CFGR, ADC_CFGR_DMAEN) != 0UL)
 8003266:	687b      	ldr	r3, [r7, #4]
 8003268:	681b      	ldr	r3, [r3, #0]
 800326a:	68db      	ldr	r3, [r3, #12]
 800326c:	f003 0301 	and.w	r3, r3, #1
 8003270:	2b00      	cmp	r3, #0
 8003272:	d007      	beq.n	8003284 <HAL_ADC_PollForConversion+0x36>
    {
      SET_BIT(hadc->State, HAL_ADC_STATE_ERROR_CONFIG);
 8003274:	687b      	ldr	r3, [r7, #4]
 8003276:	6d9b      	ldr	r3, [r3, #88]	@ 0x58
 8003278:	f043 0220 	orr.w	r2, r3, #32
 800327c:	687b      	ldr	r3, [r7, #4]
 800327e:	659a      	str	r2, [r3, #88]	@ 0x58
      return HAL_ERROR;
 8003280:	2301      	movs	r3, #1
 8003282:	e06f      	b.n	8003364 <HAL_ADC_PollForConversion+0x116>
    }
    else
    {
      tmp_Flag_End = (ADC_FLAG_EOC);
 8003284:	2304      	movs	r3, #4
 8003286:	617b      	str	r3, [r7, #20]
    }
#endif /* ADC_MULTIMODE_SUPPORT */
  }

  /* Get tick count */
  tickstart = HAL_GetTick();
 8003288:	f7ff fc24 	bl	8002ad4 <HAL_GetTick>
 800328c:	6138      	str	r0, [r7, #16]

  /* Wait until End of unitary conversion or sequence conversions flag is raised */
  while ((hadc->Instance->ISR & tmp_Flag_End) == 0UL)
 800328e:	e021      	b.n	80032d4 <HAL_ADC_PollForConversion+0x86>
  {
    /* Check if timeout is disabled (set to infinite wait) */
    if (Timeout != HAL_MAX_DELAY)
 8003290:	683b      	ldr	r3, [r7, #0]
 8003292:	f1b3 3fff 	cmp.w	r3, #4294967295
 8003296:	d01d      	beq.n	80032d4 <HAL_ADC_PollForConversion+0x86>
    {
      if (((HAL_GetTick() - tickstart) > Timeout) || (Timeout == 0UL))
 8003298:	f7ff fc1c 	bl	8002ad4 <HAL_GetTick>
 800329c:	4602      	mov	r2, r0
 800329e:	693b      	ldr	r3, [r7, #16]
 80032a0:	1ad3      	subs	r3, r2, r3
 80032a2:	683a      	ldr	r2, [r7, #0]
 80032a4:	429a      	cmp	r2, r3
 80032a6:	d302      	bcc.n	80032ae <HAL_ADC_PollForConversion+0x60>
 80032a8:	683b      	ldr	r3, [r7, #0]
 80032aa:	2b00      	cmp	r3, #0
 80032ac:	d112      	bne.n	80032d4 <HAL_ADC_PollForConversion+0x86>
      {
        /* New check to avoid false timeout detection in case of preemption */
        if ((hadc->Instance->ISR & tmp_Flag_End) == 0UL)
 80032ae:	687b      	ldr	r3, [r7, #4]
 80032b0:	681b      	ldr	r3, [r3, #0]
 80032b2:	681a      	ldr	r2, [r3, #0]
 80032b4:	697b      	ldr	r3, [r7, #20]
 80032b6:	4013      	ands	r3, r2
 80032b8:	2b00      	cmp	r3, #0
 80032ba:	d10b      	bne.n	80032d4 <HAL_ADC_PollForConversion+0x86>
        {
          /* Update ADC state machine to timeout */
          SET_BIT(hadc->State, HAL_ADC_STATE_TIMEOUT);
 80032bc:	687b      	ldr	r3, [r7, #4]
 80032be:	6d9b      	ldr	r3, [r3, #88]	@ 0x58
 80032c0:	f043 0204 	orr.w	r2, r3, #4
 80032c4:	687b      	ldr	r3, [r7, #4]
 80032c6:	659a      	str	r2, [r3, #88]	@ 0x58

          /* Process unlocked */
          __HAL_UNLOCK(hadc);
 80032c8:	687b      	ldr	r3, [r7, #4]
 80032ca:	2200      	movs	r2, #0
 80032cc:	f883 2054 	strb.w	r2, [r3, #84]	@ 0x54

          return HAL_TIMEOUT;
 80032d0:	2303      	movs	r3, #3
 80032d2:	e047      	b.n	8003364 <HAL_ADC_PollForConversion+0x116>
  while ((hadc->Instance->ISR & tmp_Flag_End) == 0UL)
 80032d4:	687b      	ldr	r3, [r7, #4]
 80032d6:	681b      	ldr	r3, [r3, #0]
 80032d8:	681a      	ldr	r2, [r3, #0]
 80032da:	697b      	ldr	r3, [r7, #20]
 80032dc:	4013      	ands	r3, r2
 80032de:	2b00      	cmp	r3, #0
 80032e0:	d0d6      	beq.n	8003290 <HAL_ADC_PollForConversion+0x42>
      }
    }
  }

  /* Update ADC state machine */
  SET_BIT(hadc->State, HAL_ADC_STATE_REG_EOC);
 80032e2:	687b      	ldr	r3, [r7, #4]
 80032e4:	6d9b      	ldr	r3, [r3, #88]	@ 0x58
 80032e6:	f443 7200 	orr.w	r2, r3, #512	@ 0x200
 80032ea:	687b      	ldr	r3, [r7, #4]
 80032ec:	659a      	str	r2, [r3, #88]	@ 0x58

  /* Determine whether any further conversion upcoming on group regular       */
  /* by external trigger, continuous mode or scan sequence on going.          */
  if ((LL_ADC_REG_IsTriggerSourceSWStart(hadc->Instance) != 0UL)
 80032ee:	687b      	ldr	r3, [r7, #4]
 80032f0:	681b      	ldr	r3, [r3, #0]
 80032f2:	4618      	mov	r0, r3
 80032f4:	f7ff fcba 	bl	8002c6c <LL_ADC_REG_IsTriggerSourceSWStart>
 80032f8:	4603      	mov	r3, r0
 80032fa:	2b00      	cmp	r3, #0
 80032fc:	d01c      	beq.n	8003338 <HAL_ADC_PollForConversion+0xea>
      && (hadc->Init.ContinuousConvMode == DISABLE)
 80032fe:	687b      	ldr	r3, [r7, #4]
 8003300:	7e5b      	ldrb	r3, [r3, #25]
 8003302:	2b00      	cmp	r3, #0
 8003304:	d118      	bne.n	8003338 <HAL_ADC_PollForConversion+0xea>
     )
  {
    /* Check whether end of sequence is reached */
    if (__HAL_ADC_GET_FLAG(hadc, ADC_FLAG_EOS))
 8003306:	687b      	ldr	r3, [r7, #4]
 8003308:	681b      	ldr	r3, [r3, #0]
 800330a:	681b      	ldr	r3, [r3, #0]
 800330c:	f003 0308 	and.w	r3, r3, #8
 8003310:	2b08      	cmp	r3, #8
 8003312:	d111      	bne.n	8003338 <HAL_ADC_PollForConversion+0xea>
    {
      /* Set ADC state */
      CLEAR_BIT(hadc->State, HAL_ADC_STATE_REG_BUSY);
 8003314:	687b      	ldr	r3, [r7, #4]
 8003316:	6d9b      	ldr	r3, [r3, #88]	@ 0x58
 8003318:	f423 7280 	bic.w	r2, r3, #256	@ 0x100
 800331c:	687b      	ldr	r3, [r7, #4]
 800331e:	659a      	str	r2, [r3, #88]	@ 0x58

      if ((hadc->State & HAL_ADC_STATE_INJ_BUSY) == 0UL)
 8003320:	687b      	ldr	r3, [r7, #4]
 8003322:	6d9b      	ldr	r3, [r3, #88]	@ 0x58
 8003324:	f403 5380 	and.w	r3, r3, #4096	@ 0x1000
 8003328:	2b00      	cmp	r3, #0
 800332a:	d105      	bne.n	8003338 <HAL_ADC_PollForConversion+0xea>
      {
        SET_BIT(hadc->State, HAL_ADC_STATE_READY);
 800332c:	687b      	ldr	r3, [r7, #4]
 800332e:	6d9b      	ldr	r3, [r3, #88]	@ 0x58
 8003330:	f043 0201 	orr.w	r2, r3, #1
 8003334:	687b      	ldr	r3, [r7, #4]
 8003336:	659a      	str	r2, [r3, #88]	@ 0x58
    tmpADC_Master = __LL_ADC_MULTI_INSTANCE_MASTER(hadc->Instance);
    tmp_cfgr = READ_REG(tmpADC_Master->CFGR);
  }
#else
  /* Retrieve handle ADC CFGR register */
  tmp_cfgr = READ_REG(hadc->Instance->CFGR);
 8003338:	687b      	ldr	r3, [r7, #4]
 800333a:	681b      	ldr	r3, [r3, #0]
 800333c:	68db      	ldr	r3, [r3, #12]
 800333e:	60fb      	str	r3, [r7, #12]
#endif /* ADC_MULTIMODE_SUPPORT */

  /* Clear polled flag */
  if (tmp_Flag_End == ADC_FLAG_EOS)
 8003340:	697b      	ldr	r3, [r7, #20]
 8003342:	2b08      	cmp	r3, #8
 8003344:	d104      	bne.n	8003350 <HAL_ADC_PollForConversion+0x102>
  {
    __HAL_ADC_CLEAR_FLAG(hadc, ADC_FLAG_EOS);
 8003346:	687b      	ldr	r3, [r7, #4]
 8003348:	681b      	ldr	r3, [r3, #0]
 800334a:	2208      	movs	r2, #8
 800334c:	601a      	str	r2, [r3, #0]
 800334e:	e008      	b.n	8003362 <HAL_ADC_PollForConversion+0x114>
  else
  {
    /* Clear end of conversion EOC flag of regular group if low power feature */
    /* "LowPowerAutoWait " is disabled, to not interfere with this feature    */
    /* until data register is read using function HAL_ADC_GetValue().         */
    if (READ_BIT(tmp_cfgr, ADC_CFGR_AUTDLY) == 0UL)
 8003350:	68fb      	ldr	r3, [r7, #12]
 8003352:	f403 4380 	and.w	r3, r3, #16384	@ 0x4000
 8003356:	2b00      	cmp	r3, #0
 8003358:	d103      	bne.n	8003362 <HAL_ADC_PollForConversion+0x114>
    {
      __HAL_ADC_CLEAR_FLAG(hadc, (ADC_FLAG_EOC | ADC_FLAG_EOS));
 800335a:	687b      	ldr	r3, [r7, #4]
 800335c:	681b      	ldr	r3, [r3, #0]
 800335e:	220c      	movs	r2, #12
 8003360:	601a      	str	r2, [r3, #0]
    }
  }

  /* Return function status */
  return HAL_OK;
 8003362:	2300      	movs	r3, #0
}
 8003364:	4618      	mov	r0, r3
 8003366:	3718      	adds	r7, #24
 8003368:	46bd      	mov	sp, r7
 800336a:	bd80      	pop	{r7, pc}

0800336c <HAL_ADC_GetValue>:
  *         or @ref __HAL_ADC_CLEAR_FLAG(&hadc, ADC_FLAG_EOS).
  * @param hadc ADC handle
  * @retval ADC group regular conversion data
  */
uint32_t HAL_ADC_GetValue(const ADC_HandleTypeDef *hadc)
{
 800336c:	b480      	push	{r7}
 800336e:	b083      	sub	sp, #12
 8003370:	af00      	add	r7, sp, #0
 8003372:	6078      	str	r0, [r7, #4]

  /* Note: EOC flag is not cleared here by software because automatically     */
  /*       cleared by hardware when reading register DR.                      */

  /* Return ADC converted value */
  return hadc->Instance->DR;
 8003374:	687b      	ldr	r3, [r7, #4]
 8003376:	681b      	ldr	r3, [r3, #0]
 8003378:	6c1b      	ldr	r3, [r3, #64]	@ 0x40
}
 800337a:	4618      	mov	r0, r3
 800337c:	370c      	adds	r7, #12
 800337e:	46bd      	mov	sp, r7
 8003380:	f85d 7b04 	ldr.w	r7, [sp], #4
 8003384:	4770      	bx	lr
	...

08003388 <HAL_ADC_ConfigChannel>:
  * @param hadc ADC handle
  * @param pConfig Structure of ADC channel assigned to ADC group regular.
  * @retval HAL status
  */
HAL_StatusTypeDef HAL_ADC_ConfigChannel(ADC_HandleTypeDef *hadc, const ADC_ChannelConfTypeDef *pConfig)
{
 8003388:	b580      	push	{r7, lr}
 800338a:	b0b6      	sub	sp, #216	@ 0xd8
 800338c:	af00      	add	r7, sp, #0
 800338e:	6078      	str	r0, [r7, #4]
 8003390:	6039      	str	r1, [r7, #0]
  HAL_StatusTypeDef tmp_hal_status = HAL_OK;
 8003392:	2300      	movs	r3, #0
 8003394:	f887 30d7 	strb.w	r3, [r7, #215]	@ 0xd7
  uint32_t tmpOffsetShifted;
  uint32_t tmp_config_internal_channel;
  __IO uint32_t wait_loop_index = 0UL;
 8003398:	2300      	movs	r3, #0
 800339a:	60bb      	str	r3, [r7, #8]
  {
    assert_param(IS_ADC_DIFF_CHANNEL(hadc, pConfig->Channel));
  }

  /* Process locked */
  __HAL_LOCK(hadc);
 800339c:	687b      	ldr	r3, [r7, #4]
 800339e:	f893 3054 	ldrb.w	r3, [r3, #84]	@ 0x54
 80033a2:	2b01      	cmp	r3, #1
 80033a4:	d101      	bne.n	80033aa <HAL_ADC_ConfigChannel+0x22>
 80033a6:	2302      	movs	r3, #2
 80033a8:	e3d5      	b.n	8003b56 <HAL_ADC_ConfigChannel+0x7ce>
 80033aa:	687b      	ldr	r3, [r7, #4]
 80033ac:	2201      	movs	r2, #1
 80033ae:	f883 2054 	strb.w	r2, [r3, #84]	@ 0x54
  /* Parameters update conditioned to ADC state:                              */
  /* Parameters that can be updated when ADC is disabled or enabled without   */
  /* conversion on going on regular group:                                    */
  /*  - Channel number                                                        */
  /*  - Channel rank                                                          */
  if (LL_ADC_REG_IsConversionOngoing(hadc->Instance) == 0UL)
 80033b2:	687b      	ldr	r3, [r7, #4]
 80033b4:	681b      	ldr	r3, [r3, #0]
 80033b6:	4618      	mov	r0, r3
 80033b8:	f7ff fd6f 	bl	8002e9a <LL_ADC_REG_IsConversionOngoing>
 80033bc:	4603      	mov	r3, r0
 80033be:	2b00      	cmp	r3, #0
 80033c0:	f040 83ba 	bne.w	8003b38 <HAL_ADC_ConfigChannel+0x7b0>
  {
#if !defined (USE_FULL_ASSERT)
    uint32_t config_rank = pConfig->Rank;
 80033c4:	683b      	ldr	r3, [r7, #0]
 80033c6:	685b      	ldr	r3, [r3, #4]
 80033c8:	f8c7 30d0 	str.w	r3, [r7, #208]	@ 0xd0
    /* Correspondence for compatibility with legacy definition of             */
    /* sequencer ranks in direct number format. This correspondence can       */
    /* be done only on ranks 1 to 5 due to literal values.                    */
    /* Note: Sequencer ranks in direct number format are no more used         */
    /*       and are detected by activating USE_FULL_ASSERT feature.          */
    if (pConfig->Rank <= 5U)
 80033cc:	683b      	ldr	r3, [r7, #0]
 80033ce:	685b      	ldr	r3, [r3, #4]
 80033d0:	2b05      	cmp	r3, #5
 80033d2:	d824      	bhi.n	800341e <HAL_ADC_ConfigChannel+0x96>
    {
      switch (pConfig->Rank)
 80033d4:	683b      	ldr	r3, [r7, #0]
 80033d6:	685b      	ldr	r3, [r3, #4]
 80033d8:	3b02      	subs	r3, #2
 80033da:	2b03      	cmp	r3, #3
 80033dc:	d81b      	bhi.n	8003416 <HAL_ADC_ConfigChannel+0x8e>
 80033de:	a201      	add	r2, pc, #4	@ (adr r2, 80033e4 <HAL_ADC_ConfigChannel+0x5c>)
 80033e0:	f852 f023 	ldr.w	pc, [r2, r3, lsl #2]
 80033e4:	080033f5 	.word	0x080033f5
 80033e8:	080033fd 	.word	0x080033fd
 80033ec:	08003405 	.word	0x08003405
 80033f0:	0800340d 	.word	0x0800340d
      {
        case 2U:
          config_rank = ADC_REGULAR_RANK_2;
 80033f4:	230c      	movs	r3, #12
 80033f6:	f8c7 30d0 	str.w	r3, [r7, #208]	@ 0xd0
          break;
 80033fa:	e010      	b.n	800341e <HAL_ADC_ConfigChannel+0x96>
        case 3U:
          config_rank = ADC_REGULAR_RANK_3;
 80033fc:	2312      	movs	r3, #18
 80033fe:	f8c7 30d0 	str.w	r3, [r7, #208]	@ 0xd0
          break;
 8003402:	e00c      	b.n	800341e <HAL_ADC_ConfigChannel+0x96>
        case 4U:
          config_rank = ADC_REGULAR_RANK_4;
 8003404:	2318      	movs	r3, #24
 8003406:	f8c7 30d0 	str.w	r3, [r7, #208]	@ 0xd0
          break;
 800340a:	e008      	b.n	800341e <HAL_ADC_ConfigChannel+0x96>
        case 5U:
          config_rank = ADC_REGULAR_RANK_5;
 800340c:	f44f 7380 	mov.w	r3, #256	@ 0x100
 8003410:	f8c7 30d0 	str.w	r3, [r7, #208]	@ 0xd0
          break;
 8003414:	e003      	b.n	800341e <HAL_ADC_ConfigChannel+0x96>
        /* case 1U */
        default:
          config_rank = ADC_REGULAR_RANK_1;
 8003416:	2306      	movs	r3, #6
 8003418:	f8c7 30d0 	str.w	r3, [r7, #208]	@ 0xd0
          break;
 800341c:	bf00      	nop
      }
    }
    /* Set ADC group regular sequence: channel on the selected scan sequence rank */
    LL_ADC_REG_SetSequencerRanks(hadc->Instance, config_rank, pConfig->Channel);
 800341e:	687b      	ldr	r3, [r7, #4]
 8003420:	6818      	ldr	r0, [r3, #0]
 8003422:	683b      	ldr	r3, [r7, #0]
 8003424:	681b      	ldr	r3, [r3, #0]
 8003426:	461a      	mov	r2, r3
 8003428:	f8d7 10d0 	ldr.w	r1, [r7, #208]	@ 0xd0
 800342c:	f7ff fc31 	bl	8002c92 <LL_ADC_REG_SetSequencerRanks>
    /* Parameters update conditioned to ADC state:                              */
    /* Parameters that can be updated when ADC is disabled or enabled without   */
    /* conversion on going on regular group:                                    */
    /*  - Channel sampling time                                                 */
    /*  - Channel offset                                                        */
    tmp_adc_is_conversion_on_going_regular = LL_ADC_REG_IsConversionOngoing(hadc->Instance);
 8003430:	687b      	ldr	r3, [r7, #4]
 8003432:	681b      	ldr	r3, [r3, #0]
 8003434:	4618      	mov	r0, r3
 8003436:	f7ff fd30 	bl	8002e9a <LL_ADC_REG_IsConversionOngoing>
 800343a:	f8c7 00cc 	str.w	r0, [r7, #204]	@ 0xcc
    tmp_adc_is_conversion_on_going_injected = LL_ADC_INJ_IsConversionOngoing(hadc->Instance);
 800343e:	687b      	ldr	r3, [r7, #4]
 8003440:	681b      	ldr	r3, [r3, #0]
 8003442:	4618      	mov	r0, r3
 8003444:	f7ff fd3c 	bl	8002ec0 <LL_ADC_INJ_IsConversionOngoing>
 8003448:	f8c7 00c8 	str.w	r0, [r7, #200]	@ 0xc8
    if ((tmp_adc_is_conversion_on_going_regular == 0UL)
 800344c:	f8d7 30cc 	ldr.w	r3, [r7, #204]	@ 0xcc
 8003450:	2b00      	cmp	r3, #0
 8003452:	f040 81bf 	bne.w	80037d4 <HAL_ADC_ConfigChannel+0x44c>
        && (tmp_adc_is_conversion_on_going_injected == 0UL)
 8003456:	f8d7 30c8 	ldr.w	r3, [r7, #200]	@ 0xc8
 800345a:	2b00      	cmp	r3, #0
 800345c:	f040 81ba 	bne.w	80037d4 <HAL_ADC_ConfigChannel+0x44c>
       )
    {
#if defined(ADC_SMPR1_SMPPLUS)
      /* Manage specific case of sampling time 3.5 cycles replacing 2.5 cyles */
      if (pConfig->SamplingTime == ADC_SAMPLETIME_3CYCLES_5)
 8003460:	683b      	ldr	r3, [r7, #0]
 8003462:	689b      	ldr	r3, [r3, #8]
 8003464:	f1b3 4f00 	cmp.w	r3, #2147483648	@ 0x80000000
 8003468:	d10f      	bne.n	800348a <HAL_ADC_ConfigChannel+0x102>
      {
        /* Set sampling time of the selected ADC channel */
        LL_ADC_SetChannelSamplingTime(hadc->Instance, pConfig->Channel, LL_ADC_SAMPLINGTIME_2CYCLES_5);
 800346a:	687b      	ldr	r3, [r7, #4]
 800346c:	6818      	ldr	r0, [r3, #0]
 800346e:	683b      	ldr	r3, [r7, #0]
 8003470:	681b      	ldr	r3, [r3, #0]
 8003472:	2200      	movs	r2, #0
 8003474:	4619      	mov	r1, r3
 8003476:	f7ff fc38 	bl	8002cea <LL_ADC_SetChannelSamplingTime>

        /* Set ADC sampling time common configuration */
        LL_ADC_SetSamplingTimeCommonConfig(hadc->Instance, LL_ADC_SAMPLINGTIME_COMMON_3C5_REPL_2C5);
 800347a:	687b      	ldr	r3, [r7, #4]
 800347c:	681b      	ldr	r3, [r3, #0]
 800347e:	f04f 4100 	mov.w	r1, #2147483648	@ 0x80000000
 8003482:	4618      	mov	r0, r3
 8003484:	f7ff fbdf 	bl	8002c46 <LL_ADC_SetSamplingTimeCommonConfig>
 8003488:	e00e      	b.n	80034a8 <HAL_ADC_ConfigChannel+0x120>
      }
      else
      {
        /* Set sampling time of the selected ADC channel */
        LL_ADC_SetChannelSamplingTime(hadc->Instance, pConfig->Channel, pConfig->SamplingTime);
 800348a:	687b      	ldr	r3, [r7, #4]
 800348c:	6818      	ldr	r0, [r3, #0]
 800348e:	683b      	ldr	r3, [r7, #0]
 8003490:	6819      	ldr	r1, [r3, #0]
 8003492:	683b      	ldr	r3, [r7, #0]
 8003494:	689b      	ldr	r3, [r3, #8]
 8003496:	461a      	mov	r2, r3
 8003498:	f7ff fc27 	bl	8002cea <LL_ADC_SetChannelSamplingTime>

        /* Set ADC sampling time common configuration */
        LL_ADC_SetSamplingTimeCommonConfig(hadc->Instance, LL_ADC_SAMPLINGTIME_COMMON_DEFAULT);
 800349c:	687b      	ldr	r3, [r7, #4]
 800349e:	681b      	ldr	r3, [r3, #0]
 80034a0:	2100      	movs	r1, #0
 80034a2:	4618      	mov	r0, r3
 80034a4:	f7ff fbcf 	bl	8002c46 <LL_ADC_SetSamplingTimeCommonConfig>

      /* Configure the offset: offset enable/disable, channel, offset value */

      /* Shift the offset with respect to the selected ADC resolution. */
      /* Offset has to be left-aligned on bit 11, the LSB (right bits) are set to 0 */
      tmpOffsetShifted = ADC_OFFSET_SHIFT_RESOLUTION(hadc, (uint32_t)pConfig->Offset);
 80034a8:	683b      	ldr	r3, [r7, #0]
 80034aa:	695a      	ldr	r2, [r3, #20]
 80034ac:	687b      	ldr	r3, [r7, #4]
 80034ae:	681b      	ldr	r3, [r3, #0]
 80034b0:	68db      	ldr	r3, [r3, #12]
 80034b2:	08db      	lsrs	r3, r3, #3
 80034b4:	f003 0303 	and.w	r3, r3, #3
 80034b8:	005b      	lsls	r3, r3, #1
 80034ba:	fa02 f303 	lsl.w	r3, r2, r3
 80034be:	f8c7 30c4 	str.w	r3, [r7, #196]	@ 0xc4

      if (pConfig->OffsetNumber != ADC_OFFSET_NONE)
 80034c2:	683b      	ldr	r3, [r7, #0]
 80034c4:	691b      	ldr	r3, [r3, #16]
 80034c6:	2b04      	cmp	r3, #4
 80034c8:	d00a      	beq.n	80034e0 <HAL_ADC_ConfigChannel+0x158>
      {
        /* Set ADC selected offset number */
        LL_ADC_SetOffset(hadc->Instance, pConfig->OffsetNumber, pConfig->Channel, tmpOffsetShifted);
 80034ca:	687b      	ldr	r3, [r7, #4]
 80034cc:	6818      	ldr	r0, [r3, #0]
 80034ce:	683b      	ldr	r3, [r7, #0]
 80034d0:	6919      	ldr	r1, [r3, #16]
 80034d2:	683b      	ldr	r3, [r7, #0]
 80034d4:	681a      	ldr	r2, [r3, #0]
 80034d6:	f8d7 30c4 	ldr.w	r3, [r7, #196]	@ 0xc4
 80034da:	f7ff fb5f 	bl	8002b9c <LL_ADC_SetOffset>
 80034de:	e179      	b.n	80037d4 <HAL_ADC_ConfigChannel+0x44c>
      }
      else
      {
        /* Scan each offset register to check if the selected channel is targeted. */
        /* If this is the case, the corresponding offset number is disabled.       */
        if (__LL_ADC_CHANNEL_TO_DECIMAL_NB(LL_ADC_GetOffsetChannel(hadc->Instance, LL_ADC_OFFSET_1))
 80034e0:	687b      	ldr	r3, [r7, #4]
 80034e2:	681b      	ldr	r3, [r3, #0]
 80034e4:	2100      	movs	r1, #0
 80034e6:	4618      	mov	r0, r3
 80034e8:	f7ff fb7c 	bl	8002be4 <LL_ADC_GetOffsetChannel>
 80034ec:	4603      	mov	r3, r0
 80034ee:	f3c3 0312 	ubfx	r3, r3, #0, #19
 80034f2:	2b00      	cmp	r3, #0
 80034f4:	d10a      	bne.n	800350c <HAL_ADC_ConfigChannel+0x184>
 80034f6:	687b      	ldr	r3, [r7, #4]
 80034f8:	681b      	ldr	r3, [r3, #0]
 80034fa:	2100      	movs	r1, #0
 80034fc:	4618      	mov	r0, r3
 80034fe:	f7ff fb71 	bl	8002be4 <LL_ADC_GetOffsetChannel>
 8003502:	4603      	mov	r3, r0
 8003504:	0e9b      	lsrs	r3, r3, #26
 8003506:	f003 021f 	and.w	r2, r3, #31
 800350a:	e01e      	b.n	800354a <HAL_ADC_ConfigChannel+0x1c2>
 800350c:	687b      	ldr	r3, [r7, #4]
 800350e:	681b      	ldr	r3, [r3, #0]
 8003510:	2100      	movs	r1, #0
 8003512:	4618      	mov	r0, r3
 8003514:	f7ff fb66 	bl	8002be4 <LL_ADC_GetOffsetChannel>
 8003518:	4603      	mov	r3, r0
 800351a:	f8c7 30b8 	str.w	r3, [r7, #184]	@ 0xb8
  uint32_t result;

#if ((defined (__ARM_ARCH_7M__      ) && (__ARM_ARCH_7M__      == 1)) || \
     (defined (__ARM_ARCH_7EM__     ) && (__ARM_ARCH_7EM__     == 1)) || \
     (defined (__ARM_ARCH_8M_MAIN__ ) && (__ARM_ARCH_8M_MAIN__ == 1))    )
   __ASM volatile ("rbit %0, %1" : "=r" (result) : "r" (value) );
 800351e:	f8d7 30b8 	ldr.w	r3, [r7, #184]	@ 0xb8
 8003522:	fa93 f3a3 	rbit	r3, r3
 8003526:	f8c7 30bc 	str.w	r3, [r7, #188]	@ 0xbc
    result |= value & 1U;
    s--;
  }
  result <<= s;                        /* shift when v's highest bits are zero */
#endif
  return result;
 800352a:	f8d7 30bc 	ldr.w	r3, [r7, #188]	@ 0xbc
 800352e:	f8c7 30b4 	str.w	r3, [r7, #180]	@ 0xb4
     optimisations using the logic "value was passed to __builtin_clz, so it
     is non-zero".
     ARM GCC 7.3 and possibly earlier will optimise this test away, leaving a
     single CLZ instruction.
   */
  if (value == 0U)
 8003532:	f8d7 30b4 	ldr.w	r3, [r7, #180]	@ 0xb4
 8003536:	2b00      	cmp	r3, #0
 8003538:	d101      	bne.n	800353e <HAL_ADC_ConfigChannel+0x1b6>
  {
    return 32U;
 800353a:	2320      	movs	r3, #32
 800353c:	e004      	b.n	8003548 <HAL_ADC_ConfigChannel+0x1c0>
  }
  return __builtin_clz(value);
 800353e:	f8d7 30b4 	ldr.w	r3, [r7, #180]	@ 0xb4
 8003542:	fab3 f383 	clz	r3, r3
 8003546:	b2db      	uxtb	r3, r3
 8003548:	461a      	mov	r2, r3
            == __LL_ADC_CHANNEL_TO_DECIMAL_NB(pConfig->Channel))
 800354a:	683b      	ldr	r3, [r7, #0]
 800354c:	681b      	ldr	r3, [r3, #0]
 800354e:	f3c3 0312 	ubfx	r3, r3, #0, #19
 8003552:	2b00      	cmp	r3, #0
 8003554:	d105      	bne.n	8003562 <HAL_ADC_ConfigChannel+0x1da>
 8003556:	683b      	ldr	r3, [r7, #0]
 8003558:	681b      	ldr	r3, [r3, #0]
 800355a:	0e9b      	lsrs	r3, r3, #26
 800355c:	f003 031f 	and.w	r3, r3, #31
 8003560:	e018      	b.n	8003594 <HAL_ADC_ConfigChannel+0x20c>
 8003562:	683b      	ldr	r3, [r7, #0]
 8003564:	681b      	ldr	r3, [r3, #0]
 8003566:	f8c7 30ac 	str.w	r3, [r7, #172]	@ 0xac
   __ASM volatile ("rbit %0, %1" : "=r" (result) : "r" (value) );
 800356a:	f8d7 30ac 	ldr.w	r3, [r7, #172]	@ 0xac
 800356e:	fa93 f3a3 	rbit	r3, r3
 8003572:	f8c7 30a8 	str.w	r3, [r7, #168]	@ 0xa8
  return result;
 8003576:	f8d7 30a8 	ldr.w	r3, [r7, #168]	@ 0xa8
 800357a:	f8c7 30b0 	str.w	r3, [r7, #176]	@ 0xb0
  if (value == 0U)
 800357e:	f8d7 30b0 	ldr.w	r3, [r7, #176]	@ 0xb0
 8003582:	2b00      	cmp	r3, #0
 8003584:	d101      	bne.n	800358a <HAL_ADC_ConfigChannel+0x202>
    return 32U;
 8003586:	2320      	movs	r3, #32
 8003588:	e004      	b.n	8003594 <HAL_ADC_ConfigChannel+0x20c>
  return __builtin_clz(value);
 800358a:	f8d7 30b0 	ldr.w	r3, [r7, #176]	@ 0xb0
 800358e:	fab3 f383 	clz	r3, r3
 8003592:	b2db      	uxtb	r3, r3
        if (__LL_ADC_CHANNEL_TO_DECIMAL_NB(LL_ADC_GetOffsetChannel(hadc->Instance, LL_ADC_OFFSET_1))
 8003594:	429a      	cmp	r2, r3
 8003596:	d106      	bne.n	80035a6 <HAL_ADC_ConfigChannel+0x21e>
        {
          LL_ADC_SetOffsetState(hadc->Instance, LL_ADC_OFFSET_1, LL_ADC_OFFSET_DISABLE);
 8003598:	687b      	ldr	r3, [r7, #4]
 800359a:	681b      	ldr	r3, [r3, #0]
 800359c:	2200      	movs	r2, #0
 800359e:	2100      	movs	r1, #0
 80035a0:	4618      	mov	r0, r3
 80035a2:	f7ff fb35 	bl	8002c10 <LL_ADC_SetOffsetState>
        }
        if (__LL_ADC_CHANNEL_TO_DECIMAL_NB(LL_ADC_GetOffsetChannel(hadc->Instance, LL_ADC_OFFSET_2))
 80035a6:	687b      	ldr	r3, [r7, #4]
 80035a8:	681b      	ldr	r3, [r3, #0]
 80035aa:	2101      	movs	r1, #1
 80035ac:	4618      	mov	r0, r3
 80035ae:	f7ff fb19 	bl	8002be4 <LL_ADC_GetOffsetChannel>
 80035b2:	4603      	mov	r3, r0
 80035b4:	f3c3 0312 	ubfx	r3, r3, #0, #19
 80035b8:	2b00      	cmp	r3, #0
 80035ba:	d10a      	bne.n	80035d2 <HAL_ADC_ConfigChannel+0x24a>
 80035bc:	687b      	ldr	r3, [r7, #4]
 80035be:	681b      	ldr	r3, [r3, #0]
 80035c0:	2101      	movs	r1, #1
 80035c2:	4618      	mov	r0, r3
 80035c4:	f7ff fb0e 	bl	8002be4 <LL_ADC_GetOffsetChannel>
 80035c8:	4603      	mov	r3, r0
 80035ca:	0e9b      	lsrs	r3, r3, #26
 80035cc:	f003 021f 	and.w	r2, r3, #31
 80035d0:	e01e      	b.n	8003610 <HAL_ADC_ConfigChannel+0x288>
 80035d2:	687b      	ldr	r3, [r7, #4]
 80035d4:	681b      	ldr	r3, [r3, #0]
 80035d6:	2101      	movs	r1, #1
 80035d8:	4618      	mov	r0, r3
 80035da:	f7ff fb03 	bl	8002be4 <LL_ADC_GetOffsetChannel>
 80035de:	4603      	mov	r3, r0
 80035e0:	f8c7 30a0 	str.w	r3, [r7, #160]	@ 0xa0
   __ASM volatile ("rbit %0, %1" : "=r" (result) : "r" (value) );
 80035e4:	f8d7 30a0 	ldr.w	r3, [r7, #160]	@ 0xa0
 80035e8:	fa93 f3a3 	rbit	r3, r3
 80035ec:	f8c7 309c 	str.w	r3, [r7, #156]	@ 0x9c
  return result;
 80035f0:	f8d7 309c 	ldr.w	r3, [r7, #156]	@ 0x9c
 80035f4:	f8c7 30a4 	str.w	r3, [r7, #164]	@ 0xa4
  if (value == 0U)
 80035f8:	f8d7 30a4 	ldr.w	r3, [r7, #164]	@ 0xa4
 80035fc:	2b00      	cmp	r3, #0
 80035fe:	d101      	bne.n	8003604 <HAL_ADC_ConfigChannel+0x27c>
    return 32U;
 8003600:	2320      	movs	r3, #32
 8003602:	e004      	b.n	800360e <HAL_ADC_ConfigChannel+0x286>
  return __builtin_clz(value);
 8003604:	f8d7 30a4 	ldr.w	r3, [r7, #164]	@ 0xa4
 8003608:	fab3 f383 	clz	r3, r3
 800360c:	b2db      	uxtb	r3, r3
 800360e:	461a      	mov	r2, r3
            == __LL_ADC_CHANNEL_TO_DECIMAL_NB(pConfig->Channel))
 8003610:	683b      	ldr	r3, [r7, #0]
 8003612:	681b      	ldr	r3, [r3, #0]
 8003614:	f3c3 0312 	ubfx	r3, r3, #0, #19
 8003618:	2b00      	cmp	r3, #0
 800361a:	d105      	bne.n	8003628 <HAL_ADC_ConfigChannel+0x2a0>
 800361c:	683b      	ldr	r3, [r7, #0]
 800361e:	681b      	ldr	r3, [r3, #0]
 8003620:	0e9b      	lsrs	r3, r3, #26
 8003622:	f003 031f 	and.w	r3, r3, #31
 8003626:	e018      	b.n	800365a <HAL_ADC_ConfigChannel+0x2d2>
 8003628:	683b      	ldr	r3, [r7, #0]
 800362a:	681b      	ldr	r3, [r3, #0]
 800362c:	f8c7 3094 	str.w	r3, [r7, #148]	@ 0x94
   __ASM volatile ("rbit %0, %1" : "=r" (result) : "r" (value) );
 8003630:	f8d7 3094 	ldr.w	r3, [r7, #148]	@ 0x94
 8003634:	fa93 f3a3 	rbit	r3, r3
 8003638:	f8c7 3090 	str.w	r3, [r7, #144]	@ 0x90
  return result;
 800363c:	f8d7 3090 	ldr.w	r3, [r7, #144]	@ 0x90
 8003640:	f8c7 3098 	str.w	r3, [r7, #152]	@ 0x98
  if (value == 0U)
 8003644:	f8d7 3098 	ldr.w	r3, [r7, #152]	@ 0x98
 8003648:	2b00      	cmp	r3, #0
 800364a:	d101      	bne.n	8003650 <HAL_ADC_ConfigChannel+0x2c8>
    return 32U;
 800364c:	2320      	movs	r3, #32
 800364e:	e004      	b.n	800365a <HAL_ADC_ConfigChannel+0x2d2>
  return __builtin_clz(value);
 8003650:	f8d7 3098 	ldr.w	r3, [r7, #152]	@ 0x98
 8003654:	fab3 f383 	clz	r3, r3
 8003658:	b2db      	uxtb	r3, r3
        if (__LL_ADC_CHANNEL_TO_DECIMAL_NB(LL_ADC_GetOffsetChannel(hadc->Instance, LL_ADC_OFFSET_2))
 800365a:	429a      	cmp	r2, r3
 800365c:	d106      	bne.n	800366c <HAL_ADC_ConfigChannel+0x2e4>
        {
          LL_ADC_SetOffsetState(hadc->Instance, LL_ADC_OFFSET_2, LL_ADC_OFFSET_DISABLE);
 800365e:	687b      	ldr	r3, [r7, #4]
 8003660:	681b      	ldr	r3, [r3, #0]
 8003662:	2200      	movs	r2, #0
 8003664:	2101      	movs	r1, #1
 8003666:	4618      	mov	r0, r3
 8003668:	f7ff fad2 	bl	8002c10 <LL_ADC_SetOffsetState>
        }
        if (__LL_ADC_CHANNEL_TO_DECIMAL_NB(LL_ADC_GetOffsetChannel(hadc->Instance, LL_ADC_OFFSET_3))
 800366c:	687b      	ldr	r3, [r7, #4]
 800366e:	681b      	ldr	r3, [r3, #0]
 8003670:	2102      	movs	r1, #2
 8003672:	4618      	mov	r0, r3
 8003674:	f7ff fab6 	bl	8002be4 <LL_ADC_GetOffsetChannel>
 8003678:	4603      	mov	r3, r0
 800367a:	f3c3 0312 	ubfx	r3, r3, #0, #19
 800367e:	2b00      	cmp	r3, #0
 8003680:	d10a      	bne.n	8003698 <HAL_ADC_ConfigChannel+0x310>
 8003682:	687b      	ldr	r3, [r7, #4]
 8003684:	681b      	ldr	r3, [r3, #0]
 8003686:	2102      	movs	r1, #2
 8003688:	4618      	mov	r0, r3
 800368a:	f7ff faab 	bl	8002be4 <LL_ADC_GetOffsetChannel>
 800368e:	4603      	mov	r3, r0
 8003690:	0e9b      	lsrs	r3, r3, #26
 8003692:	f003 021f 	and.w	r2, r3, #31
 8003696:	e01e      	b.n	80036d6 <HAL_ADC_ConfigChannel+0x34e>
 8003698:	687b      	ldr	r3, [r7, #4]
 800369a:	681b      	ldr	r3, [r3, #0]
 800369c:	2102      	movs	r1, #2
 800369e:	4618      	mov	r0, r3
 80036a0:	f7ff faa0 	bl	8002be4 <LL_ADC_GetOffsetChannel>
 80036a4:	4603      	mov	r3, r0
 80036a6:	f8c7 3088 	str.w	r3, [r7, #136]	@ 0x88
   __ASM volatile ("rbit %0, %1" : "=r" (result) : "r" (value) );
 80036aa:	f8d7 3088 	ldr.w	r3, [r7, #136]	@ 0x88
 80036ae:	fa93 f3a3 	rbit	r3, r3
 80036b2:	f8c7 3084 	str.w	r3, [r7, #132]	@ 0x84
  return result;
 80036b6:	f8d7 3084 	ldr.w	r3, [r7, #132]	@ 0x84
 80036ba:	f8c7 308c 	str.w	r3, [r7, #140]	@ 0x8c
  if (value == 0U)
 80036be:	f8d7 308c 	ldr.w	r3, [r7, #140]	@ 0x8c
 80036c2:	2b00      	cmp	r3, #0
 80036c4:	d101      	bne.n	80036ca <HAL_ADC_ConfigChannel+0x342>
    return 32U;
 80036c6:	2320      	movs	r3, #32
 80036c8:	e004      	b.n	80036d4 <HAL_ADC_ConfigChannel+0x34c>
  return __builtin_clz(value);
 80036ca:	f8d7 308c 	ldr.w	r3, [r7, #140]	@ 0x8c
 80036ce:	fab3 f383 	clz	r3, r3
 80036d2:	b2db      	uxtb	r3, r3
 80036d4:	461a      	mov	r2, r3
            == __LL_ADC_CHANNEL_TO_DECIMAL_NB(pConfig->Channel))
 80036d6:	683b      	ldr	r3, [r7, #0]
 80036d8:	681b      	ldr	r3, [r3, #0]
 80036da:	f3c3 0312 	ubfx	r3, r3, #0, #19
 80036de:	2b00      	cmp	r3, #0
 80036e0:	d105      	bne.n	80036ee <HAL_ADC_ConfigChannel+0x366>
 80036e2:	683b      	ldr	r3, [r7, #0]
 80036e4:	681b      	ldr	r3, [r3, #0]
 80036e6:	0e9b      	lsrs	r3, r3, #26
 80036e8:	f003 031f 	and.w	r3, r3, #31
 80036ec:	e014      	b.n	8003718 <HAL_ADC_ConfigChannel+0x390>
 80036ee:	683b      	ldr	r3, [r7, #0]
 80036f0:	681b      	ldr	r3, [r3, #0]
 80036f2:	67fb      	str	r3, [r7, #124]	@ 0x7c
   __ASM volatile ("rbit %0, %1" : "=r" (result) : "r" (value) );
 80036f4:	6ffb      	ldr	r3, [r7, #124]	@ 0x7c
 80036f6:	fa93 f3a3 	rbit	r3, r3
 80036fa:	67bb      	str	r3, [r7, #120]	@ 0x78
  return result;
 80036fc:	6fbb      	ldr	r3, [r7, #120]	@ 0x78
 80036fe:	f8c7 3080 	str.w	r3, [r7, #128]	@ 0x80
  if (value == 0U)
 8003702:	f8d7 3080 	ldr.w	r3, [r7, #128]	@ 0x80
 8003706:	2b00      	cmp	r3, #0
 8003708:	d101      	bne.n	800370e <HAL_ADC_ConfigChannel+0x386>
    return 32U;
 800370a:	2320      	movs	r3, #32
 800370c:	e004      	b.n	8003718 <HAL_ADC_ConfigChannel+0x390>
  return __builtin_clz(value);
 800370e:	f8d7 3080 	ldr.w	r3, [r7, #128]	@ 0x80
 8003712:	fab3 f383 	clz	r3, r3
 8003716:	b2db      	uxtb	r3, r3
        if (__LL_ADC_CHANNEL_TO_DECIMAL_NB(LL_ADC_GetOffsetChannel(hadc->Instance, LL_ADC_OFFSET_3))
 8003718:	429a      	cmp	r2, r3
 800371a:	d106      	bne.n	800372a <HAL_ADC_ConfigChannel+0x3a2>
        {
          LL_ADC_SetOffsetState(hadc->Instance, LL_ADC_OFFSET_3, LL_ADC_OFFSET_DISABLE);
 800371c:	687b      	ldr	r3, [r7, #4]
 800371e:	681b      	ldr	r3, [r3, #0]
 8003720:	2200      	movs	r2, #0
 8003722:	2102      	movs	r1, #2
 8003724:	4618      	mov	r0, r3
 8003726:	f7ff fa73 	bl	8002c10 <LL_ADC_SetOffsetState>
        }
        if (__LL_ADC_CHANNEL_TO_DECIMAL_NB(LL_ADC_GetOffsetChannel(hadc->Instance, LL_ADC_OFFSET_4))
 800372a:	687b      	ldr	r3, [r7, #4]
 800372c:	681b      	ldr	r3, [r3, #0]
 800372e:	2103      	movs	r1, #3
 8003730:	4618      	mov	r0, r3
 8003732:	f7ff fa57 	bl	8002be4 <LL_ADC_GetOffsetChannel>
 8003736:	4603      	mov	r3, r0
 8003738:	f3c3 0312 	ubfx	r3, r3, #0, #19
 800373c:	2b00      	cmp	r3, #0
 800373e:	d10a      	bne.n	8003756 <HAL_ADC_ConfigChannel+0x3ce>
 8003740:	687b      	ldr	r3, [r7, #4]
 8003742:	681b      	ldr	r3, [r3, #0]
 8003744:	2103      	movs	r1, #3
 8003746:	4618      	mov	r0, r3
 8003748:	f7ff fa4c 	bl	8002be4 <LL_ADC_GetOffsetChannel>
 800374c:	4603      	mov	r3, r0
 800374e:	0e9b      	lsrs	r3, r3, #26
 8003750:	f003 021f 	and.w	r2, r3, #31
 8003754:	e017      	b.n	8003786 <HAL_ADC_ConfigChannel+0x3fe>
 8003756:	687b      	ldr	r3, [r7, #4]
 8003758:	681b      	ldr	r3, [r3, #0]
 800375a:	2103      	movs	r1, #3
 800375c:	4618      	mov	r0, r3
 800375e:	f7ff fa41 	bl	8002be4 <LL_ADC_GetOffsetChannel>
 8003762:	4603      	mov	r3, r0
 8003764:	673b      	str	r3, [r7, #112]	@ 0x70
   __ASM volatile ("rbit %0, %1" : "=r" (result) : "r" (value) );
 8003766:	6f3b      	ldr	r3, [r7, #112]	@ 0x70
 8003768:	fa93 f3a3 	rbit	r3, r3
 800376c:	66fb      	str	r3, [r7, #108]	@ 0x6c
  return result;
 800376e:	6efb      	ldr	r3, [r7, #108]	@ 0x6c
 8003770:	677b      	str	r3, [r7, #116]	@ 0x74
  if (value == 0U)
 8003772:	6f7b      	ldr	r3, [r7, #116]	@ 0x74
 8003774:	2b00      	cmp	r3, #0
 8003776:	d101      	bne.n	800377c <HAL_ADC_ConfigChannel+0x3f4>
    return 32U;
 8003778:	2320      	movs	r3, #32
 800377a:	e003      	b.n	8003784 <HAL_ADC_ConfigChannel+0x3fc>
  return __builtin_clz(value);
 800377c:	6f7b      	ldr	r3, [r7, #116]	@ 0x74
 800377e:	fab3 f383 	clz	r3, r3
 8003782:	b2db      	uxtb	r3, r3
 8003784:	461a      	mov	r2, r3
            == __LL_ADC_CHANNEL_TO_DECIMAL_NB(pConfig->Channel))
 8003786:	683b      	ldr	r3, [r7, #0]
 8003788:	681b      	ldr	r3, [r3, #0]
 800378a:	f3c3 0312 	ubfx	r3, r3, #0, #19
 800378e:	2b00      	cmp	r3, #0
 8003790:	d105      	bne.n	800379e <HAL_ADC_ConfigChannel+0x416>
 8003792:	683b      	ldr	r3, [r7, #0]
 8003794:	681b      	ldr	r3, [r3, #0]
 8003796:	0e9b      	lsrs	r3, r3, #26
 8003798:	f003 031f 	and.w	r3, r3, #31
 800379c:	e011      	b.n	80037c2 <HAL_ADC_ConfigChannel+0x43a>
 800379e:	683b      	ldr	r3, [r7, #0]
 80037a0:	681b      	ldr	r3, [r3, #0]
 80037a2:	667b      	str	r3, [r7, #100]	@ 0x64
   __ASM volatile ("rbit %0, %1" : "=r" (result) : "r" (value) );
 80037a4:	6e7b      	ldr	r3, [r7, #100]	@ 0x64
 80037a6:	fa93 f3a3 	rbit	r3, r3
 80037aa:	663b      	str	r3, [r7, #96]	@ 0x60
  return result;
 80037ac:	6e3b      	ldr	r3, [r7, #96]	@ 0x60
 80037ae:	66bb      	str	r3, [r7, #104]	@ 0x68
  if (value == 0U)
 80037b0:	6ebb      	ldr	r3, [r7, #104]	@ 0x68
 80037b2:	2b00      	cmp	r3, #0
 80037b4:	d101      	bne.n	80037ba <HAL_ADC_ConfigChannel+0x432>
    return 32U;
 80037b6:	2320      	movs	r3, #32
 80037b8:	e003      	b.n	80037c2 <HAL_ADC_ConfigChannel+0x43a>
  return __builtin_clz(value);
 80037ba:	6ebb      	ldr	r3, [r7, #104]	@ 0x68
 80037bc:	fab3 f383 	clz	r3, r3
 80037c0:	b2db      	uxtb	r3, r3
        if (__LL_ADC_CHANNEL_TO_DECIMAL_NB(LL_ADC_GetOffsetChannel(hadc->Instance, LL_ADC_OFFSET_4))
 80037c2:	429a      	cmp	r2, r3
 80037c4:	d106      	bne.n	80037d4 <HAL_ADC_ConfigChannel+0x44c>
        {
          LL_ADC_SetOffsetState(hadc->Instance, LL_ADC_OFFSET_4, LL_ADC_OFFSET_DISABLE);
 80037c6:	687b      	ldr	r3, [r7, #4]
 80037c8:	681b      	ldr	r3, [r3, #0]
 80037ca:	2200      	movs	r2, #0
 80037cc:	2103      	movs	r1, #3
 80037ce:	4618      	mov	r0, r3
 80037d0:	f7ff fa1e 	bl	8002c10 <LL_ADC_SetOffsetState>
    }

    /* Parameters update conditioned to ADC state:                              */
    /* Parameters that can be updated only when ADC is disabled:                */
    /*  - Single or differential mode                                           */
    if (LL_ADC_IsEnabled(hadc->Instance) == 0UL)
 80037d4:	687b      	ldr	r3, [r7, #4]
 80037d6:	681b      	ldr	r3, [r3, #0]
 80037d8:	4618      	mov	r0, r3
 80037da:	f7ff fb37 	bl	8002e4c <LL_ADC_IsEnabled>
 80037de:	4603      	mov	r3, r0
 80037e0:	2b00      	cmp	r3, #0
 80037e2:	f040 813f 	bne.w	8003a64 <HAL_ADC_ConfigChannel+0x6dc>
    {
      /* Set mode single-ended or differential input of the selected ADC channel */
      LL_ADC_SetChannelSingleDiff(hadc->Instance, pConfig->Channel, pConfig->SingleDiff);
 80037e6:	687b      	ldr	r3, [r7, #4]
 80037e8:	6818      	ldr	r0, [r3, #0]
 80037ea:	683b      	ldr	r3, [r7, #0]
 80037ec:	6819      	ldr	r1, [r3, #0]
 80037ee:	683b      	ldr	r3, [r7, #0]
 80037f0:	68db      	ldr	r3, [r3, #12]
 80037f2:	461a      	mov	r2, r3
 80037f4:	f7ff faa4 	bl	8002d40 <LL_ADC_SetChannelSingleDiff>

      /* Configuration of differential mode */
      if (pConfig->SingleDiff == ADC_DIFFERENTIAL_ENDED)
 80037f8:	683b      	ldr	r3, [r7, #0]
 80037fa:	68db      	ldr	r3, [r3, #12]
 80037fc:	4a8e      	ldr	r2, [pc, #568]	@ (8003a38 <HAL_ADC_ConfigChannel+0x6b0>)
 80037fe:	4293      	cmp	r3, r2
 8003800:	f040 8130 	bne.w	8003a64 <HAL_ADC_ConfigChannel+0x6dc>
      {
        /* Set sampling time of the selected ADC channel */
        /* Note: ADC channel number masked with value "0x1F" to ensure shift value within 32 bits range */
        LL_ADC_SetChannelSamplingTime(hadc->Instance,
 8003804:	687b      	ldr	r3, [r7, #4]
 8003806:	6818      	ldr	r0, [r3, #0]
                                      (uint32_t)(__LL_ADC_DECIMAL_NB_TO_CHANNEL(
 8003808:	683b      	ldr	r3, [r7, #0]
 800380a:	681b      	ldr	r3, [r3, #0]
 800380c:	f3c3 0312 	ubfx	r3, r3, #0, #19
 8003810:	2b00      	cmp	r3, #0
 8003812:	d10b      	bne.n	800382c <HAL_ADC_ConfigChannel+0x4a4>
 8003814:	683b      	ldr	r3, [r7, #0]
 8003816:	681b      	ldr	r3, [r3, #0]
 8003818:	0e9b      	lsrs	r3, r3, #26
 800381a:	3301      	adds	r3, #1
 800381c:	f003 031f 	and.w	r3, r3, #31
 8003820:	2b09      	cmp	r3, #9
 8003822:	bf94      	ite	ls
 8003824:	2301      	movls	r3, #1
 8003826:	2300      	movhi	r3, #0
 8003828:	b2db      	uxtb	r3, r3
 800382a:	e019      	b.n	8003860 <HAL_ADC_ConfigChannel+0x4d8>
 800382c:	683b      	ldr	r3, [r7, #0]
 800382e:	681b      	ldr	r3, [r3, #0]
 8003830:	65bb      	str	r3, [r7, #88]	@ 0x58
   __ASM volatile ("rbit %0, %1" : "=r" (result) : "r" (value) );
 8003832:	6dbb      	ldr	r3, [r7, #88]	@ 0x58
 8003834:	fa93 f3a3 	rbit	r3, r3
 8003838:	657b      	str	r3, [r7, #84]	@ 0x54
  return result;
 800383a:	6d7b      	ldr	r3, [r7, #84]	@ 0x54
 800383c:	65fb      	str	r3, [r7, #92]	@ 0x5c
  if (value == 0U)
 800383e:	6dfb      	ldr	r3, [r7, #92]	@ 0x5c
 8003840:	2b00      	cmp	r3, #0
 8003842:	d101      	bne.n	8003848 <HAL_ADC_ConfigChannel+0x4c0>
    return 32U;
 8003844:	2320      	movs	r3, #32
 8003846:	e003      	b.n	8003850 <HAL_ADC_ConfigChannel+0x4c8>
  return __builtin_clz(value);
 8003848:	6dfb      	ldr	r3, [r7, #92]	@ 0x5c
 800384a:	fab3 f383 	clz	r3, r3
 800384e:	b2db      	uxtb	r3, r3
 8003850:	3301      	adds	r3, #1
 8003852:	f003 031f 	and.w	r3, r3, #31
 8003856:	2b09      	cmp	r3, #9
 8003858:	bf94      	ite	ls
 800385a:	2301      	movls	r3, #1
 800385c:	2300      	movhi	r3, #0
 800385e:	b2db      	uxtb	r3, r3
        LL_ADC_SetChannelSamplingTime(hadc->Instance,
 8003860:	2b00      	cmp	r3, #0
 8003862:	d079      	beq.n	8003958 <HAL_ADC_ConfigChannel+0x5d0>
                                      (uint32_t)(__LL_ADC_DECIMAL_NB_TO_CHANNEL(
 8003864:	683b      	ldr	r3, [r7, #0]
 8003866:	681b      	ldr	r3, [r3, #0]
 8003868:	f3c3 0312 	ubfx	r3, r3, #0, #19
 800386c:	2b00      	cmp	r3, #0
 800386e:	d107      	bne.n	8003880 <HAL_ADC_ConfigChannel+0x4f8>
 8003870:	683b      	ldr	r3, [r7, #0]
 8003872:	681b      	ldr	r3, [r3, #0]
 8003874:	0e9b      	lsrs	r3, r3, #26
 8003876:	3301      	adds	r3, #1
 8003878:	069b      	lsls	r3, r3, #26
 800387a:	f003 42f8 	and.w	r2, r3, #2080374784	@ 0x7c000000
 800387e:	e015      	b.n	80038ac <HAL_ADC_ConfigChannel+0x524>
 8003880:	683b      	ldr	r3, [r7, #0]
 8003882:	681b      	ldr	r3, [r3, #0]
 8003884:	64fb      	str	r3, [r7, #76]	@ 0x4c
   __ASM volatile ("rbit %0, %1" : "=r" (result) : "r" (value) );
 8003886:	6cfb      	ldr	r3, [r7, #76]	@ 0x4c
 8003888:	fa93 f3a3 	rbit	r3, r3
 800388c:	64bb      	str	r3, [r7, #72]	@ 0x48
  return result;
 800388e:	6cbb      	ldr	r3, [r7, #72]	@ 0x48
 8003890:	653b      	str	r3, [r7, #80]	@ 0x50
  if (value == 0U)
 8003892:	6d3b      	ldr	r3, [r7, #80]	@ 0x50
 8003894:	2b00      	cmp	r3, #0
 8003896:	d101      	bne.n	800389c <HAL_ADC_ConfigChannel+0x514>
    return 32U;
 8003898:	2320      	movs	r3, #32
 800389a:	e003      	b.n	80038a4 <HAL_ADC_ConfigChannel+0x51c>
  return __builtin_clz(value);
 800389c:	6d3b      	ldr	r3, [r7, #80]	@ 0x50
 800389e:	fab3 f383 	clz	r3, r3
 80038a2:	b2db      	uxtb	r3, r3
 80038a4:	3301      	adds	r3, #1
 80038a6:	069b      	lsls	r3, r3, #26
 80038a8:	f003 42f8 	and.w	r2, r3, #2080374784	@ 0x7c000000
 80038ac:	683b      	ldr	r3, [r7, #0]
 80038ae:	681b      	ldr	r3, [r3, #0]
 80038b0:	f3c3 0312 	ubfx	r3, r3, #0, #19
 80038b4:	2b00      	cmp	r3, #0
 80038b6:	d109      	bne.n	80038cc <HAL_ADC_ConfigChannel+0x544>
 80038b8:	683b      	ldr	r3, [r7, #0]
 80038ba:	681b      	ldr	r3, [r3, #0]
 80038bc:	0e9b      	lsrs	r3, r3, #26
 80038be:	3301      	adds	r3, #1
 80038c0:	f003 031f 	and.w	r3, r3, #31
 80038c4:	2101      	movs	r1, #1
 80038c6:	fa01 f303 	lsl.w	r3, r1, r3
 80038ca:	e017      	b.n	80038fc <HAL_ADC_ConfigChannel+0x574>
 80038cc:	683b      	ldr	r3, [r7, #0]
 80038ce:	681b      	ldr	r3, [r3, #0]
 80038d0:	643b      	str	r3, [r7, #64]	@ 0x40
   __ASM volatile ("rbit %0, %1" : "=r" (result) : "r" (value) );
 80038d2:	6c3b      	ldr	r3, [r7, #64]	@ 0x40
 80038d4:	fa93 f3a3 	rbit	r3, r3
 80038d8:	63fb      	str	r3, [r7, #60]	@ 0x3c
  return result;
 80038da:	6bfb      	ldr	r3, [r7, #60]	@ 0x3c
 80038dc:	647b      	str	r3, [r7, #68]	@ 0x44
  if (value == 0U)
 80038de:	6c7b      	ldr	r3, [r7, #68]	@ 0x44
 80038e0:	2b00      	cmp	r3, #0
 80038e2:	d101      	bne.n	80038e8 <HAL_ADC_ConfigChannel+0x560>
    return 32U;
 80038e4:	2320      	movs	r3, #32
 80038e6:	e003      	b.n	80038f0 <HAL_ADC_ConfigChannel+0x568>
  return __builtin_clz(value);
 80038e8:	6c7b      	ldr	r3, [r7, #68]	@ 0x44
 80038ea:	fab3 f383 	clz	r3, r3
 80038ee:	b2db      	uxtb	r3, r3
 80038f0:	3301      	adds	r3, #1
 80038f2:	f003 031f 	and.w	r3, r3, #31
 80038f6:	2101      	movs	r1, #1
 80038f8:	fa01 f303 	lsl.w	r3, r1, r3
 80038fc:	ea42 0103 	orr.w	r1, r2, r3
 8003900:	683b      	ldr	r3, [r7, #0]
 8003902:	681b      	ldr	r3, [r3, #0]
 8003904:	f3c3 0312 	ubfx	r3, r3, #0, #19
 8003908:	2b00      	cmp	r3, #0
 800390a:	d10a      	bne.n	8003922 <HAL_ADC_ConfigChannel+0x59a>
 800390c:	683b      	ldr	r3, [r7, #0]
 800390e:	681b      	ldr	r3, [r3, #0]
 8003910:	0e9b      	lsrs	r3, r3, #26
 8003912:	3301      	adds	r3, #1
 8003914:	f003 021f 	and.w	r2, r3, #31
 8003918:	4613      	mov	r3, r2
 800391a:	005b      	lsls	r3, r3, #1
 800391c:	4413      	add	r3, r2
 800391e:	051b      	lsls	r3, r3, #20
 8003920:	e018      	b.n	8003954 <HAL_ADC_ConfigChannel+0x5cc>
 8003922:	683b      	ldr	r3, [r7, #0]
 8003924:	681b      	ldr	r3, [r3, #0]
 8003926:	637b      	str	r3, [r7, #52]	@ 0x34
   __ASM volatile ("rbit %0, %1" : "=r" (result) : "r" (value) );
 8003928:	6b7b      	ldr	r3, [r7, #52]	@ 0x34
 800392a:	fa93 f3a3 	rbit	r3, r3
 800392e:	633b      	str	r3, [r7, #48]	@ 0x30
  return result;
 8003930:	6b3b      	ldr	r3, [r7, #48]	@ 0x30
 8003932:	63bb      	str	r3, [r7, #56]	@ 0x38
  if (value == 0U)
 8003934:	6bbb      	ldr	r3, [r7, #56]	@ 0x38
 8003936:	2b00      	cmp	r3, #0
 8003938:	d101      	bne.n	800393e <HAL_ADC_ConfigChannel+0x5b6>
    return 32U;
 800393a:	2320      	movs	r3, #32
 800393c:	e003      	b.n	8003946 <HAL_ADC_ConfigChannel+0x5be>
  return __builtin_clz(value);
 800393e:	6bbb      	ldr	r3, [r7, #56]	@ 0x38
 8003940:	fab3 f383 	clz	r3, r3
 8003944:	b2db      	uxtb	r3, r3
 8003946:	3301      	adds	r3, #1
 8003948:	f003 021f 	and.w	r2, r3, #31
 800394c:	4613      	mov	r3, r2
 800394e:	005b      	lsls	r3, r3, #1
 8003950:	4413      	add	r3, r2
 8003952:	051b      	lsls	r3, r3, #20
        LL_ADC_SetChannelSamplingTime(hadc->Instance,
 8003954:	430b      	orrs	r3, r1
 8003956:	e080      	b.n	8003a5a <HAL_ADC_ConfigChannel+0x6d2>
                                      (uint32_t)(__LL_ADC_DECIMAL_NB_TO_CHANNEL(
 8003958:	683b      	ldr	r3, [r7, #0]
 800395a:	681b      	ldr	r3, [r3, #0]
 800395c:	f3c3 0312 	ubfx	r3, r3, #0, #19
 8003960:	2b00      	cmp	r3, #0
 8003962:	d107      	bne.n	8003974 <HAL_ADC_ConfigChannel+0x5ec>
 8003964:	683b      	ldr	r3, [r7, #0]
 8003966:	681b      	ldr	r3, [r3, #0]
 8003968:	0e9b      	lsrs	r3, r3, #26
 800396a:	3301      	adds	r3, #1
 800396c:	069b      	lsls	r3, r3, #26
 800396e:	f003 42f8 	and.w	r2, r3, #2080374784	@ 0x7c000000
 8003972:	e015      	b.n	80039a0 <HAL_ADC_ConfigChannel+0x618>
 8003974:	683b      	ldr	r3, [r7, #0]
 8003976:	681b      	ldr	r3, [r3, #0]
 8003978:	62bb      	str	r3, [r7, #40]	@ 0x28
   __ASM volatile ("rbit %0, %1" : "=r" (result) : "r" (value) );
 800397a:	6abb      	ldr	r3, [r7, #40]	@ 0x28
 800397c:	fa93 f3a3 	rbit	r3, r3
 8003980:	627b      	str	r3, [r7, #36]	@ 0x24
  return result;
 8003982:	6a7b      	ldr	r3, [r7, #36]	@ 0x24
 8003984:	62fb      	str	r3, [r7, #44]	@ 0x2c
  if (value == 0U)
 8003986:	6afb      	ldr	r3, [r7, #44]	@ 0x2c
 8003988:	2b00      	cmp	r3, #0
 800398a:	d101      	bne.n	8003990 <HAL_ADC_ConfigChannel+0x608>
    return 32U;
 800398c:	2320      	movs	r3, #32
 800398e:	e003      	b.n	8003998 <HAL_ADC_ConfigChannel+0x610>
  return __builtin_clz(value);
 8003990:	6afb      	ldr	r3, [r7, #44]	@ 0x2c
 8003992:	fab3 f383 	clz	r3, r3
 8003996:	b2db      	uxtb	r3, r3
 8003998:	3301      	adds	r3, #1
 800399a:	069b      	lsls	r3, r3, #26
 800399c:	f003 42f8 	and.w	r2, r3, #2080374784	@ 0x7c000000
 80039a0:	683b      	ldr	r3, [r7, #0]
 80039a2:	681b      	ldr	r3, [r3, #0]
 80039a4:	f3c3 0312 	ubfx	r3, r3, #0, #19
 80039a8:	2b00      	cmp	r3, #0
 80039aa:	d109      	bne.n	80039c0 <HAL_ADC_ConfigChannel+0x638>
 80039ac:	683b      	ldr	r3, [r7, #0]
 80039ae:	681b      	ldr	r3, [r3, #0]
 80039b0:	0e9b      	lsrs	r3, r3, #26
 80039b2:	3301      	adds	r3, #1
 80039b4:	f003 031f 	and.w	r3, r3, #31
 80039b8:	2101      	movs	r1, #1
 80039ba:	fa01 f303 	lsl.w	r3, r1, r3
 80039be:	e017      	b.n	80039f0 <HAL_ADC_ConfigChannel+0x668>
 80039c0:	683b      	ldr	r3, [r7, #0]
 80039c2:	681b      	ldr	r3, [r3, #0]
 80039c4:	61fb      	str	r3, [r7, #28]
   __ASM volatile ("rbit %0, %1" : "=r" (result) : "r" (value) );
 80039c6:	69fb      	ldr	r3, [r7, #28]
 80039c8:	fa93 f3a3 	rbit	r3, r3
 80039cc:	61bb      	str	r3, [r7, #24]
  return result;
 80039ce:	69bb      	ldr	r3, [r7, #24]
 80039d0:	623b      	str	r3, [r7, #32]
  if (value == 0U)
 80039d2:	6a3b      	ldr	r3, [r7, #32]
 80039d4:	2b00      	cmp	r3, #0
 80039d6:	d101      	bne.n	80039dc <HAL_ADC_ConfigChannel+0x654>
    return 32U;
 80039d8:	2320      	movs	r3, #32
 80039da:	e003      	b.n	80039e4 <HAL_ADC_ConfigChannel+0x65c>
  return __builtin_clz(value);
 80039dc:	6a3b      	ldr	r3, [r7, #32]
 80039de:	fab3 f383 	clz	r3, r3
 80039e2:	b2db      	uxtb	r3, r3
 80039e4:	3301      	adds	r3, #1
 80039e6:	f003 031f 	and.w	r3, r3, #31
 80039ea:	2101      	movs	r1, #1
 80039ec:	fa01 f303 	lsl.w	r3, r1, r3
 80039f0:	ea42 0103 	orr.w	r1, r2, r3
 80039f4:	683b      	ldr	r3, [r7, #0]
 80039f6:	681b      	ldr	r3, [r3, #0]
 80039f8:	f3c3 0312 	ubfx	r3, r3, #0, #19
 80039fc:	2b00      	cmp	r3, #0
 80039fe:	d10d      	bne.n	8003a1c <HAL_ADC_ConfigChannel+0x694>
 8003a00:	683b      	ldr	r3, [r7, #0]
 8003a02:	681b      	ldr	r3, [r3, #0]
 8003a04:	0e9b      	lsrs	r3, r3, #26
 8003a06:	3301      	adds	r3, #1
 8003a08:	f003 021f 	and.w	r2, r3, #31
 8003a0c:	4613      	mov	r3, r2
 8003a0e:	005b      	lsls	r3, r3, #1
 8003a10:	4413      	add	r3, r2
 8003a12:	3b1e      	subs	r3, #30
 8003a14:	051b      	lsls	r3, r3, #20
 8003a16:	f043 7300 	orr.w	r3, r3, #33554432	@ 0x2000000
 8003a1a:	e01d      	b.n	8003a58 <HAL_ADC_ConfigChannel+0x6d0>
 8003a1c:	683b      	ldr	r3, [r7, #0]
 8003a1e:	681b      	ldr	r3, [r3, #0]
 8003a20:	613b      	str	r3, [r7, #16]
   __ASM volatile ("rbit %0, %1" : "=r" (result) : "r" (value) );
 8003a22:	693b      	ldr	r3, [r7, #16]
 8003a24:	fa93 f3a3 	rbit	r3, r3
 8003a28:	60fb      	str	r3, [r7, #12]
  return result;
 8003a2a:	68fb      	ldr	r3, [r7, #12]
 8003a2c:	617b      	str	r3, [r7, #20]
  if (value == 0U)
 8003a2e:	697b      	ldr	r3, [r7, #20]
 8003a30:	2b00      	cmp	r3, #0
 8003a32:	d103      	bne.n	8003a3c <HAL_ADC_ConfigChannel+0x6b4>
    return 32U;
 8003a34:	2320      	movs	r3, #32
 8003a36:	e005      	b.n	8003a44 <HAL_ADC_ConfigChannel+0x6bc>
 8003a38:	407f0000 	.word	0x407f0000
  return __builtin_clz(value);
 8003a3c:	697b      	ldr	r3, [r7, #20]
 8003a3e:	fab3 f383 	clz	r3, r3
 8003a42:	b2db      	uxtb	r3, r3
 8003a44:	3301      	adds	r3, #1
 8003a46:	f003 021f 	and.w	r2, r3, #31
 8003a4a:	4613      	mov	r3, r2
 8003a4c:	005b      	lsls	r3, r3, #1
 8003a4e:	4413      	add	r3, r2
 8003a50:	3b1e      	subs	r3, #30
 8003a52:	051b      	lsls	r3, r3, #20
 8003a54:	f043 7300 	orr.w	r3, r3, #33554432	@ 0x2000000
        LL_ADC_SetChannelSamplingTime(hadc->Instance,
 8003a58:	430b      	orrs	r3, r1
                                                   (__LL_ADC_CHANNEL_TO_DECIMAL_NB((uint32_t)pConfig->Channel)
                                                    + 1UL) & 0x1FUL)),
                                      pConfig->SamplingTime);
 8003a5a:	683a      	ldr	r2, [r7, #0]
 8003a5c:	6892      	ldr	r2, [r2, #8]
        LL_ADC_SetChannelSamplingTime(hadc->Instance,
 8003a5e:	4619      	mov	r1, r3
 8003a60:	f7ff f943 	bl	8002cea <LL_ADC_SetChannelSamplingTime>
    /* If internal channel selected, enable dedicated internal buffers and    */
    /* paths.                                                                 */
    /* Note: these internal measurement paths can be disabled using           */
    /* HAL_ADC_DeInit().                                                      */

    if (__LL_ADC_IS_CHANNEL_INTERNAL(pConfig->Channel))
 8003a64:	683b      	ldr	r3, [r7, #0]
 8003a66:	681a      	ldr	r2, [r3, #0]
 8003a68:	4b3d      	ldr	r3, [pc, #244]	@ (8003b60 <HAL_ADC_ConfigChannel+0x7d8>)
 8003a6a:	4013      	ands	r3, r2
 8003a6c:	2b00      	cmp	r3, #0
 8003a6e:	d06c      	beq.n	8003b4a <HAL_ADC_ConfigChannel+0x7c2>
    {
      tmp_config_internal_channel = LL_ADC_GetCommonPathInternalCh(__LL_ADC_COMMON_INSTANCE(hadc->Instance));
 8003a70:	483c      	ldr	r0, [pc, #240]	@ (8003b64 <HAL_ADC_ConfigChannel+0x7dc>)
 8003a72:	f7ff f885 	bl	8002b80 <LL_ADC_GetCommonPathInternalCh>
 8003a76:	f8c7 00c0 	str.w	r0, [r7, #192]	@ 0xc0

      /* If the requested internal measurement path has already been enabled, */
      /* bypass the configuration processing.                                 */
      if ((pConfig->Channel == ADC_CHANNEL_TEMPSENSOR)
 8003a7a:	683b      	ldr	r3, [r7, #0]
 8003a7c:	681b      	ldr	r3, [r3, #0]
 8003a7e:	4a3a      	ldr	r2, [pc, #232]	@ (8003b68 <HAL_ADC_ConfigChannel+0x7e0>)
 8003a80:	4293      	cmp	r3, r2
 8003a82:	d127      	bne.n	8003ad4 <HAL_ADC_ConfigChannel+0x74c>
          && ((tmp_config_internal_channel & LL_ADC_PATH_INTERNAL_TEMPSENSOR) == 0UL))
 8003a84:	f8d7 30c0 	ldr.w	r3, [r7, #192]	@ 0xc0
 8003a88:	f403 0300 	and.w	r3, r3, #8388608	@ 0x800000
 8003a8c:	2b00      	cmp	r3, #0
 8003a8e:	d121      	bne.n	8003ad4 <HAL_ADC_ConfigChannel+0x74c>
      {
        if (ADC_TEMPERATURE_SENSOR_INSTANCE(hadc))
 8003a90:	687b      	ldr	r3, [r7, #4]
 8003a92:	681b      	ldr	r3, [r3, #0]
 8003a94:	4a35      	ldr	r2, [pc, #212]	@ (8003b6c <HAL_ADC_ConfigChannel+0x7e4>)
 8003a96:	4293      	cmp	r3, r2
 8003a98:	d157      	bne.n	8003b4a <HAL_ADC_ConfigChannel+0x7c2>
        {
          LL_ADC_SetCommonPathInternalCh(__LL_ADC_COMMON_INSTANCE(hadc->Instance),
 8003a9a:	f8d7 30c0 	ldr.w	r3, [r7, #192]	@ 0xc0
 8003a9e:	f443 0300 	orr.w	r3, r3, #8388608	@ 0x800000
 8003aa2:	4619      	mov	r1, r3
 8003aa4:	482f      	ldr	r0, [pc, #188]	@ (8003b64 <HAL_ADC_ConfigChannel+0x7dc>)
 8003aa6:	f7ff f858 	bl	8002b5a <LL_ADC_SetCommonPathInternalCh>
          /* Delay for temperature sensor stabilization time */
          /* Wait loop initialization and execution */
          /* Note: Variable divided by 2 to compensate partially              */
          /*       CPU processing cycles, scaling in us split to not          */
          /*       exceed 32 bits register capacity and handle low frequency. */
          wait_loop_index = ((LL_ADC_DELAY_TEMPSENSOR_STAB_US / 10UL) * ((SystemCoreClock / (100000UL * 2UL)) + 1UL));
 8003aaa:	4b31      	ldr	r3, [pc, #196]	@ (8003b70 <HAL_ADC_ConfigChannel+0x7e8>)
 8003aac:	681b      	ldr	r3, [r3, #0]
 8003aae:	099b      	lsrs	r3, r3, #6
 8003ab0:	4a30      	ldr	r2, [pc, #192]	@ (8003b74 <HAL_ADC_ConfigChannel+0x7ec>)
 8003ab2:	fba2 2303 	umull	r2, r3, r2, r3
 8003ab6:	099b      	lsrs	r3, r3, #6
 8003ab8:	1c5a      	adds	r2, r3, #1
 8003aba:	4613      	mov	r3, r2
 8003abc:	005b      	lsls	r3, r3, #1
 8003abe:	4413      	add	r3, r2
 8003ac0:	009b      	lsls	r3, r3, #2
 8003ac2:	60bb      	str	r3, [r7, #8]
          while (wait_loop_index != 0UL)
 8003ac4:	e002      	b.n	8003acc <HAL_ADC_ConfigChannel+0x744>
          {
            wait_loop_index--;
 8003ac6:	68bb      	ldr	r3, [r7, #8]
 8003ac8:	3b01      	subs	r3, #1
 8003aca:	60bb      	str	r3, [r7, #8]
          while (wait_loop_index != 0UL)
 8003acc:	68bb      	ldr	r3, [r7, #8]
 8003ace:	2b00      	cmp	r3, #0
 8003ad0:	d1f9      	bne.n	8003ac6 <HAL_ADC_ConfigChannel+0x73e>
        if (ADC_TEMPERATURE_SENSOR_INSTANCE(hadc))
 8003ad2:	e03a      	b.n	8003b4a <HAL_ADC_ConfigChannel+0x7c2>
          }
        }
      }
      else if ((pConfig->Channel == ADC_CHANNEL_VBAT)
 8003ad4:	683b      	ldr	r3, [r7, #0]
 8003ad6:	681b      	ldr	r3, [r3, #0]
 8003ad8:	4a27      	ldr	r2, [pc, #156]	@ (8003b78 <HAL_ADC_ConfigChannel+0x7f0>)
 8003ada:	4293      	cmp	r3, r2
 8003adc:	d113      	bne.n	8003b06 <HAL_ADC_ConfigChannel+0x77e>
               && ((tmp_config_internal_channel & LL_ADC_PATH_INTERNAL_VBAT) == 0UL))
 8003ade:	f8d7 30c0 	ldr.w	r3, [r7, #192]	@ 0xc0
 8003ae2:	f003 7380 	and.w	r3, r3, #16777216	@ 0x1000000
 8003ae6:	2b00      	cmp	r3, #0
 8003ae8:	d10d      	bne.n	8003b06 <HAL_ADC_ConfigChannel+0x77e>
      {
        if (ADC_BATTERY_VOLTAGE_INSTANCE(hadc))
 8003aea:	687b      	ldr	r3, [r7, #4]
 8003aec:	681b      	ldr	r3, [r3, #0]
 8003aee:	4a1f      	ldr	r2, [pc, #124]	@ (8003b6c <HAL_ADC_ConfigChannel+0x7e4>)
 8003af0:	4293      	cmp	r3, r2
 8003af2:	d12a      	bne.n	8003b4a <HAL_ADC_ConfigChannel+0x7c2>
        {
          LL_ADC_SetCommonPathInternalCh(__LL_ADC_COMMON_INSTANCE(hadc->Instance),
 8003af4:	f8d7 30c0 	ldr.w	r3, [r7, #192]	@ 0xc0
 8003af8:	f043 7380 	orr.w	r3, r3, #16777216	@ 0x1000000
 8003afc:	4619      	mov	r1, r3
 8003afe:	4819      	ldr	r0, [pc, #100]	@ (8003b64 <HAL_ADC_ConfigChannel+0x7dc>)
 8003b00:	f7ff f82b 	bl	8002b5a <LL_ADC_SetCommonPathInternalCh>
        if (ADC_BATTERY_VOLTAGE_INSTANCE(hadc))
 8003b04:	e021      	b.n	8003b4a <HAL_ADC_ConfigChannel+0x7c2>
                                         LL_ADC_PATH_INTERNAL_VBAT | tmp_config_internal_channel);
        }
      }
      else if ((pConfig->Channel == ADC_CHANNEL_VREFINT)
 8003b06:	683b      	ldr	r3, [r7, #0]
 8003b08:	681b      	ldr	r3, [r3, #0]
 8003b0a:	4a1c      	ldr	r2, [pc, #112]	@ (8003b7c <HAL_ADC_ConfigChannel+0x7f4>)
 8003b0c:	4293      	cmp	r3, r2
 8003b0e:	d11c      	bne.n	8003b4a <HAL_ADC_ConfigChannel+0x7c2>
               && ((tmp_config_internal_channel & LL_ADC_PATH_INTERNAL_VREFINT) == 0UL))
 8003b10:	f8d7 30c0 	ldr.w	r3, [r7, #192]	@ 0xc0
 8003b14:	f403 0380 	and.w	r3, r3, #4194304	@ 0x400000
 8003b18:	2b00      	cmp	r3, #0
 8003b1a:	d116      	bne.n	8003b4a <HAL_ADC_ConfigChannel+0x7c2>
      {
        if (ADC_VREFINT_INSTANCE(hadc))
 8003b1c:	687b      	ldr	r3, [r7, #4]
 8003b1e:	681b      	ldr	r3, [r3, #0]
 8003b20:	4a12      	ldr	r2, [pc, #72]	@ (8003b6c <HAL_ADC_ConfigChannel+0x7e4>)
 8003b22:	4293      	cmp	r3, r2
 8003b24:	d111      	bne.n	8003b4a <HAL_ADC_ConfigChannel+0x7c2>
        {
          LL_ADC_SetCommonPathInternalCh(__LL_ADC_COMMON_INSTANCE(hadc->Instance),
 8003b26:	f8d7 30c0 	ldr.w	r3, [r7, #192]	@ 0xc0
 8003b2a:	f443 0380 	orr.w	r3, r3, #4194304	@ 0x400000
 8003b2e:	4619      	mov	r1, r3
 8003b30:	480c      	ldr	r0, [pc, #48]	@ (8003b64 <HAL_ADC_ConfigChannel+0x7dc>)
 8003b32:	f7ff f812 	bl	8002b5a <LL_ADC_SetCommonPathInternalCh>
 8003b36:	e008      	b.n	8003b4a <HAL_ADC_ConfigChannel+0x7c2>
  /* channel could be done on neither of the channel configuration structure  */
  /* parameters.                                                              */
  else
  {
    /* Update ADC state machine to error */
    SET_BIT(hadc->State, HAL_ADC_STATE_ERROR_CONFIG);
 8003b38:	687b      	ldr	r3, [r7, #4]
 8003b3a:	6d9b      	ldr	r3, [r3, #88]	@ 0x58
 8003b3c:	f043 0220 	orr.w	r2, r3, #32
 8003b40:	687b      	ldr	r3, [r7, #4]
 8003b42:	659a      	str	r2, [r3, #88]	@ 0x58

    tmp_hal_status = HAL_ERROR;
 8003b44:	2301      	movs	r3, #1
 8003b46:	f887 30d7 	strb.w	r3, [r7, #215]	@ 0xd7
  }

  /* Process unlocked */
  __HAL_UNLOCK(hadc);
 8003b4a:	687b      	ldr	r3, [r7, #4]
 8003b4c:	2200      	movs	r2, #0
 8003b4e:	f883 2054 	strb.w	r2, [r3, #84]	@ 0x54

  /* Return function status */
  return tmp_hal_status;
 8003b52:	f897 30d7 	ldrb.w	r3, [r7, #215]	@ 0xd7
}
 8003b56:	4618      	mov	r0, r3
 8003b58:	37d8      	adds	r7, #216	@ 0xd8
 8003b5a:	46bd      	mov	sp, r7
 8003b5c:	bd80      	pop	{r7, pc}
 8003b5e:	bf00      	nop
 8003b60:	80080000 	.word	0x80080000
 8003b64:	50040300 	.word	0x50040300
 8003b68:	c7520000 	.word	0xc7520000
 8003b6c:	50040000 	.word	0x50040000
 8003b70:	20000008 	.word	0x20000008
 8003b74:	053e2d63 	.word	0x053e2d63
 8003b78:	cb840000 	.word	0xcb840000
 8003b7c:	80000001 	.word	0x80000001

08003b80 <ADC_Enable>:
  *         and voltage regulator must be enabled (done into HAL_ADC_Init()).
  * @param hadc ADC handle
  * @retval HAL status.
  */
HAL_StatusTypeDef ADC_Enable(ADC_HandleTypeDef *hadc)
{
 8003b80:	b580      	push	{r7, lr}
 8003b82:	b084      	sub	sp, #16
 8003b84:	af00      	add	r7, sp, #0
 8003b86:	6078      	str	r0, [r7, #4]
  uint32_t tickstart;
  __IO uint32_t wait_loop_index = 0UL;
 8003b88:	2300      	movs	r3, #0
 8003b8a:	60bb      	str	r3, [r7, #8]

  /* ADC enable and wait for ADC ready (in case of ADC is disabled or         */
  /* enabling phase not yet completed: flag ADC ready not yet set).           */
  /* Timeout implemented to not be stuck if ADC cannot be enabled (possible   */
  /* causes: ADC clock not running, ...).                                     */
  if (LL_ADC_IsEnabled(hadc->Instance) == 0UL)
 8003b8c:	687b      	ldr	r3, [r7, #4]
 8003b8e:	681b      	ldr	r3, [r3, #0]
 8003b90:	4618      	mov	r0, r3
 8003b92:	f7ff f95b 	bl	8002e4c <LL_ADC_IsEnabled>
 8003b96:	4603      	mov	r3, r0
 8003b98:	2b00      	cmp	r3, #0
 8003b9a:	d169      	bne.n	8003c70 <ADC_Enable+0xf0>
  {
    /* Check if conditions to enable the ADC are fulfilled */
    if ((hadc->Instance->CR & (ADC_CR_ADCAL | ADC_CR_JADSTP | ADC_CR_ADSTP | ADC_CR_JADSTART | ADC_CR_ADSTART
 8003b9c:	687b      	ldr	r3, [r7, #4]
 8003b9e:	681b      	ldr	r3, [r3, #0]
 8003ba0:	689a      	ldr	r2, [r3, #8]
 8003ba2:	4b36      	ldr	r3, [pc, #216]	@ (8003c7c <ADC_Enable+0xfc>)
 8003ba4:	4013      	ands	r3, r2
 8003ba6:	2b00      	cmp	r3, #0
 8003ba8:	d00d      	beq.n	8003bc6 <ADC_Enable+0x46>
                               | ADC_CR_ADDIS | ADC_CR_ADEN)) != 0UL)
    {
      /* Update ADC state machine to error */
      SET_BIT(hadc->State, HAL_ADC_STATE_ERROR_INTERNAL);
 8003baa:	687b      	ldr	r3, [r7, #4]
 8003bac:	6d9b      	ldr	r3, [r3, #88]	@ 0x58
 8003bae:	f043 0210 	orr.w	r2, r3, #16
 8003bb2:	687b      	ldr	r3, [r7, #4]
 8003bb4:	659a      	str	r2, [r3, #88]	@ 0x58

      /* Set ADC error code to ADC peripheral internal error */
      SET_BIT(hadc->ErrorCode, HAL_ADC_ERROR_INTERNAL);
 8003bb6:	687b      	ldr	r3, [r7, #4]
 8003bb8:	6ddb      	ldr	r3, [r3, #92]	@ 0x5c
 8003bba:	f043 0201 	orr.w	r2, r3, #1
 8003bbe:	687b      	ldr	r3, [r7, #4]
 8003bc0:	65da      	str	r2, [r3, #92]	@ 0x5c

      return HAL_ERROR;
 8003bc2:	2301      	movs	r3, #1
 8003bc4:	e055      	b.n	8003c72 <ADC_Enable+0xf2>
    }

    /* Enable the ADC peripheral */
    LL_ADC_Enable(hadc->Instance);
 8003bc6:	687b      	ldr	r3, [r7, #4]
 8003bc8:	681b      	ldr	r3, [r3, #0]
 8003bca:	4618      	mov	r0, r3
 8003bcc:	f7ff f92a 	bl	8002e24 <LL_ADC_Enable>

    if ((LL_ADC_GetCommonPathInternalCh(__LL_ADC_COMMON_INSTANCE(hadc->Instance))
 8003bd0:	482b      	ldr	r0, [pc, #172]	@ (8003c80 <ADC_Enable+0x100>)
 8003bd2:	f7fe ffd5 	bl	8002b80 <LL_ADC_GetCommonPathInternalCh>
 8003bd6:	4603      	mov	r3, r0
         & LL_ADC_PATH_INTERNAL_TEMPSENSOR) != 0UL)
 8003bd8:	f403 0300 	and.w	r3, r3, #8388608	@ 0x800000
    if ((LL_ADC_GetCommonPathInternalCh(__LL_ADC_COMMON_INSTANCE(hadc->Instance))
 8003bdc:	2b00      	cmp	r3, #0
 8003bde:	d013      	beq.n	8003c08 <ADC_Enable+0x88>

      /* Wait loop initialization and execution */
      /* Note: Variable divided by 2 to compensate partially              */
      /*       CPU processing cycles, scaling in us split to not          */
      /*       exceed 32 bits register capacity and handle low frequency. */
      wait_loop_index = ((LL_ADC_DELAY_TEMPSENSOR_STAB_US / 10UL) * ((SystemCoreClock / (100000UL * 2UL)) + 1UL));
 8003be0:	4b28      	ldr	r3, [pc, #160]	@ (8003c84 <ADC_Enable+0x104>)
 8003be2:	681b      	ldr	r3, [r3, #0]
 8003be4:	099b      	lsrs	r3, r3, #6
 8003be6:	4a28      	ldr	r2, [pc, #160]	@ (8003c88 <ADC_Enable+0x108>)
 8003be8:	fba2 2303 	umull	r2, r3, r2, r3
 8003bec:	099b      	lsrs	r3, r3, #6
 8003bee:	1c5a      	adds	r2, r3, #1
 8003bf0:	4613      	mov	r3, r2
 8003bf2:	005b      	lsls	r3, r3, #1
 8003bf4:	4413      	add	r3, r2
 8003bf6:	009b      	lsls	r3, r3, #2
 8003bf8:	60bb      	str	r3, [r7, #8]
      while (wait_loop_index != 0UL)
 8003bfa:	e002      	b.n	8003c02 <ADC_Enable+0x82>
      {
        wait_loop_index--;
 8003bfc:	68bb      	ldr	r3, [r7, #8]
 8003bfe:	3b01      	subs	r3, #1
 8003c00:	60bb      	str	r3, [r7, #8]
      while (wait_loop_index != 0UL)
 8003c02:	68bb      	ldr	r3, [r7, #8]
 8003c04:	2b00      	cmp	r3, #0
 8003c06:	d1f9      	bne.n	8003bfc <ADC_Enable+0x7c>
      }
    }

    /* Wait for ADC effectively enabled */
    tickstart = HAL_GetTick();
 8003c08:	f7fe ff64 	bl	8002ad4 <HAL_GetTick>
 8003c0c:	60f8      	str	r0, [r7, #12]

    while (__HAL_ADC_GET_FLAG(hadc, ADC_FLAG_RDY) == 0UL)
 8003c0e:	e028      	b.n	8003c62 <ADC_Enable+0xe2>
          The workaround is to continue setting ADEN until ADRDY is becomes 1.
          Additionally, ADC_ENABLE_TIMEOUT is defined to encompass this
          4 ADC clock cycle duration */
      /* Note: Test of ADC enabled required due to hardware constraint to     */
      /*       not enable ADC if already enabled.                             */
      if (LL_ADC_IsEnabled(hadc->Instance) == 0UL)
 8003c10:	687b      	ldr	r3, [r7, #4]
 8003c12:	681b      	ldr	r3, [r3, #0]
 8003c14:	4618      	mov	r0, r3
 8003c16:	f7ff f919 	bl	8002e4c <LL_ADC_IsEnabled>
 8003c1a:	4603      	mov	r3, r0
 8003c1c:	2b00      	cmp	r3, #0
 8003c1e:	d104      	bne.n	8003c2a <ADC_Enable+0xaa>
      {
        LL_ADC_Enable(hadc->Instance);
 8003c20:	687b      	ldr	r3, [r7, #4]
 8003c22:	681b      	ldr	r3, [r3, #0]
 8003c24:	4618      	mov	r0, r3
 8003c26:	f7ff f8fd 	bl	8002e24 <LL_ADC_Enable>
      }

      if ((HAL_GetTick() - tickstart) > ADC_ENABLE_TIMEOUT)
 8003c2a:	f7fe ff53 	bl	8002ad4 <HAL_GetTick>
 8003c2e:	4602      	mov	r2, r0
 8003c30:	68fb      	ldr	r3, [r7, #12]
 8003c32:	1ad3      	subs	r3, r2, r3
 8003c34:	2b02      	cmp	r3, #2
 8003c36:	d914      	bls.n	8003c62 <ADC_Enable+0xe2>
      {
        /* New check to avoid false timeout detection in case of preemption */
        if (__HAL_ADC_GET_FLAG(hadc, ADC_FLAG_RDY) == 0UL)
 8003c38:	687b      	ldr	r3, [r7, #4]
 8003c3a:	681b      	ldr	r3, [r3, #0]
 8003c3c:	681b      	ldr	r3, [r3, #0]
 8003c3e:	f003 0301 	and.w	r3, r3, #1
 8003c42:	2b01      	cmp	r3, #1
 8003c44:	d00d      	beq.n	8003c62 <ADC_Enable+0xe2>
        {
          /* Update ADC state machine to error */
          SET_BIT(hadc->State, HAL_ADC_STATE_ERROR_INTERNAL);
 8003c46:	687b      	ldr	r3, [r7, #4]
 8003c48:	6d9b      	ldr	r3, [r3, #88]	@ 0x58
 8003c4a:	f043 0210 	orr.w	r2, r3, #16
 8003c4e:	687b      	ldr	r3, [r7, #4]
 8003c50:	659a      	str	r2, [r3, #88]	@ 0x58

          /* Set ADC error code to ADC peripheral internal error */
          SET_BIT(hadc->ErrorCode, HAL_ADC_ERROR_INTERNAL);
 8003c52:	687b      	ldr	r3, [r7, #4]
 8003c54:	6ddb      	ldr	r3, [r3, #92]	@ 0x5c
 8003c56:	f043 0201 	orr.w	r2, r3, #1
 8003c5a:	687b      	ldr	r3, [r7, #4]
 8003c5c:	65da      	str	r2, [r3, #92]	@ 0x5c

          return HAL_ERROR;
 8003c5e:	2301      	movs	r3, #1
 8003c60:	e007      	b.n	8003c72 <ADC_Enable+0xf2>
    while (__HAL_ADC_GET_FLAG(hadc, ADC_FLAG_RDY) == 0UL)
 8003c62:	687b      	ldr	r3, [r7, #4]
 8003c64:	681b      	ldr	r3, [r3, #0]
 8003c66:	681b      	ldr	r3, [r3, #0]
 8003c68:	f003 0301 	and.w	r3, r3, #1
 8003c6c:	2b01      	cmp	r3, #1
 8003c6e:	d1cf      	bne.n	8003c10 <ADC_Enable+0x90>
      }
    }
  }

  /* Return HAL status */
  return HAL_OK;
 8003c70:	2300      	movs	r3, #0
}
 8003c72:	4618      	mov	r0, r3
 8003c74:	3710      	adds	r7, #16
 8003c76:	46bd      	mov	sp, r7
 8003c78:	bd80      	pop	{r7, pc}
 8003c7a:	bf00      	nop
 8003c7c:	8000003f 	.word	0x8000003f
 8003c80:	50040300 	.word	0x50040300
 8003c84:	20000008 	.word	0x20000008
 8003c88:	053e2d63 	.word	0x053e2d63

08003c8c <__NVIC_SetPriorityGrouping>:
           In case of a conflict between priority grouping and available
           priority bits (__NVIC_PRIO_BITS), the smallest possible priority group is set.
  \param [in]      PriorityGroup  Priority grouping field.
 */
__STATIC_INLINE void __NVIC_SetPriorityGrouping(uint32_t PriorityGroup)
{
 8003c8c:	b480      	push	{r7}
 8003c8e:	b085      	sub	sp, #20
 8003c90:	af00      	add	r7, sp, #0
 8003c92:	6078      	str	r0, [r7, #4]
  uint32_t reg_value;
  uint32_t PriorityGroupTmp = (PriorityGroup & (uint32_t)0x07UL);             /* only values 0..7 are used          */
 8003c94:	687b      	ldr	r3, [r7, #4]
 8003c96:	f003 0307 	and.w	r3, r3, #7
 8003c9a:	60fb      	str	r3, [r7, #12]

  reg_value  =  SCB->AIRCR;                                                   /* read old register configuration    */
 8003c9c:	4b0c      	ldr	r3, [pc, #48]	@ (8003cd0 <__NVIC_SetPriorityGrouping+0x44>)
 8003c9e:	68db      	ldr	r3, [r3, #12]
 8003ca0:	60bb      	str	r3, [r7, #8]
  reg_value &= ~((uint32_t)(SCB_AIRCR_VECTKEY_Msk | SCB_AIRCR_PRIGROUP_Msk)); /* clear bits to change               */
 8003ca2:	68ba      	ldr	r2, [r7, #8]
 8003ca4:	f64f 03ff 	movw	r3, #63743	@ 0xf8ff
 8003ca8:	4013      	ands	r3, r2
 8003caa:	60bb      	str	r3, [r7, #8]
  reg_value  =  (reg_value                                   |
                ((uint32_t)0x5FAUL << SCB_AIRCR_VECTKEY_Pos) |
                (PriorityGroupTmp << SCB_AIRCR_PRIGROUP_Pos)  );              /* Insert write key and priority group */
 8003cac:	68fb      	ldr	r3, [r7, #12]
 8003cae:	021a      	lsls	r2, r3, #8
                ((uint32_t)0x5FAUL << SCB_AIRCR_VECTKEY_Pos) |
 8003cb0:	68bb      	ldr	r3, [r7, #8]
 8003cb2:	4313      	orrs	r3, r2
  reg_value  =  (reg_value                                   |
 8003cb4:	f043 63bf 	orr.w	r3, r3, #100139008	@ 0x5f80000
 8003cb8:	f443 3300 	orr.w	r3, r3, #131072	@ 0x20000
 8003cbc:	60bb      	str	r3, [r7, #8]
  SCB->AIRCR =  reg_value;
 8003cbe:	4a04      	ldr	r2, [pc, #16]	@ (8003cd0 <__NVIC_SetPriorityGrouping+0x44>)
 8003cc0:	68bb      	ldr	r3, [r7, #8]
 8003cc2:	60d3      	str	r3, [r2, #12]
}
 8003cc4:	bf00      	nop
 8003cc6:	3714      	adds	r7, #20
 8003cc8:	46bd      	mov	sp, r7
 8003cca:	f85d 7b04 	ldr.w	r7, [sp], #4
 8003cce:	4770      	bx	lr
 8003cd0:	e000ed00 	.word	0xe000ed00

08003cd4 <__NVIC_GetPriorityGrouping>:
  \brief   Get Priority Grouping
  \details Reads the priority grouping field from the NVIC Interrupt Controller.
  \return                Priority grouping field (SCB->AIRCR [10:8] PRIGROUP field).
 */
__STATIC_INLINE uint32_t __NVIC_GetPriorityGrouping(void)
{
 8003cd4:	b480      	push	{r7}
 8003cd6:	af00      	add	r7, sp, #0
  return ((uint32_t)((SCB->AIRCR & SCB_AIRCR_PRIGROUP_Msk) >> SCB_AIRCR_PRIGROUP_Pos));
 8003cd8:	4b04      	ldr	r3, [pc, #16]	@ (8003cec <__NVIC_GetPriorityGrouping+0x18>)
 8003cda:	68db      	ldr	r3, [r3, #12]
 8003cdc:	0a1b      	lsrs	r3, r3, #8
 8003cde:	f003 0307 	and.w	r3, r3, #7
}
 8003ce2:	4618      	mov	r0, r3
 8003ce4:	46bd      	mov	sp, r7
 8003ce6:	f85d 7b04 	ldr.w	r7, [sp], #4
 8003cea:	4770      	bx	lr
 8003cec:	e000ed00 	.word	0xe000ed00

08003cf0 <__NVIC_EnableIRQ>:
  \details Enables a device specific interrupt in the NVIC interrupt controller.
  \param [in]      IRQn  Device specific interrupt number.
  \note    IRQn must not be negative.
 */
__STATIC_INLINE void __NVIC_EnableIRQ(IRQn_Type IRQn)
{
 8003cf0:	b480      	push	{r7}
 8003cf2:	b083      	sub	sp, #12
 8003cf4:	af00      	add	r7, sp, #0
 8003cf6:	4603      	mov	r3, r0
 8003cf8:	71fb      	strb	r3, [r7, #7]
  if ((int32_t)(IRQn) >= 0)
 8003cfa:	f997 3007 	ldrsb.w	r3, [r7, #7]
 8003cfe:	2b00      	cmp	r3, #0
 8003d00:	db0b      	blt.n	8003d1a <__NVIC_EnableIRQ+0x2a>
  {
    __COMPILER_BARRIER();
    NVIC->ISER[(((uint32_t)IRQn) >> 5UL)] = (uint32_t)(1UL << (((uint32_t)IRQn) & 0x1FUL));
 8003d02:	79fb      	ldrb	r3, [r7, #7]
 8003d04:	f003 021f 	and.w	r2, r3, #31
 8003d08:	4907      	ldr	r1, [pc, #28]	@ (8003d28 <__NVIC_EnableIRQ+0x38>)
 8003d0a:	f997 3007 	ldrsb.w	r3, [r7, #7]
 8003d0e:	095b      	lsrs	r3, r3, #5
 8003d10:	2001      	movs	r0, #1
 8003d12:	fa00 f202 	lsl.w	r2, r0, r2
 8003d16:	f841 2023 	str.w	r2, [r1, r3, lsl #2]
    __COMPILER_BARRIER();
  }
}
 8003d1a:	bf00      	nop
 8003d1c:	370c      	adds	r7, #12
 8003d1e:	46bd      	mov	sp, r7
 8003d20:	f85d 7b04 	ldr.w	r7, [sp], #4
 8003d24:	4770      	bx	lr
 8003d26:	bf00      	nop
 8003d28:	e000e100 	.word	0xe000e100

08003d2c <__NVIC_SetPriority>:
  \param [in]      IRQn  Interrupt number.
  \param [in]  priority  Priority to set.
  \note    The priority cannot be set for every processor exception.
 */
__STATIC_INLINE void __NVIC_SetPriority(IRQn_Type IRQn, uint32_t priority)
{
 8003d2c:	b480      	push	{r7}
 8003d2e:	b083      	sub	sp, #12
 8003d30:	af00      	add	r7, sp, #0
 8003d32:	4603      	mov	r3, r0
 8003d34:	6039      	str	r1, [r7, #0]
 8003d36:	71fb      	strb	r3, [r7, #7]
  if ((int32_t)(IRQn) >= 0)
 8003d38:	f997 3007 	ldrsb.w	r3, [r7, #7]
 8003d3c:	2b00      	cmp	r3, #0
 8003d3e:	db0a      	blt.n	8003d56 <__NVIC_SetPriority+0x2a>
  {
    NVIC->IP[((uint32_t)IRQn)]               = (uint8_t)((priority << (8U - __NVIC_PRIO_BITS)) & (uint32_t)0xFFUL);
 8003d40:	683b      	ldr	r3, [r7, #0]
 8003d42:	b2da      	uxtb	r2, r3
 8003d44:	490c      	ldr	r1, [pc, #48]	@ (8003d78 <__NVIC_SetPriority+0x4c>)
 8003d46:	f997 3007 	ldrsb.w	r3, [r7, #7]
 8003d4a:	0112      	lsls	r2, r2, #4
 8003d4c:	b2d2      	uxtb	r2, r2
 8003d4e:	440b      	add	r3, r1
 8003d50:	f883 2300 	strb.w	r2, [r3, #768]	@ 0x300
  }
  else
  {
    SCB->SHP[(((uint32_t)IRQn) & 0xFUL)-4UL] = (uint8_t)((priority << (8U - __NVIC_PRIO_BITS)) & (uint32_t)0xFFUL);
  }
}
 8003d54:	e00a      	b.n	8003d6c <__NVIC_SetPriority+0x40>
    SCB->SHP[(((uint32_t)IRQn) & 0xFUL)-4UL] = (uint8_t)((priority << (8U - __NVIC_PRIO_BITS)) & (uint32_t)0xFFUL);
 8003d56:	683b      	ldr	r3, [r7, #0]
 8003d58:	b2da      	uxtb	r2, r3
 8003d5a:	4908      	ldr	r1, [pc, #32]	@ (8003d7c <__NVIC_SetPriority+0x50>)
 8003d5c:	79fb      	ldrb	r3, [r7, #7]
 8003d5e:	f003 030f 	and.w	r3, r3, #15
 8003d62:	3b04      	subs	r3, #4
 8003d64:	0112      	lsls	r2, r2, #4
 8003d66:	b2d2      	uxtb	r2, r2
 8003d68:	440b      	add	r3, r1
 8003d6a:	761a      	strb	r2, [r3, #24]
}
 8003d6c:	bf00      	nop
 8003d6e:	370c      	adds	r7, #12
 8003d70:	46bd      	mov	sp, r7
 8003d72:	f85d 7b04 	ldr.w	r7, [sp], #4
 8003d76:	4770      	bx	lr
 8003d78:	e000e100 	.word	0xe000e100
 8003d7c:	e000ed00 	.word	0xe000ed00

08003d80 <NVIC_EncodePriority>:
  \param [in]   PreemptPriority  Preemptive priority value (starting from 0).
  \param [in]       SubPriority  Subpriority value (starting from 0).
  \return                        Encoded priority. Value can be used in the function \ref NVIC_SetPriority().
 */
__STATIC_INLINE uint32_t NVIC_EncodePriority (uint32_t PriorityGroup, uint32_t PreemptPriority, uint32_t SubPriority)
{
 8003d80:	b480      	push	{r7}
 8003d82:	b089      	sub	sp, #36	@ 0x24
 8003d84:	af00      	add	r7, sp, #0
 8003d86:	60f8      	str	r0, [r7, #12]
 8003d88:	60b9      	str	r1, [r7, #8]
 8003d8a:	607a      	str	r2, [r7, #4]
  uint32_t PriorityGroupTmp = (PriorityGroup & (uint32_t)0x07UL);   /* only values 0..7 are used          */
 8003d8c:	68fb      	ldr	r3, [r7, #12]
 8003d8e:	f003 0307 	and.w	r3, r3, #7
 8003d92:	61fb      	str	r3, [r7, #28]
  uint32_t PreemptPriorityBits;
  uint32_t SubPriorityBits;

  PreemptPriorityBits = ((7UL - PriorityGroupTmp) > (uint32_t)(__NVIC_PRIO_BITS)) ? (uint32_t)(__NVIC_PRIO_BITS) : (uint32_t)(7UL - PriorityGroupTmp);
 8003d94:	69fb      	ldr	r3, [r7, #28]
 8003d96:	f1c3 0307 	rsb	r3, r3, #7
 8003d9a:	2b04      	cmp	r3, #4
 8003d9c:	bf28      	it	cs
 8003d9e:	2304      	movcs	r3, #4
 8003da0:	61bb      	str	r3, [r7, #24]
  SubPriorityBits     = ((PriorityGroupTmp + (uint32_t)(__NVIC_PRIO_BITS)) < (uint32_t)7UL) ? (uint32_t)0UL : (uint32_t)((PriorityGroupTmp - 7UL) + (uint32_t)(__NVIC_PRIO_BITS));
 8003da2:	69fb      	ldr	r3, [r7, #28]
 8003da4:	3304      	adds	r3, #4
 8003da6:	2b06      	cmp	r3, #6
 8003da8:	d902      	bls.n	8003db0 <NVIC_EncodePriority+0x30>
 8003daa:	69fb      	ldr	r3, [r7, #28]
 8003dac:	3b03      	subs	r3, #3
 8003dae:	e000      	b.n	8003db2 <NVIC_EncodePriority+0x32>
 8003db0:	2300      	movs	r3, #0
 8003db2:	617b      	str	r3, [r7, #20]

  return (
           ((PreemptPriority & (uint32_t)((1UL << (PreemptPriorityBits)) - 1UL)) << SubPriorityBits) |
 8003db4:	f04f 32ff 	mov.w	r2, #4294967295
 8003db8:	69bb      	ldr	r3, [r7, #24]
 8003dba:	fa02 f303 	lsl.w	r3, r2, r3
 8003dbe:	43da      	mvns	r2, r3
 8003dc0:	68bb      	ldr	r3, [r7, #8]
 8003dc2:	401a      	ands	r2, r3
 8003dc4:	697b      	ldr	r3, [r7, #20]
 8003dc6:	409a      	lsls	r2, r3
           ((SubPriority     & (uint32_t)((1UL << (SubPriorityBits    )) - 1UL)))
 8003dc8:	f04f 31ff 	mov.w	r1, #4294967295
 8003dcc:	697b      	ldr	r3, [r7, #20]
 8003dce:	fa01 f303 	lsl.w	r3, r1, r3
 8003dd2:	43d9      	mvns	r1, r3
 8003dd4:	687b      	ldr	r3, [r7, #4]
 8003dd6:	400b      	ands	r3, r1
           ((PreemptPriority & (uint32_t)((1UL << (PreemptPriorityBits)) - 1UL)) << SubPriorityBits) |
 8003dd8:	4313      	orrs	r3, r2
         );
}
 8003dda:	4618      	mov	r0, r3
 8003ddc:	3724      	adds	r7, #36	@ 0x24
 8003dde:	46bd      	mov	sp, r7
 8003de0:	f85d 7b04 	ldr.w	r7, [sp], #4
 8003de4:	4770      	bx	lr
	...

08003de8 <SysTick_Config>:
  \note    When the variable <b>__Vendor_SysTickConfig</b> is set to 1, then the
           function <b>SysTick_Config</b> is not included. In this case, the file <b><i>device</i>.h</b>
           must contain a vendor-specific implementation of this function.
 */
__STATIC_INLINE uint32_t SysTick_Config(uint32_t ticks)
{
 8003de8:	b580      	push	{r7, lr}
 8003dea:	b082      	sub	sp, #8
 8003dec:	af00      	add	r7, sp, #0
 8003dee:	6078      	str	r0, [r7, #4]
  if ((ticks - 1UL) > SysTick_LOAD_RELOAD_Msk)
 8003df0:	687b      	ldr	r3, [r7, #4]
 8003df2:	3b01      	subs	r3, #1
 8003df4:	f1b3 7f80 	cmp.w	r3, #16777216	@ 0x1000000
 8003df8:	d301      	bcc.n	8003dfe <SysTick_Config+0x16>
  {
    return (1UL);                                                   /* Reload value impossible */
 8003dfa:	2301      	movs	r3, #1
 8003dfc:	e00f      	b.n	8003e1e <SysTick_Config+0x36>
  }

  SysTick->LOAD  = (uint32_t)(ticks - 1UL);                         /* set reload register */
 8003dfe:	4a0a      	ldr	r2, [pc, #40]	@ (8003e28 <SysTick_Config+0x40>)
 8003e00:	687b      	ldr	r3, [r7, #4]
 8003e02:	3b01      	subs	r3, #1
 8003e04:	6053      	str	r3, [r2, #4]
  NVIC_SetPriority (SysTick_IRQn, (1UL << __NVIC_PRIO_BITS) - 1UL); /* set Priority for Systick Interrupt */
 8003e06:	210f      	movs	r1, #15
 8003e08:	f04f 30ff 	mov.w	r0, #4294967295
 8003e0c:	f7ff ff8e 	bl	8003d2c <__NVIC_SetPriority>
  SysTick->VAL   = 0UL;                                             /* Load the SysTick Counter Value */
 8003e10:	4b05      	ldr	r3, [pc, #20]	@ (8003e28 <SysTick_Config+0x40>)
 8003e12:	2200      	movs	r2, #0
 8003e14:	609a      	str	r2, [r3, #8]
  SysTick->CTRL  = SysTick_CTRL_CLKSOURCE_Msk |
 8003e16:	4b04      	ldr	r3, [pc, #16]	@ (8003e28 <SysTick_Config+0x40>)
 8003e18:	2207      	movs	r2, #7
 8003e1a:	601a      	str	r2, [r3, #0]
                   SysTick_CTRL_TICKINT_Msk   |
                   SysTick_CTRL_ENABLE_Msk;                         /* Enable SysTick IRQ and SysTick Timer */
  return (0UL);                                                     /* Function successful */
 8003e1c:	2300      	movs	r3, #0
}
 8003e1e:	4618      	mov	r0, r3
 8003e20:	3708      	adds	r7, #8
 8003e22:	46bd      	mov	sp, r7
 8003e24:	bd80      	pop	{r7, pc}
 8003e26:	bf00      	nop
 8003e28:	e000e010 	.word	0xe000e010

08003e2c <HAL_NVIC_SetPriorityGrouping>:
  * @note   When the NVIC_PriorityGroup_0 is selected, IRQ pre-emption is no more possible.
  *         The pending IRQ priority will be managed only by the subpriority.
  * @retval None
  */
void HAL_NVIC_SetPriorityGrouping(uint32_t PriorityGroup)
{
 8003e2c:	b580      	push	{r7, lr}
 8003e2e:	b082      	sub	sp, #8
 8003e30:	af00      	add	r7, sp, #0
 8003e32:	6078      	str	r0, [r7, #4]
  /* Check the parameters */
  assert_param(IS_NVIC_PRIORITY_GROUP(PriorityGroup));

  /* Set the PRIGROUP[10:8] bits according to the PriorityGroup parameter value */
  NVIC_SetPriorityGrouping(PriorityGroup);
 8003e34:	6878      	ldr	r0, [r7, #4]
 8003e36:	f7ff ff29 	bl	8003c8c <__NVIC_SetPriorityGrouping>
}
 8003e3a:	bf00      	nop
 8003e3c:	3708      	adds	r7, #8
 8003e3e:	46bd      	mov	sp, r7
 8003e40:	bd80      	pop	{r7, pc}

08003e42 <HAL_NVIC_SetPriority>:
  *         This parameter can be a value between 0 and 15
  *         A lower priority value indicates a higher priority.
  * @retval None
  */
void HAL_NVIC_SetPriority(IRQn_Type IRQn, uint32_t PreemptPriority, uint32_t SubPriority)
{
 8003e42:	b580      	push	{r7, lr}
 8003e44:	b086      	sub	sp, #24
 8003e46:	af00      	add	r7, sp, #0
 8003e48:	4603      	mov	r3, r0
 8003e4a:	60b9      	str	r1, [r7, #8]
 8003e4c:	607a      	str	r2, [r7, #4]
 8003e4e:	73fb      	strb	r3, [r7, #15]
  uint32_t prioritygroup = 0x00;
 8003e50:	2300      	movs	r3, #0
 8003e52:	617b      	str	r3, [r7, #20]

  /* Check the parameters */
  assert_param(IS_NVIC_SUB_PRIORITY(SubPriority));
  assert_param(IS_NVIC_PREEMPTION_PRIORITY(PreemptPriority));

  prioritygroup = NVIC_GetPriorityGrouping();
 8003e54:	f7ff ff3e 	bl	8003cd4 <__NVIC_GetPriorityGrouping>
 8003e58:	6178      	str	r0, [r7, #20]

  NVIC_SetPriority(IRQn, NVIC_EncodePriority(prioritygroup, PreemptPriority, SubPriority));
 8003e5a:	687a      	ldr	r2, [r7, #4]
 8003e5c:	68b9      	ldr	r1, [r7, #8]
 8003e5e:	6978      	ldr	r0, [r7, #20]
 8003e60:	f7ff ff8e 	bl	8003d80 <NVIC_EncodePriority>
 8003e64:	4602      	mov	r2, r0
 8003e66:	f997 300f 	ldrsb.w	r3, [r7, #15]
 8003e6a:	4611      	mov	r1, r2
 8003e6c:	4618      	mov	r0, r3
 8003e6e:	f7ff ff5d 	bl	8003d2c <__NVIC_SetPriority>
}
 8003e72:	bf00      	nop
 8003e74:	3718      	adds	r7, #24
 8003e76:	46bd      	mov	sp, r7
 8003e78:	bd80      	pop	{r7, pc}

08003e7a <HAL_NVIC_EnableIRQ>:
  *         This parameter can be an enumerator of IRQn_Type enumeration
  *         (For the complete STM32 Devices IRQ Channels list, please refer to the appropriate CMSIS device file (stm32l4xxxx.h))
  * @retval None
  */
void HAL_NVIC_EnableIRQ(IRQn_Type IRQn)
{
 8003e7a:	b580      	push	{r7, lr}
 8003e7c:	b082      	sub	sp, #8
 8003e7e:	af00      	add	r7, sp, #0
 8003e80:	4603      	mov	r3, r0
 8003e82:	71fb      	strb	r3, [r7, #7]
  /* Check the parameters */
  assert_param(IS_NVIC_DEVICE_IRQ(IRQn));
  
  /* Enable interrupt */
  NVIC_EnableIRQ(IRQn);
 8003e84:	f997 3007 	ldrsb.w	r3, [r7, #7]
 8003e88:	4618      	mov	r0, r3
 8003e8a:	f7ff ff31 	bl	8003cf0 <__NVIC_EnableIRQ>
}
 8003e8e:	bf00      	nop
 8003e90:	3708      	adds	r7, #8
 8003e92:	46bd      	mov	sp, r7
 8003e94:	bd80      	pop	{r7, pc}

08003e96 <HAL_SYSTICK_Config>:
  * @param  TicksNumb: Specifies the ticks Number of ticks between two interrupts.
  * @retval status:  - 0  Function succeeded.
  *                  - 1  Function failed.
  */
uint32_t HAL_SYSTICK_Config(uint32_t TicksNumb)
{
 8003e96:	b580      	push	{r7, lr}
 8003e98:	b082      	sub	sp, #8
 8003e9a:	af00      	add	r7, sp, #0
 8003e9c:	6078      	str	r0, [r7, #4]
   return SysTick_Config(TicksNumb);
 8003e9e:	6878      	ldr	r0, [r7, #4]
 8003ea0:	f7ff ffa2 	bl	8003de8 <SysTick_Config>
 8003ea4:	4603      	mov	r3, r0
}
 8003ea6:	4618      	mov	r0, r3
 8003ea8:	3708      	adds	r7, #8
 8003eaa:	46bd      	mov	sp, r7
 8003eac:	bd80      	pop	{r7, pc}
	...

08003eb0 <HAL_GPIO_Init>:
  * @param  GPIO_Init pointer to a GPIO_InitTypeDef structure that contains
  *         the configuration information for the specified GPIO peripheral.
  * @retval None
  */
void HAL_GPIO_Init(GPIO_TypeDef  *GPIOx, GPIO_InitTypeDef *GPIO_Init)
{
 8003eb0:	b480      	push	{r7}
 8003eb2:	b087      	sub	sp, #28
 8003eb4:	af00      	add	r7, sp, #0
 8003eb6:	6078      	str	r0, [r7, #4]
 8003eb8:	6039      	str	r1, [r7, #0]
  uint32_t position = 0x00u;
 8003eba:	2300      	movs	r3, #0
 8003ebc:	617b      	str	r3, [r7, #20]
  assert_param(IS_GPIO_ALL_INSTANCE(GPIOx));
  assert_param(IS_GPIO_PIN(GPIO_Init->Pin));
  assert_param(IS_GPIO_MODE(GPIO_Init->Mode));

  /* Configure the port pins */
  while (((GPIO_Init->Pin) >> position) != 0x00u)
 8003ebe:	e166      	b.n	800418e <HAL_GPIO_Init+0x2de>
  {
    /* Get current io position */
    iocurrent = (GPIO_Init->Pin) & (1uL << position);
 8003ec0:	683b      	ldr	r3, [r7, #0]
 8003ec2:	681a      	ldr	r2, [r3, #0]
 8003ec4:	2101      	movs	r1, #1
 8003ec6:	697b      	ldr	r3, [r7, #20]
 8003ec8:	fa01 f303 	lsl.w	r3, r1, r3
 8003ecc:	4013      	ands	r3, r2
 8003ece:	60fb      	str	r3, [r7, #12]

    if (iocurrent != 0x00u)
 8003ed0:	68fb      	ldr	r3, [r7, #12]
 8003ed2:	2b00      	cmp	r3, #0
 8003ed4:	f000 8158 	beq.w	8004188 <HAL_GPIO_Init+0x2d8>
    {
      /*--------------------- GPIO Mode Configuration ------------------------*/
      /* In case of Output or Alternate function mode selection */
      if (((GPIO_Init->Mode & GPIO_MODE) == MODE_OUTPUT) || ((GPIO_Init->Mode & GPIO_MODE) == MODE_AF))
 8003ed8:	683b      	ldr	r3, [r7, #0]
 8003eda:	685b      	ldr	r3, [r3, #4]
 8003edc:	f003 0303 	and.w	r3, r3, #3
 8003ee0:	2b01      	cmp	r3, #1
 8003ee2:	d005      	beq.n	8003ef0 <HAL_GPIO_Init+0x40>
 8003ee4:	683b      	ldr	r3, [r7, #0]
 8003ee6:	685b      	ldr	r3, [r3, #4]
 8003ee8:	f003 0303 	and.w	r3, r3, #3
 8003eec:	2b02      	cmp	r3, #2
 8003eee:	d130      	bne.n	8003f52 <HAL_GPIO_Init+0xa2>
      {
        /* Check the Speed parameter */
        assert_param(IS_GPIO_SPEED(GPIO_Init->Speed));

        /* Configure the IO Speed */
        temp = GPIOx->OSPEEDR;
 8003ef0:	687b      	ldr	r3, [r7, #4]
 8003ef2:	689b      	ldr	r3, [r3, #8]
 8003ef4:	613b      	str	r3, [r7, #16]
        temp &= ~(GPIO_OSPEEDR_OSPEED0 << (position * 2u));
 8003ef6:	697b      	ldr	r3, [r7, #20]
 8003ef8:	005b      	lsls	r3, r3, #1
 8003efa:	2203      	movs	r2, #3
 8003efc:	fa02 f303 	lsl.w	r3, r2, r3
 8003f00:	43db      	mvns	r3, r3
 8003f02:	693a      	ldr	r2, [r7, #16]
 8003f04:	4013      	ands	r3, r2
 8003f06:	613b      	str	r3, [r7, #16]
        temp |= (GPIO_Init->Speed << (position * 2u));
 8003f08:	683b      	ldr	r3, [r7, #0]
 8003f0a:	68da      	ldr	r2, [r3, #12]
 8003f0c:	697b      	ldr	r3, [r7, #20]
 8003f0e:	005b      	lsls	r3, r3, #1
 8003f10:	fa02 f303 	lsl.w	r3, r2, r3
 8003f14:	693a      	ldr	r2, [r7, #16]
 8003f16:	4313      	orrs	r3, r2
 8003f18:	613b      	str	r3, [r7, #16]
        GPIOx->OSPEEDR = temp;
 8003f1a:	687b      	ldr	r3, [r7, #4]
 8003f1c:	693a      	ldr	r2, [r7, #16]
 8003f1e:	609a      	str	r2, [r3, #8]

        /* Configure the IO Output Type */
        temp = GPIOx->OTYPER;
 8003f20:	687b      	ldr	r3, [r7, #4]
 8003f22:	685b      	ldr	r3, [r3, #4]
 8003f24:	613b      	str	r3, [r7, #16]
        temp &= ~(GPIO_OTYPER_OT0 << position) ;
 8003f26:	2201      	movs	r2, #1
 8003f28:	697b      	ldr	r3, [r7, #20]
 8003f2a:	fa02 f303 	lsl.w	r3, r2, r3
 8003f2e:	43db      	mvns	r3, r3
 8003f30:	693a      	ldr	r2, [r7, #16]
 8003f32:	4013      	ands	r3, r2
 8003f34:	613b      	str	r3, [r7, #16]
        temp |= (((GPIO_Init->Mode & OUTPUT_TYPE) >> OUTPUT_TYPE_Pos) << position);
 8003f36:	683b      	ldr	r3, [r7, #0]
 8003f38:	685b      	ldr	r3, [r3, #4]
 8003f3a:	091b      	lsrs	r3, r3, #4
 8003f3c:	f003 0201 	and.w	r2, r3, #1
 8003f40:	697b      	ldr	r3, [r7, #20]
 8003f42:	fa02 f303 	lsl.w	r3, r2, r3
 8003f46:	693a      	ldr	r2, [r7, #16]
 8003f48:	4313      	orrs	r3, r2
 8003f4a:	613b      	str	r3, [r7, #16]
        GPIOx->OTYPER = temp;
 8003f4c:	687b      	ldr	r3, [r7, #4]
 8003f4e:	693a      	ldr	r2, [r7, #16]
 8003f50:	605a      	str	r2, [r3, #4]
      }

#endif /* STM32L471xx || STM32L475xx || STM32L476xx || STM32L485xx || STM32L486xx */

      /* Activate the Pull-up or Pull down resistor for the current IO */
      if ((GPIO_Init->Mode & GPIO_MODE) != MODE_ANALOG)
 8003f52:	683b      	ldr	r3, [r7, #0]
 8003f54:	685b      	ldr	r3, [r3, #4]
 8003f56:	f003 0303 	and.w	r3, r3, #3
 8003f5a:	2b03      	cmp	r3, #3
 8003f5c:	d017      	beq.n	8003f8e <HAL_GPIO_Init+0xde>
      {
        /* Check the Pull parameter */
        assert_param(IS_GPIO_PULL(GPIO_Init->Pull));

        temp = GPIOx->PUPDR;
 8003f5e:	687b      	ldr	r3, [r7, #4]
 8003f60:	68db      	ldr	r3, [r3, #12]
 8003f62:	613b      	str	r3, [r7, #16]
        temp &= ~(GPIO_PUPDR_PUPD0 << (position * 2U));
 8003f64:	697b      	ldr	r3, [r7, #20]
 8003f66:	005b      	lsls	r3, r3, #1
 8003f68:	2203      	movs	r2, #3
 8003f6a:	fa02 f303 	lsl.w	r3, r2, r3
 8003f6e:	43db      	mvns	r3, r3
 8003f70:	693a      	ldr	r2, [r7, #16]
 8003f72:	4013      	ands	r3, r2
 8003f74:	613b      	str	r3, [r7, #16]
        temp |= ((GPIO_Init->Pull) << (position * 2U));
 8003f76:	683b      	ldr	r3, [r7, #0]
 8003f78:	689a      	ldr	r2, [r3, #8]
 8003f7a:	697b      	ldr	r3, [r7, #20]
 8003f7c:	005b      	lsls	r3, r3, #1
 8003f7e:	fa02 f303 	lsl.w	r3, r2, r3
 8003f82:	693a      	ldr	r2, [r7, #16]
 8003f84:	4313      	orrs	r3, r2
 8003f86:	613b      	str	r3, [r7, #16]
        GPIOx->PUPDR = temp;
 8003f88:	687b      	ldr	r3, [r7, #4]
 8003f8a:	693a      	ldr	r2, [r7, #16]
 8003f8c:	60da      	str	r2, [r3, #12]
      }

      /* In case of Alternate function mode selection */
      if ((GPIO_Init->Mode & GPIO_MODE) == MODE_AF)
 8003f8e:	683b      	ldr	r3, [r7, #0]
 8003f90:	685b      	ldr	r3, [r3, #4]
 8003f92:	f003 0303 	and.w	r3, r3, #3
 8003f96:	2b02      	cmp	r3, #2
 8003f98:	d123      	bne.n	8003fe2 <HAL_GPIO_Init+0x132>
        /* Check the Alternate function parameters */
        assert_param(IS_GPIO_AF_INSTANCE(GPIOx));
        assert_param(IS_GPIO_AF(GPIO_Init->Alternate));

        /* Configure Alternate function mapped with the current IO */
        temp = GPIOx->AFR[position >> 3u];
 8003f9a:	697b      	ldr	r3, [r7, #20]
 8003f9c:	08da      	lsrs	r2, r3, #3
 8003f9e:	687b      	ldr	r3, [r7, #4]
 8003fa0:	3208      	adds	r2, #8
 8003fa2:	f853 3022 	ldr.w	r3, [r3, r2, lsl #2]
 8003fa6:	613b      	str	r3, [r7, #16]
        temp &= ~(0xFu << ((position & 0x07u) * 4u));
 8003fa8:	697b      	ldr	r3, [r7, #20]
 8003faa:	f003 0307 	and.w	r3, r3, #7
 8003fae:	009b      	lsls	r3, r3, #2
 8003fb0:	220f      	movs	r2, #15
 8003fb2:	fa02 f303 	lsl.w	r3, r2, r3
 8003fb6:	43db      	mvns	r3, r3
 8003fb8:	693a      	ldr	r2, [r7, #16]
 8003fba:	4013      	ands	r3, r2
 8003fbc:	613b      	str	r3, [r7, #16]
        temp |= ((GPIO_Init->Alternate) << ((position & 0x07u) * 4u));
 8003fbe:	683b      	ldr	r3, [r7, #0]
 8003fc0:	691a      	ldr	r2, [r3, #16]
 8003fc2:	697b      	ldr	r3, [r7, #20]
 8003fc4:	f003 0307 	and.w	r3, r3, #7
 8003fc8:	009b      	lsls	r3, r3, #2
 8003fca:	fa02 f303 	lsl.w	r3, r2, r3
 8003fce:	693a      	ldr	r2, [r7, #16]
 8003fd0:	4313      	orrs	r3, r2
 8003fd2:	613b      	str	r3, [r7, #16]
        GPIOx->AFR[position >> 3u] = temp;
 8003fd4:	697b      	ldr	r3, [r7, #20]
 8003fd6:	08da      	lsrs	r2, r3, #3
 8003fd8:	687b      	ldr	r3, [r7, #4]
 8003fda:	3208      	adds	r2, #8
 8003fdc:	6939      	ldr	r1, [r7, #16]
 8003fde:	f843 1022 	str.w	r1, [r3, r2, lsl #2]
      }

      /* Configure IO Direction mode (Input, Output, Alternate or Analog) */
      temp = GPIOx->MODER;
 8003fe2:	687b      	ldr	r3, [r7, #4]
 8003fe4:	681b      	ldr	r3, [r3, #0]
 8003fe6:	613b      	str	r3, [r7, #16]
      temp &= ~(GPIO_MODER_MODE0 << (position * 2u));
 8003fe8:	697b      	ldr	r3, [r7, #20]
 8003fea:	005b      	lsls	r3, r3, #1
 8003fec:	2203      	movs	r2, #3
 8003fee:	fa02 f303 	lsl.w	r3, r2, r3
 8003ff2:	43db      	mvns	r3, r3
 8003ff4:	693a      	ldr	r2, [r7, #16]
 8003ff6:	4013      	ands	r3, r2
 8003ff8:	613b      	str	r3, [r7, #16]
      temp |= ((GPIO_Init->Mode & GPIO_MODE) << (position * 2u));
 8003ffa:	683b      	ldr	r3, [r7, #0]
 8003ffc:	685b      	ldr	r3, [r3, #4]
 8003ffe:	f003 0203 	and.w	r2, r3, #3
 8004002:	697b      	ldr	r3, [r7, #20]
 8004004:	005b      	lsls	r3, r3, #1
 8004006:	fa02 f303 	lsl.w	r3, r2, r3
 800400a:	693a      	ldr	r2, [r7, #16]
 800400c:	4313      	orrs	r3, r2
 800400e:	613b      	str	r3, [r7, #16]
      GPIOx->MODER = temp;
 8004010:	687b      	ldr	r3, [r7, #4]
 8004012:	693a      	ldr	r2, [r7, #16]
 8004014:	601a      	str	r2, [r3, #0]

      /*--------------------- EXTI Mode Configuration ------------------------*/
      /* Configure the External Interrupt or event for the current IO */
      if ((GPIO_Init->Mode & EXTI_MODE) != 0x00u)
 8004016:	683b      	ldr	r3, [r7, #0]
 8004018:	685b      	ldr	r3, [r3, #4]
 800401a:	f403 3340 	and.w	r3, r3, #196608	@ 0x30000
 800401e:	2b00      	cmp	r3, #0
 8004020:	f000 80b2 	beq.w	8004188 <HAL_GPIO_Init+0x2d8>
      {
        /* Enable SYSCFG Clock */
        __HAL_RCC_SYSCFG_CLK_ENABLE();
 8004024:	4b61      	ldr	r3, [pc, #388]	@ (80041ac <HAL_GPIO_Init+0x2fc>)
 8004026:	6e1b      	ldr	r3, [r3, #96]	@ 0x60
 8004028:	4a60      	ldr	r2, [pc, #384]	@ (80041ac <HAL_GPIO_Init+0x2fc>)
 800402a:	f043 0301 	orr.w	r3, r3, #1
 800402e:	6613      	str	r3, [r2, #96]	@ 0x60
 8004030:	4b5e      	ldr	r3, [pc, #376]	@ (80041ac <HAL_GPIO_Init+0x2fc>)
 8004032:	6e1b      	ldr	r3, [r3, #96]	@ 0x60
 8004034:	f003 0301 	and.w	r3, r3, #1
 8004038:	60bb      	str	r3, [r7, #8]
 800403a:	68bb      	ldr	r3, [r7, #8]

        temp = SYSCFG->EXTICR[position >> 2u];
 800403c:	4a5c      	ldr	r2, [pc, #368]	@ (80041b0 <HAL_GPIO_Init+0x300>)
 800403e:	697b      	ldr	r3, [r7, #20]
 8004040:	089b      	lsrs	r3, r3, #2
 8004042:	3302      	adds	r3, #2
 8004044:	f852 3023 	ldr.w	r3, [r2, r3, lsl #2]
 8004048:	613b      	str	r3, [r7, #16]
        temp &= ~(0x0FuL << (4u * (position & 0x03u)));
 800404a:	697b      	ldr	r3, [r7, #20]
 800404c:	f003 0303 	and.w	r3, r3, #3
 8004050:	009b      	lsls	r3, r3, #2
 8004052:	220f      	movs	r2, #15
 8004054:	fa02 f303 	lsl.w	r3, r2, r3
 8004058:	43db      	mvns	r3, r3
 800405a:	693a      	ldr	r2, [r7, #16]
 800405c:	4013      	ands	r3, r2
 800405e:	613b      	str	r3, [r7, #16]
        temp |= (GPIO_GET_INDEX(GPIOx) << (4u * (position & 0x03u)));
 8004060:	687b      	ldr	r3, [r7, #4]
 8004062:	f1b3 4f90 	cmp.w	r3, #1207959552	@ 0x48000000
 8004066:	d02b      	beq.n	80040c0 <HAL_GPIO_Init+0x210>
 8004068:	687b      	ldr	r3, [r7, #4]
 800406a:	4a52      	ldr	r2, [pc, #328]	@ (80041b4 <HAL_GPIO_Init+0x304>)
 800406c:	4293      	cmp	r3, r2
 800406e:	d025      	beq.n	80040bc <HAL_GPIO_Init+0x20c>
 8004070:	687b      	ldr	r3, [r7, #4]
 8004072:	4a51      	ldr	r2, [pc, #324]	@ (80041b8 <HAL_GPIO_Init+0x308>)
 8004074:	4293      	cmp	r3, r2
 8004076:	d01f      	beq.n	80040b8 <HAL_GPIO_Init+0x208>
 8004078:	687b      	ldr	r3, [r7, #4]
 800407a:	4a50      	ldr	r2, [pc, #320]	@ (80041bc <HAL_GPIO_Init+0x30c>)
 800407c:	4293      	cmp	r3, r2
 800407e:	d019      	beq.n	80040b4 <HAL_GPIO_Init+0x204>
 8004080:	687b      	ldr	r3, [r7, #4]
 8004082:	4a4f      	ldr	r2, [pc, #316]	@ (80041c0 <HAL_GPIO_Init+0x310>)
 8004084:	4293      	cmp	r3, r2
 8004086:	d013      	beq.n	80040b0 <HAL_GPIO_Init+0x200>
 8004088:	687b      	ldr	r3, [r7, #4]
 800408a:	4a4e      	ldr	r2, [pc, #312]	@ (80041c4 <HAL_GPIO_Init+0x314>)
 800408c:	4293      	cmp	r3, r2
 800408e:	d00d      	beq.n	80040ac <HAL_GPIO_Init+0x1fc>
 8004090:	687b      	ldr	r3, [r7, #4]
 8004092:	4a4d      	ldr	r2, [pc, #308]	@ (80041c8 <HAL_GPIO_Init+0x318>)
 8004094:	4293      	cmp	r3, r2
 8004096:	d007      	beq.n	80040a8 <HAL_GPIO_Init+0x1f8>
 8004098:	687b      	ldr	r3, [r7, #4]
 800409a:	4a4c      	ldr	r2, [pc, #304]	@ (80041cc <HAL_GPIO_Init+0x31c>)
 800409c:	4293      	cmp	r3, r2
 800409e:	d101      	bne.n	80040a4 <HAL_GPIO_Init+0x1f4>
 80040a0:	2307      	movs	r3, #7
 80040a2:	e00e      	b.n	80040c2 <HAL_GPIO_Init+0x212>
 80040a4:	2308      	movs	r3, #8
 80040a6:	e00c      	b.n	80040c2 <HAL_GPIO_Init+0x212>
 80040a8:	2306      	movs	r3, #6
 80040aa:	e00a      	b.n	80040c2 <HAL_GPIO_Init+0x212>
 80040ac:	2305      	movs	r3, #5
 80040ae:	e008      	b.n	80040c2 <HAL_GPIO_Init+0x212>
 80040b0:	2304      	movs	r3, #4
 80040b2:	e006      	b.n	80040c2 <HAL_GPIO_Init+0x212>
 80040b4:	2303      	movs	r3, #3
 80040b6:	e004      	b.n	80040c2 <HAL_GPIO_Init+0x212>
 80040b8:	2302      	movs	r3, #2
 80040ba:	e002      	b.n	80040c2 <HAL_GPIO_Init+0x212>
 80040bc:	2301      	movs	r3, #1
 80040be:	e000      	b.n	80040c2 <HAL_GPIO_Init+0x212>
 80040c0:	2300      	movs	r3, #0
 80040c2:	697a      	ldr	r2, [r7, #20]
 80040c4:	f002 0203 	and.w	r2, r2, #3
 80040c8:	0092      	lsls	r2, r2, #2
 80040ca:	4093      	lsls	r3, r2
 80040cc:	693a      	ldr	r2, [r7, #16]
 80040ce:	4313      	orrs	r3, r2
 80040d0:	613b      	str	r3, [r7, #16]
        SYSCFG->EXTICR[position >> 2u] = temp;
 80040d2:	4937      	ldr	r1, [pc, #220]	@ (80041b0 <HAL_GPIO_Init+0x300>)
 80040d4:	697b      	ldr	r3, [r7, #20]
 80040d6:	089b      	lsrs	r3, r3, #2
 80040d8:	3302      	adds	r3, #2
 80040da:	693a      	ldr	r2, [r7, #16]
 80040dc:	f841 2023 	str.w	r2, [r1, r3, lsl #2]

        /* Clear Rising Falling edge configuration */
        temp = EXTI->RTSR1;
 80040e0:	4b3b      	ldr	r3, [pc, #236]	@ (80041d0 <HAL_GPIO_Init+0x320>)
 80040e2:	689b      	ldr	r3, [r3, #8]
 80040e4:	613b      	str	r3, [r7, #16]
        temp &= ~(iocurrent);
 80040e6:	68fb      	ldr	r3, [r7, #12]
 80040e8:	43db      	mvns	r3, r3
 80040ea:	693a      	ldr	r2, [r7, #16]
 80040ec:	4013      	ands	r3, r2
 80040ee:	613b      	str	r3, [r7, #16]
        if ((GPIO_Init->Mode & TRIGGER_RISING) != 0x00u)
 80040f0:	683b      	ldr	r3, [r7, #0]
 80040f2:	685b      	ldr	r3, [r3, #4]
 80040f4:	f403 1380 	and.w	r3, r3, #1048576	@ 0x100000
 80040f8:	2b00      	cmp	r3, #0
 80040fa:	d003      	beq.n	8004104 <HAL_GPIO_Init+0x254>
        {
          temp |= iocurrent;
 80040fc:	693a      	ldr	r2, [r7, #16]
 80040fe:	68fb      	ldr	r3, [r7, #12]
 8004100:	4313      	orrs	r3, r2
 8004102:	613b      	str	r3, [r7, #16]
        }
        EXTI->RTSR1 = temp;
 8004104:	4a32      	ldr	r2, [pc, #200]	@ (80041d0 <HAL_GPIO_Init+0x320>)
 8004106:	693b      	ldr	r3, [r7, #16]
 8004108:	6093      	str	r3, [r2, #8]

        temp = EXTI->FTSR1;
 800410a:	4b31      	ldr	r3, [pc, #196]	@ (80041d0 <HAL_GPIO_Init+0x320>)
 800410c:	68db      	ldr	r3, [r3, #12]
 800410e:	613b      	str	r3, [r7, #16]
        temp &= ~(iocurrent);
 8004110:	68fb      	ldr	r3, [r7, #12]
 8004112:	43db      	mvns	r3, r3
 8004114:	693a      	ldr	r2, [r7, #16]
 8004116:	4013      	ands	r3, r2
 8004118:	613b      	str	r3, [r7, #16]
        if ((GPIO_Init->Mode & TRIGGER_FALLING) != 0x00u)
 800411a:	683b      	ldr	r3, [r7, #0]
 800411c:	685b      	ldr	r3, [r3, #4]
 800411e:	f403 1300 	and.w	r3, r3, #2097152	@ 0x200000
 8004122:	2b00      	cmp	r3, #0
 8004124:	d003      	beq.n	800412e <HAL_GPIO_Init+0x27e>
        {
          temp |= iocurrent;
 8004126:	693a      	ldr	r2, [r7, #16]
 8004128:	68fb      	ldr	r3, [r7, #12]
 800412a:	4313      	orrs	r3, r2
 800412c:	613b      	str	r3, [r7, #16]
        }
        EXTI->FTSR1 = temp;
 800412e:	4a28      	ldr	r2, [pc, #160]	@ (80041d0 <HAL_GPIO_Init+0x320>)
 8004130:	693b      	ldr	r3, [r7, #16]
 8004132:	60d3      	str	r3, [r2, #12]

        /* Clear EXTI line configuration */
        temp = EXTI->EMR1;
 8004134:	4b26      	ldr	r3, [pc, #152]	@ (80041d0 <HAL_GPIO_Init+0x320>)
 8004136:	685b      	ldr	r3, [r3, #4]
 8004138:	613b      	str	r3, [r7, #16]
        temp &= ~(iocurrent);
 800413a:	68fb      	ldr	r3, [r7, #12]
 800413c:	43db      	mvns	r3, r3
 800413e:	693a      	ldr	r2, [r7, #16]
 8004140:	4013      	ands	r3, r2
 8004142:	613b      	str	r3, [r7, #16]
        if ((GPIO_Init->Mode & EXTI_EVT) != 0x00u)
 8004144:	683b      	ldr	r3, [r7, #0]
 8004146:	685b      	ldr	r3, [r3, #4]
 8004148:	f403 3300 	and.w	r3, r3, #131072	@ 0x20000
 800414c:	2b00      	cmp	r3, #0
 800414e:	d003      	beq.n	8004158 <HAL_GPIO_Init+0x2a8>
        {
          temp |= iocurrent;
 8004150:	693a      	ldr	r2, [r7, #16]
 8004152:	68fb      	ldr	r3, [r7, #12]
 8004154:	4313      	orrs	r3, r2
 8004156:	613b      	str	r3, [r7, #16]
        }
        EXTI->EMR1 = temp;
 8004158:	4a1d      	ldr	r2, [pc, #116]	@ (80041d0 <HAL_GPIO_Init+0x320>)
 800415a:	693b      	ldr	r3, [r7, #16]
 800415c:	6053      	str	r3, [r2, #4]

        temp = EXTI->IMR1;
 800415e:	4b1c      	ldr	r3, [pc, #112]	@ (80041d0 <HAL_GPIO_Init+0x320>)
 8004160:	681b      	ldr	r3, [r3, #0]
 8004162:	613b      	str	r3, [r7, #16]
        temp &= ~(iocurrent);
 8004164:	68fb      	ldr	r3, [r7, #12]
 8004166:	43db      	mvns	r3, r3
 8004168:	693a      	ldr	r2, [r7, #16]
 800416a:	4013      	ands	r3, r2
 800416c:	613b      	str	r3, [r7, #16]
        if ((GPIO_Init->Mode & EXTI_IT) != 0x00u)
 800416e:	683b      	ldr	r3, [r7, #0]
 8004170:	685b      	ldr	r3, [r3, #4]
 8004172:	f403 3380 	and.w	r3, r3, #65536	@ 0x10000
 8004176:	2b00      	cmp	r3, #0
 8004178:	d003      	beq.n	8004182 <HAL_GPIO_Init+0x2d2>
        {
          temp |= iocurrent;
 800417a:	693a      	ldr	r2, [r7, #16]
 800417c:	68fb      	ldr	r3, [r7, #12]
 800417e:	4313      	orrs	r3, r2
 8004180:	613b      	str	r3, [r7, #16]
        }
        EXTI->IMR1 = temp;
 8004182:	4a13      	ldr	r2, [pc, #76]	@ (80041d0 <HAL_GPIO_Init+0x320>)
 8004184:	693b      	ldr	r3, [r7, #16]
 8004186:	6013      	str	r3, [r2, #0]
      }
    }

    position++;
 8004188:	697b      	ldr	r3, [r7, #20]
 800418a:	3301      	adds	r3, #1
 800418c:	617b      	str	r3, [r7, #20]
  while (((GPIO_Init->Pin) >> position) != 0x00u)
 800418e:	683b      	ldr	r3, [r7, #0]
 8004190:	681a      	ldr	r2, [r3, #0]
 8004192:	697b      	ldr	r3, [r7, #20]
 8004194:	fa22 f303 	lsr.w	r3, r2, r3
 8004198:	2b00      	cmp	r3, #0
 800419a:	f47f ae91 	bne.w	8003ec0 <HAL_GPIO_Init+0x10>
  }
}
 800419e:	bf00      	nop
 80041a0:	bf00      	nop
 80041a2:	371c      	adds	r7, #28
 80041a4:	46bd      	mov	sp, r7
 80041a6:	f85d 7b04 	ldr.w	r7, [sp], #4
 80041aa:	4770      	bx	lr
 80041ac:	40021000 	.word	0x40021000
 80041b0:	40010000 	.word	0x40010000
 80041b4:	48000400 	.word	0x48000400
 80041b8:	48000800 	.word	0x48000800
 80041bc:	48000c00 	.word	0x48000c00
 80041c0:	48001000 	.word	0x48001000
 80041c4:	48001400 	.word	0x48001400
 80041c8:	48001800 	.word	0x48001800
 80041cc:	48001c00 	.word	0x48001c00
 80041d0:	40010400 	.word	0x40010400

080041d4 <HAL_GPIO_ReadPin>:
  * @param  GPIO_Pin specifies the port bit to read.
  *         This parameter can be any combination of GPIO_Pin_x where x can be (0..15).
  * @retval The input port pin value.
  */
GPIO_PinState HAL_GPIO_ReadPin(GPIO_TypeDef* GPIOx, uint16_t GPIO_Pin)
{
 80041d4:	b480      	push	{r7}
 80041d6:	b085      	sub	sp, #20
 80041d8:	af00      	add	r7, sp, #0
 80041da:	6078      	str	r0, [r7, #4]
 80041dc:	460b      	mov	r3, r1
 80041de:	807b      	strh	r3, [r7, #2]
  GPIO_PinState bitstatus;

  /* Check the parameters */
  assert_param(IS_GPIO_PIN(GPIO_Pin));

  if ((GPIOx->IDR & GPIO_Pin) != 0x00u)
 80041e0:	687b      	ldr	r3, [r7, #4]
 80041e2:	691a      	ldr	r2, [r3, #16]
 80041e4:	887b      	ldrh	r3, [r7, #2]
 80041e6:	4013      	ands	r3, r2
 80041e8:	2b00      	cmp	r3, #0
 80041ea:	d002      	beq.n	80041f2 <HAL_GPIO_ReadPin+0x1e>
  {
    bitstatus = GPIO_PIN_SET;
 80041ec:	2301      	movs	r3, #1
 80041ee:	73fb      	strb	r3, [r7, #15]
 80041f0:	e001      	b.n	80041f6 <HAL_GPIO_ReadPin+0x22>
  }
  else
  {
    bitstatus = GPIO_PIN_RESET;
 80041f2:	2300      	movs	r3, #0
 80041f4:	73fb      	strb	r3, [r7, #15]
  }
  return bitstatus;
 80041f6:	7bfb      	ldrb	r3, [r7, #15]
}
 80041f8:	4618      	mov	r0, r3
 80041fa:	3714      	adds	r7, #20
 80041fc:	46bd      	mov	sp, r7
 80041fe:	f85d 7b04 	ldr.w	r7, [sp], #4
 8004202:	4770      	bx	lr

08004204 <HAL_GPIO_WritePin>:
  *            @arg GPIO_PIN_RESET: to clear the port pin
  *            @arg GPIO_PIN_SET: to set the port pin
  * @retval None
  */
void HAL_GPIO_WritePin(GPIO_TypeDef* GPIOx, uint16_t GPIO_Pin, GPIO_PinState PinState)
{
 8004204:	b480      	push	{r7}
 8004206:	b083      	sub	sp, #12
 8004208:	af00      	add	r7, sp, #0
 800420a:	6078      	str	r0, [r7, #4]
 800420c:	460b      	mov	r3, r1
 800420e:	807b      	strh	r3, [r7, #2]
 8004210:	4613      	mov	r3, r2
 8004212:	707b      	strb	r3, [r7, #1]
  /* Check the parameters */
  assert_param(IS_GPIO_PIN(GPIO_Pin));
  assert_param(IS_GPIO_PIN_ACTION(PinState));

  if(PinState != GPIO_PIN_RESET)
 8004214:	787b      	ldrb	r3, [r7, #1]
 8004216:	2b00      	cmp	r3, #0
 8004218:	d003      	beq.n	8004222 <HAL_GPIO_WritePin+0x1e>
  {
    GPIOx->BSRR = (uint32_t)GPIO_Pin;
 800421a:	887a      	ldrh	r2, [r7, #2]
 800421c:	687b      	ldr	r3, [r7, #4]
 800421e:	619a      	str	r2, [r3, #24]
  }
  else
  {
    GPIOx->BRR = (uint32_t)GPIO_Pin;
  }
}
 8004220:	e002      	b.n	8004228 <HAL_GPIO_WritePin+0x24>
    GPIOx->BRR = (uint32_t)GPIO_Pin;
 8004222:	887a      	ldrh	r2, [r7, #2]
 8004224:	687b      	ldr	r3, [r7, #4]
 8004226:	629a      	str	r2, [r3, #40]	@ 0x28
}
 8004228:	bf00      	nop
 800422a:	370c      	adds	r7, #12
 800422c:	46bd      	mov	sp, r7
 800422e:	f85d 7b04 	ldr.w	r7, [sp], #4
 8004232:	4770      	bx	lr

08004234 <HAL_GPIO_TogglePin>:
  * @param  GPIOx where x can be (A..H) to select the GPIO peripheral for STM32L4 family
  * @param  GPIO_Pin specifies the pin to be toggled.
  * @retval None
  */
void HAL_GPIO_TogglePin(GPIO_TypeDef* GPIOx, uint16_t GPIO_Pin)
{
 8004234:	b480      	push	{r7}
 8004236:	b085      	sub	sp, #20
 8004238:	af00      	add	r7, sp, #0
 800423a:	6078      	str	r0, [r7, #4]
 800423c:	460b      	mov	r3, r1
 800423e:	807b      	strh	r3, [r7, #2]

  /* Check the parameters */
  assert_param(IS_GPIO_PIN(GPIO_Pin));

  /* get current Output Data Register value */
  odr = GPIOx->ODR;
 8004240:	687b      	ldr	r3, [r7, #4]
 8004242:	695b      	ldr	r3, [r3, #20]
 8004244:	60fb      	str	r3, [r7, #12]

  /* Set selected pins that were at low level, and reset ones that were high */
  GPIOx->BSRR = ((odr & GPIO_Pin) << GPIO_NUMBER) | (~odr & GPIO_Pin);
 8004246:	887a      	ldrh	r2, [r7, #2]
 8004248:	68fb      	ldr	r3, [r7, #12]
 800424a:	4013      	ands	r3, r2
 800424c:	041a      	lsls	r2, r3, #16
 800424e:	68fb      	ldr	r3, [r7, #12]
 8004250:	43d9      	mvns	r1, r3
 8004252:	887b      	ldrh	r3, [r7, #2]
 8004254:	400b      	ands	r3, r1
 8004256:	431a      	orrs	r2, r3
 8004258:	687b      	ldr	r3, [r7, #4]
 800425a:	619a      	str	r2, [r3, #24]
}
 800425c:	bf00      	nop
 800425e:	3714      	adds	r7, #20
 8004260:	46bd      	mov	sp, r7
 8004262:	f85d 7b04 	ldr.w	r7, [sp], #4
 8004266:	4770      	bx	lr

08004268 <HAL_GPIO_EXTI_IRQHandler>:
  * @brief  Handle EXTI interrupt request.
  * @param  GPIO_Pin Specifies the port pin connected to corresponding EXTI line.
  * @retval None
  */
void HAL_GPIO_EXTI_IRQHandler(uint16_t GPIO_Pin)
{
 8004268:	b580      	push	{r7, lr}
 800426a:	b082      	sub	sp, #8
 800426c:	af00      	add	r7, sp, #0
 800426e:	4603      	mov	r3, r0
 8004270:	80fb      	strh	r3, [r7, #6]
  /* EXTI line interrupt detected */
  if(__HAL_GPIO_EXTI_GET_IT(GPIO_Pin) != 0x00u)
 8004272:	4b08      	ldr	r3, [pc, #32]	@ (8004294 <HAL_GPIO_EXTI_IRQHandler+0x2c>)
 8004274:	695a      	ldr	r2, [r3, #20]
 8004276:	88fb      	ldrh	r3, [r7, #6]
 8004278:	4013      	ands	r3, r2
 800427a:	2b00      	cmp	r3, #0
 800427c:	d006      	beq.n	800428c <HAL_GPIO_EXTI_IRQHandler+0x24>
  {
    __HAL_GPIO_EXTI_CLEAR_IT(GPIO_Pin);
 800427e:	4a05      	ldr	r2, [pc, #20]	@ (8004294 <HAL_GPIO_EXTI_IRQHandler+0x2c>)
 8004280:	88fb      	ldrh	r3, [r7, #6]
 8004282:	6153      	str	r3, [r2, #20]
    HAL_GPIO_EXTI_Callback(GPIO_Pin);
 8004284:	88fb      	ldrh	r3, [r7, #6]
 8004286:	4618      	mov	r0, r3
 8004288:	f000 f806 	bl	8004298 <HAL_GPIO_EXTI_Callback>
  }
}
 800428c:	bf00      	nop
 800428e:	3708      	adds	r7, #8
 8004290:	46bd      	mov	sp, r7
 8004292:	bd80      	pop	{r7, pc}
 8004294:	40010400 	.word	0x40010400

08004298 <HAL_GPIO_EXTI_Callback>:
  * @brief  EXTI line detection callback.
  * @param  GPIO_Pin Specifies the port pin connected to corresponding EXTI line.
  * @retval None
  */
__weak void HAL_GPIO_EXTI_Callback(uint16_t GPIO_Pin)
{
 8004298:	b480      	push	{r7}
 800429a:	b083      	sub	sp, #12
 800429c:	af00      	add	r7, sp, #0
 800429e:	4603      	mov	r3, r0
 80042a0:	80fb      	strh	r3, [r7, #6]
  UNUSED(GPIO_Pin);

  /* NOTE: This function should not be modified, when the callback is needed,
           the HAL_GPIO_EXTI_Callback could be implemented in the user file
   */
}
 80042a2:	bf00      	nop
 80042a4:	370c      	adds	r7, #12
 80042a6:	46bd      	mov	sp, r7
 80042a8:	f85d 7b04 	ldr.w	r7, [sp], #4
 80042ac:	4770      	bx	lr

080042ae <HAL_I2C_Init>:
  * @param  hi2c Pointer to a I2C_HandleTypeDef structure that contains
  *                the configuration information for the specified I2C.
  * @retval HAL status
  */
HAL_StatusTypeDef HAL_I2C_Init(I2C_HandleTypeDef *hi2c)
{
 80042ae:	b580      	push	{r7, lr}
 80042b0:	b082      	sub	sp, #8
 80042b2:	af00      	add	r7, sp, #0
 80042b4:	6078      	str	r0, [r7, #4]
  /* Check the I2C handle allocation */
  if (hi2c == NULL)
 80042b6:	687b      	ldr	r3, [r7, #4]
 80042b8:	2b00      	cmp	r3, #0
 80042ba:	d101      	bne.n	80042c0 <HAL_I2C_Init+0x12>
  {
    return HAL_ERROR;
 80042bc:	2301      	movs	r3, #1
 80042be:	e08d      	b.n	80043dc <HAL_I2C_Init+0x12e>
  assert_param(IS_I2C_OWN_ADDRESS2(hi2c->Init.OwnAddress2));
  assert_param(IS_I2C_OWN_ADDRESS2_MASK(hi2c->Init.OwnAddress2Masks));
  assert_param(IS_I2C_GENERAL_CALL(hi2c->Init.GeneralCallMode));
  assert_param(IS_I2C_NO_STRETCH(hi2c->Init.NoStretchMode));

  if (hi2c->State == HAL_I2C_STATE_RESET)
 80042c0:	687b      	ldr	r3, [r7, #4]
 80042c2:	f893 3041 	ldrb.w	r3, [r3, #65]	@ 0x41
 80042c6:	b2db      	uxtb	r3, r3
 80042c8:	2b00      	cmp	r3, #0
 80042ca:	d106      	bne.n	80042da <HAL_I2C_Init+0x2c>
  {
    /* Allocate lock resource and initialize it */
    hi2c->Lock = HAL_UNLOCKED;
 80042cc:	687b      	ldr	r3, [r7, #4]
 80042ce:	2200      	movs	r2, #0
 80042d0:	f883 2040 	strb.w	r2, [r3, #64]	@ 0x40

    /* Init the low level hardware : GPIO, CLOCK, CORTEX...etc */
    hi2c->MspInitCallback(hi2c);
#else
    /* Init the low level hardware : GPIO, CLOCK, CORTEX...etc */
    HAL_I2C_MspInit(hi2c);
 80042d4:	6878      	ldr	r0, [r7, #4]
 80042d6:	f000 f8b4 	bl	8004442 <HAL_I2C_MspInit>
#endif /* USE_HAL_I2C_REGISTER_CALLBACKS */
  }

  hi2c->State = HAL_I2C_STATE_BUSY;
 80042da:	687b      	ldr	r3, [r7, #4]
 80042dc:	2224      	movs	r2, #36	@ 0x24
 80042de:	f883 2041 	strb.w	r2, [r3, #65]	@ 0x41

  /* Disable the selected I2C peripheral */
  __HAL_I2C_DISABLE(hi2c);
 80042e2:	687b      	ldr	r3, [r7, #4]
 80042e4:	681b      	ldr	r3, [r3, #0]
 80042e6:	681a      	ldr	r2, [r3, #0]
 80042e8:	687b      	ldr	r3, [r7, #4]
 80042ea:	681b      	ldr	r3, [r3, #0]
 80042ec:	f022 0201 	bic.w	r2, r2, #1
 80042f0:	601a      	str	r2, [r3, #0]

  /*---------------------------- I2Cx TIMINGR Configuration ------------------*/
  /* Configure I2Cx: Frequency range */
  hi2c->Instance->TIMINGR = hi2c->Init.Timing & TIMING_CLEAR_MASK;
 80042f2:	687b      	ldr	r3, [r7, #4]
 80042f4:	685a      	ldr	r2, [r3, #4]
 80042f6:	687b      	ldr	r3, [r7, #4]
 80042f8:	681b      	ldr	r3, [r3, #0]
 80042fa:	f022 6270 	bic.w	r2, r2, #251658240	@ 0xf000000
 80042fe:	611a      	str	r2, [r3, #16]

  /*---------------------------- I2Cx OAR1 Configuration ---------------------*/
  /* Disable Own Address1 before set the Own Address1 configuration */
  hi2c->Instance->OAR1 &= ~I2C_OAR1_OA1EN;
 8004300:	687b      	ldr	r3, [r7, #4]
 8004302:	681b      	ldr	r3, [r3, #0]
 8004304:	689a      	ldr	r2, [r3, #8]
 8004306:	687b      	ldr	r3, [r7, #4]
 8004308:	681b      	ldr	r3, [r3, #0]
 800430a:	f422 4200 	bic.w	r2, r2, #32768	@ 0x8000
 800430e:	609a      	str	r2, [r3, #8]

  /* Configure I2Cx: Own Address1 and ack own address1 mode */
  if (hi2c->Init.AddressingMode == I2C_ADDRESSINGMODE_7BIT)
 8004310:	687b      	ldr	r3, [r7, #4]
 8004312:	68db      	ldr	r3, [r3, #12]
 8004314:	2b01      	cmp	r3, #1
 8004316:	d107      	bne.n	8004328 <HAL_I2C_Init+0x7a>
  {
    hi2c->Instance->OAR1 = (I2C_OAR1_OA1EN | hi2c->Init.OwnAddress1);
 8004318:	687b      	ldr	r3, [r7, #4]
 800431a:	689a      	ldr	r2, [r3, #8]
 800431c:	687b      	ldr	r3, [r7, #4]
 800431e:	681b      	ldr	r3, [r3, #0]
 8004320:	f442 4200 	orr.w	r2, r2, #32768	@ 0x8000
 8004324:	609a      	str	r2, [r3, #8]
 8004326:	e006      	b.n	8004336 <HAL_I2C_Init+0x88>
  }
  else /* I2C_ADDRESSINGMODE_10BIT */
  {
    hi2c->Instance->OAR1 = (I2C_OAR1_OA1EN | I2C_OAR1_OA1MODE | hi2c->Init.OwnAddress1);
 8004328:	687b      	ldr	r3, [r7, #4]
 800432a:	689a      	ldr	r2, [r3, #8]
 800432c:	687b      	ldr	r3, [r7, #4]
 800432e:	681b      	ldr	r3, [r3, #0]
 8004330:	f442 4204 	orr.w	r2, r2, #33792	@ 0x8400
 8004334:	609a      	str	r2, [r3, #8]
  }

  /*---------------------------- I2Cx CR2 Configuration ----------------------*/
  /* Configure I2Cx: Addressing Master mode */
  if (hi2c->Init.AddressingMode == I2C_ADDRESSINGMODE_10BIT)
 8004336:	687b      	ldr	r3, [r7, #4]
 8004338:	68db      	ldr	r3, [r3, #12]
 800433a:	2b02      	cmp	r3, #2
 800433c:	d108      	bne.n	8004350 <HAL_I2C_Init+0xa2>
  {
    SET_BIT(hi2c->Instance->CR2, I2C_CR2_ADD10);
 800433e:	687b      	ldr	r3, [r7, #4]
 8004340:	681b      	ldr	r3, [r3, #0]
 8004342:	685a      	ldr	r2, [r3, #4]
 8004344:	687b      	ldr	r3, [r7, #4]
 8004346:	681b      	ldr	r3, [r3, #0]
 8004348:	f442 6200 	orr.w	r2, r2, #2048	@ 0x800
 800434c:	605a      	str	r2, [r3, #4]
 800434e:	e007      	b.n	8004360 <HAL_I2C_Init+0xb2>
  }
  else
  {
    /* Clear the I2C ADD10 bit */
    CLEAR_BIT(hi2c->Instance->CR2, I2C_CR2_ADD10);
 8004350:	687b      	ldr	r3, [r7, #4]
 8004352:	681b      	ldr	r3, [r3, #0]
 8004354:	685a      	ldr	r2, [r3, #4]
 8004356:	687b      	ldr	r3, [r7, #4]
 8004358:	681b      	ldr	r3, [r3, #0]
 800435a:	f422 6200 	bic.w	r2, r2, #2048	@ 0x800
 800435e:	605a      	str	r2, [r3, #4]
  }
  /* Enable the AUTOEND by default, and enable NACK (should be disable only during Slave process */
  hi2c->Instance->CR2 |= (I2C_CR2_AUTOEND | I2C_CR2_NACK);
 8004360:	687b      	ldr	r3, [r7, #4]
 8004362:	681b      	ldr	r3, [r3, #0]
 8004364:	685b      	ldr	r3, [r3, #4]
 8004366:	687a      	ldr	r2, [r7, #4]
 8004368:	6812      	ldr	r2, [r2, #0]
 800436a:	f043 7300 	orr.w	r3, r3, #33554432	@ 0x2000000
 800436e:	f443 4300 	orr.w	r3, r3, #32768	@ 0x8000
 8004372:	6053      	str	r3, [r2, #4]

  /*---------------------------- I2Cx OAR2 Configuration ---------------------*/
  /* Disable Own Address2 before set the Own Address2 configuration */
  hi2c->Instance->OAR2 &= ~I2C_DUALADDRESS_ENABLE;
 8004374:	687b      	ldr	r3, [r7, #4]
 8004376:	681b      	ldr	r3, [r3, #0]
 8004378:	68da      	ldr	r2, [r3, #12]
 800437a:	687b      	ldr	r3, [r7, #4]
 800437c:	681b      	ldr	r3, [r3, #0]
 800437e:	f422 4200 	bic.w	r2, r2, #32768	@ 0x8000
 8004382:	60da      	str	r2, [r3, #12]

  /* Configure I2Cx: Dual mode and Own Address2 */
  hi2c->Instance->OAR2 = (hi2c->Init.DualAddressMode | hi2c->Init.OwnAddress2 | \
 8004384:	687b      	ldr	r3, [r7, #4]
 8004386:	691a      	ldr	r2, [r3, #16]
 8004388:	687b      	ldr	r3, [r7, #4]
 800438a:	695b      	ldr	r3, [r3, #20]
 800438c:	ea42 0103 	orr.w	r1, r2, r3
                          (hi2c->Init.OwnAddress2Masks << 8));
 8004390:	687b      	ldr	r3, [r7, #4]
 8004392:	699b      	ldr	r3, [r3, #24]
 8004394:	021a      	lsls	r2, r3, #8
  hi2c->Instance->OAR2 = (hi2c->Init.DualAddressMode | hi2c->Init.OwnAddress2 | \
 8004396:	687b      	ldr	r3, [r7, #4]
 8004398:	681b      	ldr	r3, [r3, #0]
 800439a:	430a      	orrs	r2, r1
 800439c:	60da      	str	r2, [r3, #12]

  /*---------------------------- I2Cx CR1 Configuration ----------------------*/
  /* Configure I2Cx: Generalcall and NoStretch mode */
  hi2c->Instance->CR1 = (hi2c->Init.GeneralCallMode | hi2c->Init.NoStretchMode);
 800439e:	687b      	ldr	r3, [r7, #4]
 80043a0:	69d9      	ldr	r1, [r3, #28]
 80043a2:	687b      	ldr	r3, [r7, #4]
 80043a4:	6a1a      	ldr	r2, [r3, #32]
 80043a6:	687b      	ldr	r3, [r7, #4]
 80043a8:	681b      	ldr	r3, [r3, #0]
 80043aa:	430a      	orrs	r2, r1
 80043ac:	601a      	str	r2, [r3, #0]

  /* Enable the selected I2C peripheral */
  __HAL_I2C_ENABLE(hi2c);
 80043ae:	687b      	ldr	r3, [r7, #4]
 80043b0:	681b      	ldr	r3, [r3, #0]
 80043b2:	681a      	ldr	r2, [r3, #0]
 80043b4:	687b      	ldr	r3, [r7, #4]
 80043b6:	681b      	ldr	r3, [r3, #0]
 80043b8:	f042 0201 	orr.w	r2, r2, #1
 80043bc:	601a      	str	r2, [r3, #0]

  hi2c->ErrorCode = HAL_I2C_ERROR_NONE;
 80043be:	687b      	ldr	r3, [r7, #4]
 80043c0:	2200      	movs	r2, #0
 80043c2:	645a      	str	r2, [r3, #68]	@ 0x44
  hi2c->State = HAL_I2C_STATE_READY;
 80043c4:	687b      	ldr	r3, [r7, #4]
 80043c6:	2220      	movs	r2, #32
 80043c8:	f883 2041 	strb.w	r2, [r3, #65]	@ 0x41
  hi2c->PreviousState = I2C_STATE_NONE;
 80043cc:	687b      	ldr	r3, [r7, #4]
 80043ce:	2200      	movs	r2, #0
 80043d0:	631a      	str	r2, [r3, #48]	@ 0x30
  hi2c->Mode = HAL_I2C_MODE_NONE;
 80043d2:	687b      	ldr	r3, [r7, #4]
 80043d4:	2200      	movs	r2, #0
 80043d6:	f883 2042 	strb.w	r2, [r3, #66]	@ 0x42

  return HAL_OK;
 80043da:	2300      	movs	r3, #0
}
 80043dc:	4618      	mov	r0, r3
 80043de:	3708      	adds	r7, #8
 80043e0:	46bd      	mov	sp, r7
 80043e2:	bd80      	pop	{r7, pc}

080043e4 <HAL_I2C_DeInit>:
  * @param  hi2c Pointer to a I2C_HandleTypeDef structure that contains
  *                the configuration information for the specified I2C.
  * @retval HAL status
  */
HAL_StatusTypeDef HAL_I2C_DeInit(I2C_HandleTypeDef *hi2c)
{
 80043e4:	b580      	push	{r7, lr}
 80043e6:	b082      	sub	sp, #8
 80043e8:	af00      	add	r7, sp, #0
 80043ea:	6078      	str	r0, [r7, #4]
  /* Check the I2C handle allocation */
  if (hi2c == NULL)
 80043ec:	687b      	ldr	r3, [r7, #4]
 80043ee:	2b00      	cmp	r3, #0
 80043f0:	d101      	bne.n	80043f6 <HAL_I2C_DeInit+0x12>
  {
    return HAL_ERROR;
 80043f2:	2301      	movs	r3, #1
 80043f4:	e021      	b.n	800443a <HAL_I2C_DeInit+0x56>
  }

  /* Check the parameters */
  assert_param(IS_I2C_ALL_INSTANCE(hi2c->Instance));

  hi2c->State = HAL_I2C_STATE_BUSY;
 80043f6:	687b      	ldr	r3, [r7, #4]
 80043f8:	2224      	movs	r2, #36	@ 0x24
 80043fa:	f883 2041 	strb.w	r2, [r3, #65]	@ 0x41

  /* Disable the I2C Peripheral Clock */
  __HAL_I2C_DISABLE(hi2c);
 80043fe:	687b      	ldr	r3, [r7, #4]
 8004400:	681b      	ldr	r3, [r3, #0]
 8004402:	681a      	ldr	r2, [r3, #0]
 8004404:	687b      	ldr	r3, [r7, #4]
 8004406:	681b      	ldr	r3, [r3, #0]
 8004408:	f022 0201 	bic.w	r2, r2, #1
 800440c:	601a      	str	r2, [r3, #0]

  /* DeInit the low level hardware: GPIO, CLOCK, NVIC */
  hi2c->MspDeInitCallback(hi2c);
#else
  /* DeInit the low level hardware: GPIO, CLOCK, NVIC */
  HAL_I2C_MspDeInit(hi2c);
 800440e:	6878      	ldr	r0, [r7, #4]
 8004410:	f000 f821 	bl	8004456 <HAL_I2C_MspDeInit>
#endif /* USE_HAL_I2C_REGISTER_CALLBACKS */

  hi2c->ErrorCode = HAL_I2C_ERROR_NONE;
 8004414:	687b      	ldr	r3, [r7, #4]
 8004416:	2200      	movs	r2, #0
 8004418:	645a      	str	r2, [r3, #68]	@ 0x44
  hi2c->State = HAL_I2C_STATE_RESET;
 800441a:	687b      	ldr	r3, [r7, #4]
 800441c:	2200      	movs	r2, #0
 800441e:	f883 2041 	strb.w	r2, [r3, #65]	@ 0x41
  hi2c->PreviousState = I2C_STATE_NONE;
 8004422:	687b      	ldr	r3, [r7, #4]
 8004424:	2200      	movs	r2, #0
 8004426:	631a      	str	r2, [r3, #48]	@ 0x30
  hi2c->Mode = HAL_I2C_MODE_NONE;
 8004428:	687b      	ldr	r3, [r7, #4]
 800442a:	2200      	movs	r2, #0
 800442c:	f883 2042 	strb.w	r2, [r3, #66]	@ 0x42

  /* Release Lock */
  __HAL_UNLOCK(hi2c);
 8004430:	687b      	ldr	r3, [r7, #4]
 8004432:	2200      	movs	r2, #0
 8004434:	f883 2040 	strb.w	r2, [r3, #64]	@ 0x40

  return HAL_OK;
 8004438:	2300      	movs	r3, #0
}
 800443a:	4618      	mov	r0, r3
 800443c:	3708      	adds	r7, #8
 800443e:	46bd      	mov	sp, r7
 8004440:	bd80      	pop	{r7, pc}

08004442 <HAL_I2C_MspInit>:
  * @param  hi2c Pointer to a I2C_HandleTypeDef structure that contains
  *                the configuration information for the specified I2C.
  * @retval None
  */
__weak void HAL_I2C_MspInit(I2C_HandleTypeDef *hi2c)
{
 8004442:	b480      	push	{r7}
 8004444:	b083      	sub	sp, #12
 8004446:	af00      	add	r7, sp, #0
 8004448:	6078      	str	r0, [r7, #4]
  UNUSED(hi2c);

  /* NOTE : This function should not be modified, when the callback is needed,
            the HAL_I2C_MspInit could be implemented in the user file
   */
}
 800444a:	bf00      	nop
 800444c:	370c      	adds	r7, #12
 800444e:	46bd      	mov	sp, r7
 8004450:	f85d 7b04 	ldr.w	r7, [sp], #4
 8004454:	4770      	bx	lr

08004456 <HAL_I2C_MspDeInit>:
  * @param  hi2c Pointer to a I2C_HandleTypeDef structure that contains
  *                the configuration information for the specified I2C.
  * @retval None
  */
__weak void HAL_I2C_MspDeInit(I2C_HandleTypeDef *hi2c)
{
 8004456:	b480      	push	{r7}
 8004458:	b083      	sub	sp, #12
 800445a:	af00      	add	r7, sp, #0
 800445c:	6078      	str	r0, [r7, #4]
  UNUSED(hi2c);

  /* NOTE : This function should not be modified, when the callback is needed,
            the HAL_I2C_MspDeInit could be implemented in the user file
   */
}
 800445e:	bf00      	nop
 8004460:	370c      	adds	r7, #12
 8004462:	46bd      	mov	sp, r7
 8004464:	f85d 7b04 	ldr.w	r7, [sp], #4
 8004468:	4770      	bx	lr
	...

0800446c <HAL_I2C_Mem_Write>:
  * @param  Timeout Timeout duration
  * @retval HAL status
  */
HAL_StatusTypeDef HAL_I2C_Mem_Write(I2C_HandleTypeDef *hi2c, uint16_t DevAddress, uint16_t MemAddress,
                                    uint16_t MemAddSize, uint8_t *pData, uint16_t Size, uint32_t Timeout)
{
 800446c:	b580      	push	{r7, lr}
 800446e:	b088      	sub	sp, #32
 8004470:	af02      	add	r7, sp, #8
 8004472:	60f8      	str	r0, [r7, #12]
 8004474:	4608      	mov	r0, r1
 8004476:	4611      	mov	r1, r2
 8004478:	461a      	mov	r2, r3
 800447a:	4603      	mov	r3, r0
 800447c:	817b      	strh	r3, [r7, #10]
 800447e:	460b      	mov	r3, r1
 8004480:	813b      	strh	r3, [r7, #8]
 8004482:	4613      	mov	r3, r2
 8004484:	80fb      	strh	r3, [r7, #6]
  uint32_t tickstart;

  /* Check the parameters */
  assert_param(IS_I2C_MEMADD_SIZE(MemAddSize));

  if (hi2c->State == HAL_I2C_STATE_READY)
 8004486:	68fb      	ldr	r3, [r7, #12]
 8004488:	f893 3041 	ldrb.w	r3, [r3, #65]	@ 0x41
 800448c:	b2db      	uxtb	r3, r3
 800448e:	2b20      	cmp	r3, #32
 8004490:	f040 80f9 	bne.w	8004686 <HAL_I2C_Mem_Write+0x21a>
  {
    if ((pData == NULL) || (Size == 0U))
 8004494:	6a3b      	ldr	r3, [r7, #32]
 8004496:	2b00      	cmp	r3, #0
 8004498:	d002      	beq.n	80044a0 <HAL_I2C_Mem_Write+0x34>
 800449a:	8cbb      	ldrh	r3, [r7, #36]	@ 0x24
 800449c:	2b00      	cmp	r3, #0
 800449e:	d105      	bne.n	80044ac <HAL_I2C_Mem_Write+0x40>
    {
      hi2c->ErrorCode = HAL_I2C_ERROR_INVALID_PARAM;
 80044a0:	68fb      	ldr	r3, [r7, #12]
 80044a2:	f44f 7200 	mov.w	r2, #512	@ 0x200
 80044a6:	645a      	str	r2, [r3, #68]	@ 0x44
      return  HAL_ERROR;
 80044a8:	2301      	movs	r3, #1
 80044aa:	e0ed      	b.n	8004688 <HAL_I2C_Mem_Write+0x21c>
    }

    /* Process Locked */
    __HAL_LOCK(hi2c);
 80044ac:	68fb      	ldr	r3, [r7, #12]
 80044ae:	f893 3040 	ldrb.w	r3, [r3, #64]	@ 0x40
 80044b2:	2b01      	cmp	r3, #1
 80044b4:	d101      	bne.n	80044ba <HAL_I2C_Mem_Write+0x4e>
 80044b6:	2302      	movs	r3, #2
 80044b8:	e0e6      	b.n	8004688 <HAL_I2C_Mem_Write+0x21c>
 80044ba:	68fb      	ldr	r3, [r7, #12]
 80044bc:	2201      	movs	r2, #1
 80044be:	f883 2040 	strb.w	r2, [r3, #64]	@ 0x40

    /* Init tickstart for timeout management*/
    tickstart = HAL_GetTick();
 80044c2:	f7fe fb07 	bl	8002ad4 <HAL_GetTick>
 80044c6:	6178      	str	r0, [r7, #20]

    if (I2C_WaitOnFlagUntilTimeout(hi2c, I2C_FLAG_BUSY, SET, I2C_TIMEOUT_BUSY, tickstart) != HAL_OK)
 80044c8:	697b      	ldr	r3, [r7, #20]
 80044ca:	9300      	str	r3, [sp, #0]
 80044cc:	2319      	movs	r3, #25
 80044ce:	2201      	movs	r2, #1
 80044d0:	f44f 4100 	mov.w	r1, #32768	@ 0x8000
 80044d4:	68f8      	ldr	r0, [r7, #12]
 80044d6:	f000 fac3 	bl	8004a60 <I2C_WaitOnFlagUntilTimeout>
 80044da:	4603      	mov	r3, r0
 80044dc:	2b00      	cmp	r3, #0
 80044de:	d001      	beq.n	80044e4 <HAL_I2C_Mem_Write+0x78>
    {
      return HAL_ERROR;
 80044e0:	2301      	movs	r3, #1
 80044e2:	e0d1      	b.n	8004688 <HAL_I2C_Mem_Write+0x21c>
    }

    hi2c->State     = HAL_I2C_STATE_BUSY_TX;
 80044e4:	68fb      	ldr	r3, [r7, #12]
 80044e6:	2221      	movs	r2, #33	@ 0x21
 80044e8:	f883 2041 	strb.w	r2, [r3, #65]	@ 0x41
    hi2c->Mode      = HAL_I2C_MODE_MEM;
 80044ec:	68fb      	ldr	r3, [r7, #12]
 80044ee:	2240      	movs	r2, #64	@ 0x40
 80044f0:	f883 2042 	strb.w	r2, [r3, #66]	@ 0x42
    hi2c->ErrorCode = HAL_I2C_ERROR_NONE;
 80044f4:	68fb      	ldr	r3, [r7, #12]
 80044f6:	2200      	movs	r2, #0
 80044f8:	645a      	str	r2, [r3, #68]	@ 0x44

    /* Prepare transfer parameters */
    hi2c->pBuffPtr  = pData;
 80044fa:	68fb      	ldr	r3, [r7, #12]
 80044fc:	6a3a      	ldr	r2, [r7, #32]
 80044fe:	625a      	str	r2, [r3, #36]	@ 0x24
    hi2c->XferCount = Size;
 8004500:	68fb      	ldr	r3, [r7, #12]
 8004502:	8cba      	ldrh	r2, [r7, #36]	@ 0x24
 8004504:	855a      	strh	r2, [r3, #42]	@ 0x2a
    hi2c->XferISR   = NULL;
 8004506:	68fb      	ldr	r3, [r7, #12]
 8004508:	2200      	movs	r2, #0
 800450a:	635a      	str	r2, [r3, #52]	@ 0x34

    /* Send Slave Address and Memory Address */
    if (I2C_RequestMemoryWrite(hi2c, DevAddress, MemAddress, MemAddSize, Timeout, tickstart) != HAL_OK)
 800450c:	88f8      	ldrh	r0, [r7, #6]
 800450e:	893a      	ldrh	r2, [r7, #8]
 8004510:	8979      	ldrh	r1, [r7, #10]
 8004512:	697b      	ldr	r3, [r7, #20]
 8004514:	9301      	str	r3, [sp, #4]
 8004516:	6abb      	ldr	r3, [r7, #40]	@ 0x28
 8004518:	9300      	str	r3, [sp, #0]
 800451a:	4603      	mov	r3, r0
 800451c:	68f8      	ldr	r0, [r7, #12]
 800451e:	f000 f9d3 	bl	80048c8 <I2C_RequestMemoryWrite>
 8004522:	4603      	mov	r3, r0
 8004524:	2b00      	cmp	r3, #0
 8004526:	d005      	beq.n	8004534 <HAL_I2C_Mem_Write+0xc8>
    {
      /* Process Unlocked */
      __HAL_UNLOCK(hi2c);
 8004528:	68fb      	ldr	r3, [r7, #12]
 800452a:	2200      	movs	r2, #0
 800452c:	f883 2040 	strb.w	r2, [r3, #64]	@ 0x40
      return HAL_ERROR;
 8004530:	2301      	movs	r3, #1
 8004532:	e0a9      	b.n	8004688 <HAL_I2C_Mem_Write+0x21c>
    }

    /* Set NBYTES to write and reload if hi2c->XferCount > MAX_NBYTE_SIZE */
    if (hi2c->XferCount > MAX_NBYTE_SIZE)
 8004534:	68fb      	ldr	r3, [r7, #12]
 8004536:	8d5b      	ldrh	r3, [r3, #42]	@ 0x2a
 8004538:	b29b      	uxth	r3, r3
 800453a:	2bff      	cmp	r3, #255	@ 0xff
 800453c:	d90e      	bls.n	800455c <HAL_I2C_Mem_Write+0xf0>
    {
      hi2c->XferSize = MAX_NBYTE_SIZE;
 800453e:	68fb      	ldr	r3, [r7, #12]
 8004540:	22ff      	movs	r2, #255	@ 0xff
 8004542:	851a      	strh	r2, [r3, #40]	@ 0x28
      I2C_TransferConfig(hi2c, DevAddress, (uint8_t)hi2c->XferSize, I2C_RELOAD_MODE, I2C_NO_STARTSTOP);
 8004544:	68fb      	ldr	r3, [r7, #12]
 8004546:	8d1b      	ldrh	r3, [r3, #40]	@ 0x28
 8004548:	b2da      	uxtb	r2, r3
 800454a:	8979      	ldrh	r1, [r7, #10]
 800454c:	2300      	movs	r3, #0
 800454e:	9300      	str	r3, [sp, #0]
 8004550:	f04f 7380 	mov.w	r3, #16777216	@ 0x1000000
 8004554:	68f8      	ldr	r0, [r7, #12]
 8004556:	f000 fc3d 	bl	8004dd4 <I2C_TransferConfig>
 800455a:	e00f      	b.n	800457c <HAL_I2C_Mem_Write+0x110>
    }
    else
    {
      hi2c->XferSize = hi2c->XferCount;
 800455c:	68fb      	ldr	r3, [r7, #12]
 800455e:	8d5b      	ldrh	r3, [r3, #42]	@ 0x2a
 8004560:	b29a      	uxth	r2, r3
 8004562:	68fb      	ldr	r3, [r7, #12]
 8004564:	851a      	strh	r2, [r3, #40]	@ 0x28
      I2C_TransferConfig(hi2c, DevAddress, (uint8_t)hi2c->XferSize, I2C_AUTOEND_MODE, I2C_NO_STARTSTOP);
 8004566:	68fb      	ldr	r3, [r7, #12]
 8004568:	8d1b      	ldrh	r3, [r3, #40]	@ 0x28
 800456a:	b2da      	uxtb	r2, r3
 800456c:	8979      	ldrh	r1, [r7, #10]
 800456e:	2300      	movs	r3, #0
 8004570:	9300      	str	r3, [sp, #0]
 8004572:	f04f 7300 	mov.w	r3, #33554432	@ 0x2000000
 8004576:	68f8      	ldr	r0, [r7, #12]
 8004578:	f000 fc2c 	bl	8004dd4 <I2C_TransferConfig>
    }

    do
    {
      /* Wait until TXIS flag is set */
      if (I2C_WaitOnTXISFlagUntilTimeout(hi2c, Timeout, tickstart) != HAL_OK)
 800457c:	697a      	ldr	r2, [r7, #20]
 800457e:	6ab9      	ldr	r1, [r7, #40]	@ 0x28
 8004580:	68f8      	ldr	r0, [r7, #12]
 8004582:	f000 fabc 	bl	8004afe <I2C_WaitOnTXISFlagUntilTimeout>
 8004586:	4603      	mov	r3, r0
 8004588:	2b00      	cmp	r3, #0
 800458a:	d001      	beq.n	8004590 <HAL_I2C_Mem_Write+0x124>
      {
        return HAL_ERROR;
 800458c:	2301      	movs	r3, #1
 800458e:	e07b      	b.n	8004688 <HAL_I2C_Mem_Write+0x21c>
      }

      /* Write data to TXDR */
      hi2c->Instance->TXDR = *hi2c->pBuffPtr;
 8004590:	68fb      	ldr	r3, [r7, #12]
 8004592:	6a5b      	ldr	r3, [r3, #36]	@ 0x24
 8004594:	781a      	ldrb	r2, [r3, #0]
 8004596:	68fb      	ldr	r3, [r7, #12]
 8004598:	681b      	ldr	r3, [r3, #0]
 800459a:	629a      	str	r2, [r3, #40]	@ 0x28

      /* Increment Buffer pointer */
      hi2c->pBuffPtr++;
 800459c:	68fb      	ldr	r3, [r7, #12]
 800459e:	6a5b      	ldr	r3, [r3, #36]	@ 0x24
 80045a0:	1c5a      	adds	r2, r3, #1
 80045a2:	68fb      	ldr	r3, [r7, #12]
 80045a4:	625a      	str	r2, [r3, #36]	@ 0x24

      hi2c->XferCount--;
 80045a6:	68fb      	ldr	r3, [r7, #12]
 80045a8:	8d5b      	ldrh	r3, [r3, #42]	@ 0x2a
 80045aa:	b29b      	uxth	r3, r3
 80045ac:	3b01      	subs	r3, #1
 80045ae:	b29a      	uxth	r2, r3
 80045b0:	68fb      	ldr	r3, [r7, #12]
 80045b2:	855a      	strh	r2, [r3, #42]	@ 0x2a
      hi2c->XferSize--;
 80045b4:	68fb      	ldr	r3, [r7, #12]
 80045b6:	8d1b      	ldrh	r3, [r3, #40]	@ 0x28
 80045b8:	3b01      	subs	r3, #1
 80045ba:	b29a      	uxth	r2, r3
 80045bc:	68fb      	ldr	r3, [r7, #12]
 80045be:	851a      	strh	r2, [r3, #40]	@ 0x28

      if ((hi2c->XferCount != 0U) && (hi2c->XferSize == 0U))
 80045c0:	68fb      	ldr	r3, [r7, #12]
 80045c2:	8d5b      	ldrh	r3, [r3, #42]	@ 0x2a
 80045c4:	b29b      	uxth	r3, r3
 80045c6:	2b00      	cmp	r3, #0
 80045c8:	d034      	beq.n	8004634 <HAL_I2C_Mem_Write+0x1c8>
 80045ca:	68fb      	ldr	r3, [r7, #12]
 80045cc:	8d1b      	ldrh	r3, [r3, #40]	@ 0x28
 80045ce:	2b00      	cmp	r3, #0
 80045d0:	d130      	bne.n	8004634 <HAL_I2C_Mem_Write+0x1c8>
      {
        /* Wait until TCR flag is set */
        if (I2C_WaitOnFlagUntilTimeout(hi2c, I2C_FLAG_TCR, RESET, Timeout, tickstart) != HAL_OK)
 80045d2:	697b      	ldr	r3, [r7, #20]
 80045d4:	9300      	str	r3, [sp, #0]
 80045d6:	6abb      	ldr	r3, [r7, #40]	@ 0x28
 80045d8:	2200      	movs	r2, #0
 80045da:	2180      	movs	r1, #128	@ 0x80
 80045dc:	68f8      	ldr	r0, [r7, #12]
 80045de:	f000 fa3f 	bl	8004a60 <I2C_WaitOnFlagUntilTimeout>
 80045e2:	4603      	mov	r3, r0
 80045e4:	2b00      	cmp	r3, #0
 80045e6:	d001      	beq.n	80045ec <HAL_I2C_Mem_Write+0x180>
        {
          return HAL_ERROR;
 80045e8:	2301      	movs	r3, #1
 80045ea:	e04d      	b.n	8004688 <HAL_I2C_Mem_Write+0x21c>
        }

        if (hi2c->XferCount > MAX_NBYTE_SIZE)
 80045ec:	68fb      	ldr	r3, [r7, #12]
 80045ee:	8d5b      	ldrh	r3, [r3, #42]	@ 0x2a
 80045f0:	b29b      	uxth	r3, r3
 80045f2:	2bff      	cmp	r3, #255	@ 0xff
 80045f4:	d90e      	bls.n	8004614 <HAL_I2C_Mem_Write+0x1a8>
        {
          hi2c->XferSize = MAX_NBYTE_SIZE;
 80045f6:	68fb      	ldr	r3, [r7, #12]
 80045f8:	22ff      	movs	r2, #255	@ 0xff
 80045fa:	851a      	strh	r2, [r3, #40]	@ 0x28
          I2C_TransferConfig(hi2c, DevAddress, (uint8_t)hi2c->XferSize, I2C_RELOAD_MODE,
 80045fc:	68fb      	ldr	r3, [r7, #12]
 80045fe:	8d1b      	ldrh	r3, [r3, #40]	@ 0x28
 8004600:	b2da      	uxtb	r2, r3
 8004602:	8979      	ldrh	r1, [r7, #10]
 8004604:	2300      	movs	r3, #0
 8004606:	9300      	str	r3, [sp, #0]
 8004608:	f04f 7380 	mov.w	r3, #16777216	@ 0x1000000
 800460c:	68f8      	ldr	r0, [r7, #12]
 800460e:	f000 fbe1 	bl	8004dd4 <I2C_TransferConfig>
 8004612:	e00f      	b.n	8004634 <HAL_I2C_Mem_Write+0x1c8>
                             I2C_NO_STARTSTOP);
        }
        else
        {
          hi2c->XferSize = hi2c->XferCount;
 8004614:	68fb      	ldr	r3, [r7, #12]
 8004616:	8d5b      	ldrh	r3, [r3, #42]	@ 0x2a
 8004618:	b29a      	uxth	r2, r3
 800461a:	68fb      	ldr	r3, [r7, #12]
 800461c:	851a      	strh	r2, [r3, #40]	@ 0x28
          I2C_TransferConfig(hi2c, DevAddress, (uint8_t)hi2c->XferSize, I2C_AUTOEND_MODE,
 800461e:	68fb      	ldr	r3, [r7, #12]
 8004620:	8d1b      	ldrh	r3, [r3, #40]	@ 0x28
 8004622:	b2da      	uxtb	r2, r3
 8004624:	8979      	ldrh	r1, [r7, #10]
 8004626:	2300      	movs	r3, #0
 8004628:	9300      	str	r3, [sp, #0]
 800462a:	f04f 7300 	mov.w	r3, #33554432	@ 0x2000000
 800462e:	68f8      	ldr	r0, [r7, #12]
 8004630:	f000 fbd0 	bl	8004dd4 <I2C_TransferConfig>
                             I2C_NO_STARTSTOP);
        }
      }

    } while (hi2c->XferCount > 0U);
 8004634:	68fb      	ldr	r3, [r7, #12]
 8004636:	8d5b      	ldrh	r3, [r3, #42]	@ 0x2a
 8004638:	b29b      	uxth	r3, r3
 800463a:	2b00      	cmp	r3, #0
 800463c:	d19e      	bne.n	800457c <HAL_I2C_Mem_Write+0x110>

    /* No need to Check TC flag, with AUTOEND mode the stop is automatically generated */
    /* Wait until STOPF flag is reset */
    if (I2C_WaitOnSTOPFlagUntilTimeout(hi2c, Timeout, tickstart) != HAL_OK)
 800463e:	697a      	ldr	r2, [r7, #20]
 8004640:	6ab9      	ldr	r1, [r7, #40]	@ 0x28
 8004642:	68f8      	ldr	r0, [r7, #12]
 8004644:	f000 faa2 	bl	8004b8c <I2C_WaitOnSTOPFlagUntilTimeout>
 8004648:	4603      	mov	r3, r0
 800464a:	2b00      	cmp	r3, #0
 800464c:	d001      	beq.n	8004652 <HAL_I2C_Mem_Write+0x1e6>
    {
      return HAL_ERROR;
 800464e:	2301      	movs	r3, #1
 8004650:	e01a      	b.n	8004688 <HAL_I2C_Mem_Write+0x21c>
    }

    /* Clear STOP Flag */
    __HAL_I2C_CLEAR_FLAG(hi2c, I2C_FLAG_STOPF);
 8004652:	68fb      	ldr	r3, [r7, #12]
 8004654:	681b      	ldr	r3, [r3, #0]
 8004656:	2220      	movs	r2, #32
 8004658:	61da      	str	r2, [r3, #28]

    /* Clear Configuration Register 2 */
    I2C_RESET_CR2(hi2c);
 800465a:	68fb      	ldr	r3, [r7, #12]
 800465c:	681b      	ldr	r3, [r3, #0]
 800465e:	6859      	ldr	r1, [r3, #4]
 8004660:	68fb      	ldr	r3, [r7, #12]
 8004662:	681a      	ldr	r2, [r3, #0]
 8004664:	4b0a      	ldr	r3, [pc, #40]	@ (8004690 <HAL_I2C_Mem_Write+0x224>)
 8004666:	400b      	ands	r3, r1
 8004668:	6053      	str	r3, [r2, #4]

    hi2c->State = HAL_I2C_STATE_READY;
 800466a:	68fb      	ldr	r3, [r7, #12]
 800466c:	2220      	movs	r2, #32
 800466e:	f883 2041 	strb.w	r2, [r3, #65]	@ 0x41
    hi2c->Mode  = HAL_I2C_MODE_NONE;
 8004672:	68fb      	ldr	r3, [r7, #12]
 8004674:	2200      	movs	r2, #0
 8004676:	f883 2042 	strb.w	r2, [r3, #66]	@ 0x42

    /* Process Unlocked */
    __HAL_UNLOCK(hi2c);
 800467a:	68fb      	ldr	r3, [r7, #12]
 800467c:	2200      	movs	r2, #0
 800467e:	f883 2040 	strb.w	r2, [r3, #64]	@ 0x40

    return HAL_OK;
 8004682:	2300      	movs	r3, #0
 8004684:	e000      	b.n	8004688 <HAL_I2C_Mem_Write+0x21c>
  }
  else
  {
    return HAL_BUSY;
 8004686:	2302      	movs	r3, #2
  }
}
 8004688:	4618      	mov	r0, r3
 800468a:	3718      	adds	r7, #24
 800468c:	46bd      	mov	sp, r7
 800468e:	bd80      	pop	{r7, pc}
 8004690:	fe00e800 	.word	0xfe00e800

08004694 <HAL_I2C_Mem_Read>:
  * @param  Timeout Timeout duration
  * @retval HAL status
  */
HAL_StatusTypeDef HAL_I2C_Mem_Read(I2C_HandleTypeDef *hi2c, uint16_t DevAddress, uint16_t MemAddress,
                                   uint16_t MemAddSize, uint8_t *pData, uint16_t Size, uint32_t Timeout)
{
 8004694:	b580      	push	{r7, lr}
 8004696:	b088      	sub	sp, #32
 8004698:	af02      	add	r7, sp, #8
 800469a:	60f8      	str	r0, [r7, #12]
 800469c:	4608      	mov	r0, r1
 800469e:	4611      	mov	r1, r2
 80046a0:	461a      	mov	r2, r3
 80046a2:	4603      	mov	r3, r0
 80046a4:	817b      	strh	r3, [r7, #10]
 80046a6:	460b      	mov	r3, r1
 80046a8:	813b      	strh	r3, [r7, #8]
 80046aa:	4613      	mov	r3, r2
 80046ac:	80fb      	strh	r3, [r7, #6]
  uint32_t tickstart;

  /* Check the parameters */
  assert_param(IS_I2C_MEMADD_SIZE(MemAddSize));

  if (hi2c->State == HAL_I2C_STATE_READY)
 80046ae:	68fb      	ldr	r3, [r7, #12]
 80046b0:	f893 3041 	ldrb.w	r3, [r3, #65]	@ 0x41
 80046b4:	b2db      	uxtb	r3, r3
 80046b6:	2b20      	cmp	r3, #32
 80046b8:	f040 80fd 	bne.w	80048b6 <HAL_I2C_Mem_Read+0x222>
  {
    if ((pData == NULL) || (Size == 0U))
 80046bc:	6a3b      	ldr	r3, [r7, #32]
 80046be:	2b00      	cmp	r3, #0
 80046c0:	d002      	beq.n	80046c8 <HAL_I2C_Mem_Read+0x34>
 80046c2:	8cbb      	ldrh	r3, [r7, #36]	@ 0x24
 80046c4:	2b00      	cmp	r3, #0
 80046c6:	d105      	bne.n	80046d4 <HAL_I2C_Mem_Read+0x40>
    {
      hi2c->ErrorCode = HAL_I2C_ERROR_INVALID_PARAM;
 80046c8:	68fb      	ldr	r3, [r7, #12]
 80046ca:	f44f 7200 	mov.w	r2, #512	@ 0x200
 80046ce:	645a      	str	r2, [r3, #68]	@ 0x44
      return  HAL_ERROR;
 80046d0:	2301      	movs	r3, #1
 80046d2:	e0f1      	b.n	80048b8 <HAL_I2C_Mem_Read+0x224>
    }

    /* Process Locked */
    __HAL_LOCK(hi2c);
 80046d4:	68fb      	ldr	r3, [r7, #12]
 80046d6:	f893 3040 	ldrb.w	r3, [r3, #64]	@ 0x40
 80046da:	2b01      	cmp	r3, #1
 80046dc:	d101      	bne.n	80046e2 <HAL_I2C_Mem_Read+0x4e>
 80046de:	2302      	movs	r3, #2
 80046e0:	e0ea      	b.n	80048b8 <HAL_I2C_Mem_Read+0x224>
 80046e2:	68fb      	ldr	r3, [r7, #12]
 80046e4:	2201      	movs	r2, #1
 80046e6:	f883 2040 	strb.w	r2, [r3, #64]	@ 0x40

    /* Init tickstart for timeout management*/
    tickstart = HAL_GetTick();
 80046ea:	f7fe f9f3 	bl	8002ad4 <HAL_GetTick>
 80046ee:	6178      	str	r0, [r7, #20]

    if (I2C_WaitOnFlagUntilTimeout(hi2c, I2C_FLAG_BUSY, SET, I2C_TIMEOUT_BUSY, tickstart) != HAL_OK)
 80046f0:	697b      	ldr	r3, [r7, #20]
 80046f2:	9300      	str	r3, [sp, #0]
 80046f4:	2319      	movs	r3, #25
 80046f6:	2201      	movs	r2, #1
 80046f8:	f44f 4100 	mov.w	r1, #32768	@ 0x8000
 80046fc:	68f8      	ldr	r0, [r7, #12]
 80046fe:	f000 f9af 	bl	8004a60 <I2C_WaitOnFlagUntilTimeout>
 8004702:	4603      	mov	r3, r0
 8004704:	2b00      	cmp	r3, #0
 8004706:	d001      	beq.n	800470c <HAL_I2C_Mem_Read+0x78>
    {
      return HAL_ERROR;
 8004708:	2301      	movs	r3, #1
 800470a:	e0d5      	b.n	80048b8 <HAL_I2C_Mem_Read+0x224>
    }

    hi2c->State     = HAL_I2C_STATE_BUSY_RX;
 800470c:	68fb      	ldr	r3, [r7, #12]
 800470e:	2222      	movs	r2, #34	@ 0x22
 8004710:	f883 2041 	strb.w	r2, [r3, #65]	@ 0x41
    hi2c->Mode      = HAL_I2C_MODE_MEM;
 8004714:	68fb      	ldr	r3, [r7, #12]
 8004716:	2240      	movs	r2, #64	@ 0x40
 8004718:	f883 2042 	strb.w	r2, [r3, #66]	@ 0x42
    hi2c->ErrorCode = HAL_I2C_ERROR_NONE;
 800471c:	68fb      	ldr	r3, [r7, #12]
 800471e:	2200      	movs	r2, #0
 8004720:	645a      	str	r2, [r3, #68]	@ 0x44

    /* Prepare transfer parameters */
    hi2c->pBuffPtr  = pData;
 8004722:	68fb      	ldr	r3, [r7, #12]
 8004724:	6a3a      	ldr	r2, [r7, #32]
 8004726:	625a      	str	r2, [r3, #36]	@ 0x24
    hi2c->XferCount = Size;
 8004728:	68fb      	ldr	r3, [r7, #12]
 800472a:	8cba      	ldrh	r2, [r7, #36]	@ 0x24
 800472c:	855a      	strh	r2, [r3, #42]	@ 0x2a
    hi2c->XferISR   = NULL;
 800472e:	68fb      	ldr	r3, [r7, #12]
 8004730:	2200      	movs	r2, #0
 8004732:	635a      	str	r2, [r3, #52]	@ 0x34

    /* Send Slave Address and Memory Address */
    if (I2C_RequestMemoryRead(hi2c, DevAddress, MemAddress, MemAddSize, Timeout, tickstart) != HAL_OK)
 8004734:	88f8      	ldrh	r0, [r7, #6]
 8004736:	893a      	ldrh	r2, [r7, #8]
 8004738:	8979      	ldrh	r1, [r7, #10]
 800473a:	697b      	ldr	r3, [r7, #20]
 800473c:	9301      	str	r3, [sp, #4]
 800473e:	6abb      	ldr	r3, [r7, #40]	@ 0x28
 8004740:	9300      	str	r3, [sp, #0]
 8004742:	4603      	mov	r3, r0
 8004744:	68f8      	ldr	r0, [r7, #12]
 8004746:	f000 f913 	bl	8004970 <I2C_RequestMemoryRead>
 800474a:	4603      	mov	r3, r0
 800474c:	2b00      	cmp	r3, #0
 800474e:	d005      	beq.n	800475c <HAL_I2C_Mem_Read+0xc8>
    {
      /* Process Unlocked */
      __HAL_UNLOCK(hi2c);
 8004750:	68fb      	ldr	r3, [r7, #12]
 8004752:	2200      	movs	r2, #0
 8004754:	f883 2040 	strb.w	r2, [r3, #64]	@ 0x40
      return HAL_ERROR;
 8004758:	2301      	movs	r3, #1
 800475a:	e0ad      	b.n	80048b8 <HAL_I2C_Mem_Read+0x224>
    }

    /* Send Slave Address */
    /* Set NBYTES to write and reload if hi2c->XferCount > MAX_NBYTE_SIZE and generate RESTART */
    if (hi2c->XferCount > MAX_NBYTE_SIZE)
 800475c:	68fb      	ldr	r3, [r7, #12]
 800475e:	8d5b      	ldrh	r3, [r3, #42]	@ 0x2a
 8004760:	b29b      	uxth	r3, r3
 8004762:	2bff      	cmp	r3, #255	@ 0xff
 8004764:	d90e      	bls.n	8004784 <HAL_I2C_Mem_Read+0xf0>
    {
      hi2c->XferSize = MAX_NBYTE_SIZE;
 8004766:	68fb      	ldr	r3, [r7, #12]
 8004768:	22ff      	movs	r2, #255	@ 0xff
 800476a:	851a      	strh	r2, [r3, #40]	@ 0x28
      I2C_TransferConfig(hi2c, DevAddress, (uint8_t)hi2c->XferSize, I2C_RELOAD_MODE,
 800476c:	68fb      	ldr	r3, [r7, #12]
 800476e:	8d1b      	ldrh	r3, [r3, #40]	@ 0x28
 8004770:	b2da      	uxtb	r2, r3
 8004772:	8979      	ldrh	r1, [r7, #10]
 8004774:	4b52      	ldr	r3, [pc, #328]	@ (80048c0 <HAL_I2C_Mem_Read+0x22c>)
 8004776:	9300      	str	r3, [sp, #0]
 8004778:	f04f 7380 	mov.w	r3, #16777216	@ 0x1000000
 800477c:	68f8      	ldr	r0, [r7, #12]
 800477e:	f000 fb29 	bl	8004dd4 <I2C_TransferConfig>
 8004782:	e00f      	b.n	80047a4 <HAL_I2C_Mem_Read+0x110>
                         I2C_GENERATE_START_READ);
    }
    else
    {
      hi2c->XferSize = hi2c->XferCount;
 8004784:	68fb      	ldr	r3, [r7, #12]
 8004786:	8d5b      	ldrh	r3, [r3, #42]	@ 0x2a
 8004788:	b29a      	uxth	r2, r3
 800478a:	68fb      	ldr	r3, [r7, #12]
 800478c:	851a      	strh	r2, [r3, #40]	@ 0x28
      I2C_TransferConfig(hi2c, DevAddress, (uint8_t)hi2c->XferSize, I2C_AUTOEND_MODE,
 800478e:	68fb      	ldr	r3, [r7, #12]
 8004790:	8d1b      	ldrh	r3, [r3, #40]	@ 0x28
 8004792:	b2da      	uxtb	r2, r3
 8004794:	8979      	ldrh	r1, [r7, #10]
 8004796:	4b4a      	ldr	r3, [pc, #296]	@ (80048c0 <HAL_I2C_Mem_Read+0x22c>)
 8004798:	9300      	str	r3, [sp, #0]
 800479a:	f04f 7300 	mov.w	r3, #33554432	@ 0x2000000
 800479e:	68f8      	ldr	r0, [r7, #12]
 80047a0:	f000 fb18 	bl	8004dd4 <I2C_TransferConfig>
    }

    do
    {
      /* Wait until RXNE flag is set */
      if (I2C_WaitOnFlagUntilTimeout(hi2c, I2C_FLAG_RXNE, RESET, Timeout, tickstart) != HAL_OK)
 80047a4:	697b      	ldr	r3, [r7, #20]
 80047a6:	9300      	str	r3, [sp, #0]
 80047a8:	6abb      	ldr	r3, [r7, #40]	@ 0x28
 80047aa:	2200      	movs	r2, #0
 80047ac:	2104      	movs	r1, #4
 80047ae:	68f8      	ldr	r0, [r7, #12]
 80047b0:	f000 f956 	bl	8004a60 <I2C_WaitOnFlagUntilTimeout>
 80047b4:	4603      	mov	r3, r0
 80047b6:	2b00      	cmp	r3, #0
 80047b8:	d001      	beq.n	80047be <HAL_I2C_Mem_Read+0x12a>
      {
        return HAL_ERROR;
 80047ba:	2301      	movs	r3, #1
 80047bc:	e07c      	b.n	80048b8 <HAL_I2C_Mem_Read+0x224>
      }

      /* Read data from RXDR */
      *hi2c->pBuffPtr = (uint8_t)hi2c->Instance->RXDR;
 80047be:	68fb      	ldr	r3, [r7, #12]
 80047c0:	681b      	ldr	r3, [r3, #0]
 80047c2:	6a5a      	ldr	r2, [r3, #36]	@ 0x24
 80047c4:	68fb      	ldr	r3, [r7, #12]
 80047c6:	6a5b      	ldr	r3, [r3, #36]	@ 0x24
 80047c8:	b2d2      	uxtb	r2, r2
 80047ca:	701a      	strb	r2, [r3, #0]

      /* Increment Buffer pointer */
      hi2c->pBuffPtr++;
 80047cc:	68fb      	ldr	r3, [r7, #12]
 80047ce:	6a5b      	ldr	r3, [r3, #36]	@ 0x24
 80047d0:	1c5a      	adds	r2, r3, #1
 80047d2:	68fb      	ldr	r3, [r7, #12]
 80047d4:	625a      	str	r2, [r3, #36]	@ 0x24

      hi2c->XferSize--;
 80047d6:	68fb      	ldr	r3, [r7, #12]
 80047d8:	8d1b      	ldrh	r3, [r3, #40]	@ 0x28
 80047da:	3b01      	subs	r3, #1
 80047dc:	b29a      	uxth	r2, r3
 80047de:	68fb      	ldr	r3, [r7, #12]
 80047e0:	851a      	strh	r2, [r3, #40]	@ 0x28
      hi2c->XferCount--;
 80047e2:	68fb      	ldr	r3, [r7, #12]
 80047e4:	8d5b      	ldrh	r3, [r3, #42]	@ 0x2a
 80047e6:	b29b      	uxth	r3, r3
 80047e8:	3b01      	subs	r3, #1
 80047ea:	b29a      	uxth	r2, r3
 80047ec:	68fb      	ldr	r3, [r7, #12]
 80047ee:	855a      	strh	r2, [r3, #42]	@ 0x2a

      if ((hi2c->XferCount != 0U) && (hi2c->XferSize == 0U))
 80047f0:	68fb      	ldr	r3, [r7, #12]
 80047f2:	8d5b      	ldrh	r3, [r3, #42]	@ 0x2a
 80047f4:	b29b      	uxth	r3, r3
 80047f6:	2b00      	cmp	r3, #0
 80047f8:	d034      	beq.n	8004864 <HAL_I2C_Mem_Read+0x1d0>
 80047fa:	68fb      	ldr	r3, [r7, #12]
 80047fc:	8d1b      	ldrh	r3, [r3, #40]	@ 0x28
 80047fe:	2b00      	cmp	r3, #0
 8004800:	d130      	bne.n	8004864 <HAL_I2C_Mem_Read+0x1d0>
      {
        /* Wait until TCR flag is set */
        if (I2C_WaitOnFlagUntilTimeout(hi2c, I2C_FLAG_TCR, RESET, Timeout, tickstart) != HAL_OK)
 8004802:	697b      	ldr	r3, [r7, #20]
 8004804:	9300      	str	r3, [sp, #0]
 8004806:	6abb      	ldr	r3, [r7, #40]	@ 0x28
 8004808:	2200      	movs	r2, #0
 800480a:	2180      	movs	r1, #128	@ 0x80
 800480c:	68f8      	ldr	r0, [r7, #12]
 800480e:	f000 f927 	bl	8004a60 <I2C_WaitOnFlagUntilTimeout>
 8004812:	4603      	mov	r3, r0
 8004814:	2b00      	cmp	r3, #0
 8004816:	d001      	beq.n	800481c <HAL_I2C_Mem_Read+0x188>
        {
          return HAL_ERROR;
 8004818:	2301      	movs	r3, #1
 800481a:	e04d      	b.n	80048b8 <HAL_I2C_Mem_Read+0x224>
        }

        if (hi2c->XferCount > MAX_NBYTE_SIZE)
 800481c:	68fb      	ldr	r3, [r7, #12]
 800481e:	8d5b      	ldrh	r3, [r3, #42]	@ 0x2a
 8004820:	b29b      	uxth	r3, r3
 8004822:	2bff      	cmp	r3, #255	@ 0xff
 8004824:	d90e      	bls.n	8004844 <HAL_I2C_Mem_Read+0x1b0>
        {
          hi2c->XferSize = MAX_NBYTE_SIZE;
 8004826:	68fb      	ldr	r3, [r7, #12]
 8004828:	22ff      	movs	r2, #255	@ 0xff
 800482a:	851a      	strh	r2, [r3, #40]	@ 0x28
          I2C_TransferConfig(hi2c, DevAddress, (uint8_t) hi2c->XferSize, I2C_RELOAD_MODE,
 800482c:	68fb      	ldr	r3, [r7, #12]
 800482e:	8d1b      	ldrh	r3, [r3, #40]	@ 0x28
 8004830:	b2da      	uxtb	r2, r3
 8004832:	8979      	ldrh	r1, [r7, #10]
 8004834:	2300      	movs	r3, #0
 8004836:	9300      	str	r3, [sp, #0]
 8004838:	f04f 7380 	mov.w	r3, #16777216	@ 0x1000000
 800483c:	68f8      	ldr	r0, [r7, #12]
 800483e:	f000 fac9 	bl	8004dd4 <I2C_TransferConfig>
 8004842:	e00f      	b.n	8004864 <HAL_I2C_Mem_Read+0x1d0>
                             I2C_NO_STARTSTOP);
        }
        else
        {
          hi2c->XferSize = hi2c->XferCount;
 8004844:	68fb      	ldr	r3, [r7, #12]
 8004846:	8d5b      	ldrh	r3, [r3, #42]	@ 0x2a
 8004848:	b29a      	uxth	r2, r3
 800484a:	68fb      	ldr	r3, [r7, #12]
 800484c:	851a      	strh	r2, [r3, #40]	@ 0x28
          I2C_TransferConfig(hi2c, DevAddress, (uint8_t)hi2c->XferSize, I2C_AUTOEND_MODE,
 800484e:	68fb      	ldr	r3, [r7, #12]
 8004850:	8d1b      	ldrh	r3, [r3, #40]	@ 0x28
 8004852:	b2da      	uxtb	r2, r3
 8004854:	8979      	ldrh	r1, [r7, #10]
 8004856:	2300      	movs	r3, #0
 8004858:	9300      	str	r3, [sp, #0]
 800485a:	f04f 7300 	mov.w	r3, #33554432	@ 0x2000000
 800485e:	68f8      	ldr	r0, [r7, #12]
 8004860:	f000 fab8 	bl	8004dd4 <I2C_TransferConfig>
                             I2C_NO_STARTSTOP);
        }
      }
    } while (hi2c->XferCount > 0U);
 8004864:	68fb      	ldr	r3, [r7, #12]
 8004866:	8d5b      	ldrh	r3, [r3, #42]	@ 0x2a
 8004868:	b29b      	uxth	r3, r3
 800486a:	2b00      	cmp	r3, #0
 800486c:	d19a      	bne.n	80047a4 <HAL_I2C_Mem_Read+0x110>

    /* No need to Check TC flag, with AUTOEND mode the stop is automatically generated */
    /* Wait until STOPF flag is reset */
    if (I2C_WaitOnSTOPFlagUntilTimeout(hi2c, Timeout, tickstart) != HAL_OK)
 800486e:	697a      	ldr	r2, [r7, #20]
 8004870:	6ab9      	ldr	r1, [r7, #40]	@ 0x28
 8004872:	68f8      	ldr	r0, [r7, #12]
 8004874:	f000 f98a 	bl	8004b8c <I2C_WaitOnSTOPFlagUntilTimeout>
 8004878:	4603      	mov	r3, r0
 800487a:	2b00      	cmp	r3, #0
 800487c:	d001      	beq.n	8004882 <HAL_I2C_Mem_Read+0x1ee>
    {
      return HAL_ERROR;
 800487e:	2301      	movs	r3, #1
 8004880:	e01a      	b.n	80048b8 <HAL_I2C_Mem_Read+0x224>
    }

    /* Clear STOP Flag */
    __HAL_I2C_CLEAR_FLAG(hi2c, I2C_FLAG_STOPF);
 8004882:	68fb      	ldr	r3, [r7, #12]
 8004884:	681b      	ldr	r3, [r3, #0]
 8004886:	2220      	movs	r2, #32
 8004888:	61da      	str	r2, [r3, #28]

    /* Clear Configuration Register 2 */
    I2C_RESET_CR2(hi2c);
 800488a:	68fb      	ldr	r3, [r7, #12]
 800488c:	681b      	ldr	r3, [r3, #0]
 800488e:	6859      	ldr	r1, [r3, #4]
 8004890:	68fb      	ldr	r3, [r7, #12]
 8004892:	681a      	ldr	r2, [r3, #0]
 8004894:	4b0b      	ldr	r3, [pc, #44]	@ (80048c4 <HAL_I2C_Mem_Read+0x230>)
 8004896:	400b      	ands	r3, r1
 8004898:	6053      	str	r3, [r2, #4]

    hi2c->State = HAL_I2C_STATE_READY;
 800489a:	68fb      	ldr	r3, [r7, #12]
 800489c:	2220      	movs	r2, #32
 800489e:	f883 2041 	strb.w	r2, [r3, #65]	@ 0x41
    hi2c->Mode  = HAL_I2C_MODE_NONE;
 80048a2:	68fb      	ldr	r3, [r7, #12]
 80048a4:	2200      	movs	r2, #0
 80048a6:	f883 2042 	strb.w	r2, [r3, #66]	@ 0x42

    /* Process Unlocked */
    __HAL_UNLOCK(hi2c);
 80048aa:	68fb      	ldr	r3, [r7, #12]
 80048ac:	2200      	movs	r2, #0
 80048ae:	f883 2040 	strb.w	r2, [r3, #64]	@ 0x40

    return HAL_OK;
 80048b2:	2300      	movs	r3, #0
 80048b4:	e000      	b.n	80048b8 <HAL_I2C_Mem_Read+0x224>
  }
  else
  {
    return HAL_BUSY;
 80048b6:	2302      	movs	r3, #2
  }
}
 80048b8:	4618      	mov	r0, r3
 80048ba:	3718      	adds	r7, #24
 80048bc:	46bd      	mov	sp, r7
 80048be:	bd80      	pop	{r7, pc}
 80048c0:	80002400 	.word	0x80002400
 80048c4:	fe00e800 	.word	0xfe00e800

080048c8 <I2C_RequestMemoryWrite>:
  * @retval HAL status
  */
static HAL_StatusTypeDef I2C_RequestMemoryWrite(I2C_HandleTypeDef *hi2c, uint16_t DevAddress,
                                                uint16_t MemAddress, uint16_t MemAddSize, uint32_t Timeout,
                                                uint32_t Tickstart)
{
 80048c8:	b580      	push	{r7, lr}
 80048ca:	b086      	sub	sp, #24
 80048cc:	af02      	add	r7, sp, #8
 80048ce:	60f8      	str	r0, [r7, #12]
 80048d0:	4608      	mov	r0, r1
 80048d2:	4611      	mov	r1, r2
 80048d4:	461a      	mov	r2, r3
 80048d6:	4603      	mov	r3, r0
 80048d8:	817b      	strh	r3, [r7, #10]
 80048da:	460b      	mov	r3, r1
 80048dc:	813b      	strh	r3, [r7, #8]
 80048de:	4613      	mov	r3, r2
 80048e0:	80fb      	strh	r3, [r7, #6]
  I2C_TransferConfig(hi2c, DevAddress, (uint8_t)MemAddSize, I2C_RELOAD_MODE, I2C_GENERATE_START_WRITE);
 80048e2:	88fb      	ldrh	r3, [r7, #6]
 80048e4:	b2da      	uxtb	r2, r3
 80048e6:	8979      	ldrh	r1, [r7, #10]
 80048e8:	4b20      	ldr	r3, [pc, #128]	@ (800496c <I2C_RequestMemoryWrite+0xa4>)
 80048ea:	9300      	str	r3, [sp, #0]
 80048ec:	f04f 7380 	mov.w	r3, #16777216	@ 0x1000000
 80048f0:	68f8      	ldr	r0, [r7, #12]
 80048f2:	f000 fa6f 	bl	8004dd4 <I2C_TransferConfig>

  /* Wait until TXIS flag is set */
  if (I2C_WaitOnTXISFlagUntilTimeout(hi2c, Timeout, Tickstart) != HAL_OK)
 80048f6:	69fa      	ldr	r2, [r7, #28]
 80048f8:	69b9      	ldr	r1, [r7, #24]
 80048fa:	68f8      	ldr	r0, [r7, #12]
 80048fc:	f000 f8ff 	bl	8004afe <I2C_WaitOnTXISFlagUntilTimeout>
 8004900:	4603      	mov	r3, r0
 8004902:	2b00      	cmp	r3, #0
 8004904:	d001      	beq.n	800490a <I2C_RequestMemoryWrite+0x42>
  {
    return HAL_ERROR;
 8004906:	2301      	movs	r3, #1
 8004908:	e02c      	b.n	8004964 <I2C_RequestMemoryWrite+0x9c>
  }

  /* If Memory address size is 8Bit */
  if (MemAddSize == I2C_MEMADD_SIZE_8BIT)
 800490a:	88fb      	ldrh	r3, [r7, #6]
 800490c:	2b01      	cmp	r3, #1
 800490e:	d105      	bne.n	800491c <I2C_RequestMemoryWrite+0x54>
  {
    /* Send Memory Address */
    hi2c->Instance->TXDR = I2C_MEM_ADD_LSB(MemAddress);
 8004910:	893b      	ldrh	r3, [r7, #8]
 8004912:	b2da      	uxtb	r2, r3
 8004914:	68fb      	ldr	r3, [r7, #12]
 8004916:	681b      	ldr	r3, [r3, #0]
 8004918:	629a      	str	r2, [r3, #40]	@ 0x28
 800491a:	e015      	b.n	8004948 <I2C_RequestMemoryWrite+0x80>
  }
  /* If Memory address size is 16Bit */
  else
  {
    /* Send MSB of Memory Address */
    hi2c->Instance->TXDR = I2C_MEM_ADD_MSB(MemAddress);
 800491c:	893b      	ldrh	r3, [r7, #8]
 800491e:	0a1b      	lsrs	r3, r3, #8
 8004920:	b29b      	uxth	r3, r3
 8004922:	b2da      	uxtb	r2, r3
 8004924:	68fb      	ldr	r3, [r7, #12]
 8004926:	681b      	ldr	r3, [r3, #0]
 8004928:	629a      	str	r2, [r3, #40]	@ 0x28

    /* Wait until TXIS flag is set */
    if (I2C_WaitOnTXISFlagUntilTimeout(hi2c, Timeout, Tickstart) != HAL_OK)
 800492a:	69fa      	ldr	r2, [r7, #28]
 800492c:	69b9      	ldr	r1, [r7, #24]
 800492e:	68f8      	ldr	r0, [r7, #12]
 8004930:	f000 f8e5 	bl	8004afe <I2C_WaitOnTXISFlagUntilTimeout>
 8004934:	4603      	mov	r3, r0
 8004936:	2b00      	cmp	r3, #0
 8004938:	d001      	beq.n	800493e <I2C_RequestMemoryWrite+0x76>
    {
      return HAL_ERROR;
 800493a:	2301      	movs	r3, #1
 800493c:	e012      	b.n	8004964 <I2C_RequestMemoryWrite+0x9c>
    }

    /* Send LSB of Memory Address */
    hi2c->Instance->TXDR = I2C_MEM_ADD_LSB(MemAddress);
 800493e:	893b      	ldrh	r3, [r7, #8]
 8004940:	b2da      	uxtb	r2, r3
 8004942:	68fb      	ldr	r3, [r7, #12]
 8004944:	681b      	ldr	r3, [r3, #0]
 8004946:	629a      	str	r2, [r3, #40]	@ 0x28
  }

  /* Wait until TCR flag is set */
  if (I2C_WaitOnFlagUntilTimeout(hi2c, I2C_FLAG_TCR, RESET, Timeout, Tickstart) != HAL_OK)
 8004948:	69fb      	ldr	r3, [r7, #28]
 800494a:	9300      	str	r3, [sp, #0]
 800494c:	69bb      	ldr	r3, [r7, #24]
 800494e:	2200      	movs	r2, #0
 8004950:	2180      	movs	r1, #128	@ 0x80
 8004952:	68f8      	ldr	r0, [r7, #12]
 8004954:	f000 f884 	bl	8004a60 <I2C_WaitOnFlagUntilTimeout>
 8004958:	4603      	mov	r3, r0
 800495a:	2b00      	cmp	r3, #0
 800495c:	d001      	beq.n	8004962 <I2C_RequestMemoryWrite+0x9a>
  {
    return HAL_ERROR;
 800495e:	2301      	movs	r3, #1
 8004960:	e000      	b.n	8004964 <I2C_RequestMemoryWrite+0x9c>
  }

  return HAL_OK;
 8004962:	2300      	movs	r3, #0
}
 8004964:	4618      	mov	r0, r3
 8004966:	3710      	adds	r7, #16
 8004968:	46bd      	mov	sp, r7
 800496a:	bd80      	pop	{r7, pc}
 800496c:	80002000 	.word	0x80002000

08004970 <I2C_RequestMemoryRead>:
  * @retval HAL status
  */
static HAL_StatusTypeDef I2C_RequestMemoryRead(I2C_HandleTypeDef *hi2c, uint16_t DevAddress,
                                               uint16_t MemAddress, uint16_t MemAddSize, uint32_t Timeout,
                                               uint32_t Tickstart)
{
 8004970:	b580      	push	{r7, lr}
 8004972:	b086      	sub	sp, #24
 8004974:	af02      	add	r7, sp, #8
 8004976:	60f8      	str	r0, [r7, #12]
 8004978:	4608      	mov	r0, r1
 800497a:	4611      	mov	r1, r2
 800497c:	461a      	mov	r2, r3
 800497e:	4603      	mov	r3, r0
 8004980:	817b      	strh	r3, [r7, #10]
 8004982:	460b      	mov	r3, r1
 8004984:	813b      	strh	r3, [r7, #8]
 8004986:	4613      	mov	r3, r2
 8004988:	80fb      	strh	r3, [r7, #6]
  I2C_TransferConfig(hi2c, DevAddress, (uint8_t)MemAddSize, I2C_SOFTEND_MODE, I2C_GENERATE_START_WRITE);
 800498a:	88fb      	ldrh	r3, [r7, #6]
 800498c:	b2da      	uxtb	r2, r3
 800498e:	8979      	ldrh	r1, [r7, #10]
 8004990:	4b20      	ldr	r3, [pc, #128]	@ (8004a14 <I2C_RequestMemoryRead+0xa4>)
 8004992:	9300      	str	r3, [sp, #0]
 8004994:	2300      	movs	r3, #0
 8004996:	68f8      	ldr	r0, [r7, #12]
 8004998:	f000 fa1c 	bl	8004dd4 <I2C_TransferConfig>

  /* Wait until TXIS flag is set */
  if (I2C_WaitOnTXISFlagUntilTimeout(hi2c, Timeout, Tickstart) != HAL_OK)
 800499c:	69fa      	ldr	r2, [r7, #28]
 800499e:	69b9      	ldr	r1, [r7, #24]
 80049a0:	68f8      	ldr	r0, [r7, #12]
 80049a2:	f000 f8ac 	bl	8004afe <I2C_WaitOnTXISFlagUntilTimeout>
 80049a6:	4603      	mov	r3, r0
 80049a8:	2b00      	cmp	r3, #0
 80049aa:	d001      	beq.n	80049b0 <I2C_RequestMemoryRead+0x40>
  {
    return HAL_ERROR;
 80049ac:	2301      	movs	r3, #1
 80049ae:	e02c      	b.n	8004a0a <I2C_RequestMemoryRead+0x9a>
  }

  /* If Memory address size is 8Bit */
  if (MemAddSize == I2C_MEMADD_SIZE_8BIT)
 80049b0:	88fb      	ldrh	r3, [r7, #6]
 80049b2:	2b01      	cmp	r3, #1
 80049b4:	d105      	bne.n	80049c2 <I2C_RequestMemoryRead+0x52>
  {
    /* Send Memory Address */
    hi2c->Instance->TXDR = I2C_MEM_ADD_LSB(MemAddress);
 80049b6:	893b      	ldrh	r3, [r7, #8]
 80049b8:	b2da      	uxtb	r2, r3
 80049ba:	68fb      	ldr	r3, [r7, #12]
 80049bc:	681b      	ldr	r3, [r3, #0]
 80049be:	629a      	str	r2, [r3, #40]	@ 0x28
 80049c0:	e015      	b.n	80049ee <I2C_RequestMemoryRead+0x7e>
  }
  /* If Memory address size is 16Bit */
  else
  {
    /* Send MSB of Memory Address */
    hi2c->Instance->TXDR = I2C_MEM_ADD_MSB(MemAddress);
 80049c2:	893b      	ldrh	r3, [r7, #8]
 80049c4:	0a1b      	lsrs	r3, r3, #8
 80049c6:	b29b      	uxth	r3, r3
 80049c8:	b2da      	uxtb	r2, r3
 80049ca:	68fb      	ldr	r3, [r7, #12]
 80049cc:	681b      	ldr	r3, [r3, #0]
 80049ce:	629a      	str	r2, [r3, #40]	@ 0x28

    /* Wait until TXIS flag is set */
    if (I2C_WaitOnTXISFlagUntilTimeout(hi2c, Timeout, Tickstart) != HAL_OK)
 80049d0:	69fa      	ldr	r2, [r7, #28]
 80049d2:	69b9      	ldr	r1, [r7, #24]
 80049d4:	68f8      	ldr	r0, [r7, #12]
 80049d6:	f000 f892 	bl	8004afe <I2C_WaitOnTXISFlagUntilTimeout>
 80049da:	4603      	mov	r3, r0
 80049dc:	2b00      	cmp	r3, #0
 80049de:	d001      	beq.n	80049e4 <I2C_RequestMemoryRead+0x74>
    {
      return HAL_ERROR;
 80049e0:	2301      	movs	r3, #1
 80049e2:	e012      	b.n	8004a0a <I2C_RequestMemoryRead+0x9a>
    }

    /* Send LSB of Memory Address */
    hi2c->Instance->TXDR = I2C_MEM_ADD_LSB(MemAddress);
 80049e4:	893b      	ldrh	r3, [r7, #8]
 80049e6:	b2da      	uxtb	r2, r3
 80049e8:	68fb      	ldr	r3, [r7, #12]
 80049ea:	681b      	ldr	r3, [r3, #0]
 80049ec:	629a      	str	r2, [r3, #40]	@ 0x28
  }

  /* Wait until TC flag is set */
  if (I2C_WaitOnFlagUntilTimeout(hi2c, I2C_FLAG_TC, RESET, Timeout, Tickstart) != HAL_OK)
 80049ee:	69fb      	ldr	r3, [r7, #28]
 80049f0:	9300      	str	r3, [sp, #0]
 80049f2:	69bb      	ldr	r3, [r7, #24]
 80049f4:	2200      	movs	r2, #0
 80049f6:	2140      	movs	r1, #64	@ 0x40
 80049f8:	68f8      	ldr	r0, [r7, #12]
 80049fa:	f000 f831 	bl	8004a60 <I2C_WaitOnFlagUntilTimeout>
 80049fe:	4603      	mov	r3, r0
 8004a00:	2b00      	cmp	r3, #0
 8004a02:	d001      	beq.n	8004a08 <I2C_RequestMemoryRead+0x98>
  {
    return HAL_ERROR;
 8004a04:	2301      	movs	r3, #1
 8004a06:	e000      	b.n	8004a0a <I2C_RequestMemoryRead+0x9a>
  }

  return HAL_OK;
 8004a08:	2300      	movs	r3, #0
}
 8004a0a:	4618      	mov	r0, r3
 8004a0c:	3710      	adds	r7, #16
 8004a0e:	46bd      	mov	sp, r7
 8004a10:	bd80      	pop	{r7, pc}
 8004a12:	bf00      	nop
 8004a14:	80002000 	.word	0x80002000

08004a18 <I2C_Flush_TXDR>:
  * @brief  I2C Tx data register flush process.
  * @param  hi2c I2C handle.
  * @retval None
  */
static void I2C_Flush_TXDR(I2C_HandleTypeDef *hi2c)
{
 8004a18:	b480      	push	{r7}
 8004a1a:	b083      	sub	sp, #12
 8004a1c:	af00      	add	r7, sp, #0
 8004a1e:	6078      	str	r0, [r7, #4]
  /* If a pending TXIS flag is set */
  /* Write a dummy data in TXDR to clear it */
  if (__HAL_I2C_GET_FLAG(hi2c, I2C_FLAG_TXIS) != RESET)
 8004a20:	687b      	ldr	r3, [r7, #4]
 8004a22:	681b      	ldr	r3, [r3, #0]
 8004a24:	699b      	ldr	r3, [r3, #24]
 8004a26:	f003 0302 	and.w	r3, r3, #2
 8004a2a:	2b02      	cmp	r3, #2
 8004a2c:	d103      	bne.n	8004a36 <I2C_Flush_TXDR+0x1e>
  {
    hi2c->Instance->TXDR = 0x00U;
 8004a2e:	687b      	ldr	r3, [r7, #4]
 8004a30:	681b      	ldr	r3, [r3, #0]
 8004a32:	2200      	movs	r2, #0
 8004a34:	629a      	str	r2, [r3, #40]	@ 0x28
  }

  /* Flush TX register if not empty */
  if (__HAL_I2C_GET_FLAG(hi2c, I2C_FLAG_TXE) == RESET)
 8004a36:	687b      	ldr	r3, [r7, #4]
 8004a38:	681b      	ldr	r3, [r3, #0]
 8004a3a:	699b      	ldr	r3, [r3, #24]
 8004a3c:	f003 0301 	and.w	r3, r3, #1
 8004a40:	2b01      	cmp	r3, #1
 8004a42:	d007      	beq.n	8004a54 <I2C_Flush_TXDR+0x3c>
  {
    __HAL_I2C_CLEAR_FLAG(hi2c, I2C_FLAG_TXE);
 8004a44:	687b      	ldr	r3, [r7, #4]
 8004a46:	681b      	ldr	r3, [r3, #0]
 8004a48:	699a      	ldr	r2, [r3, #24]
 8004a4a:	687b      	ldr	r3, [r7, #4]
 8004a4c:	681b      	ldr	r3, [r3, #0]
 8004a4e:	f042 0201 	orr.w	r2, r2, #1
 8004a52:	619a      	str	r2, [r3, #24]
  }
}
 8004a54:	bf00      	nop
 8004a56:	370c      	adds	r7, #12
 8004a58:	46bd      	mov	sp, r7
 8004a5a:	f85d 7b04 	ldr.w	r7, [sp], #4
 8004a5e:	4770      	bx	lr

08004a60 <I2C_WaitOnFlagUntilTimeout>:
  * @param  Tickstart Tick start value
  * @retval HAL status
  */
static HAL_StatusTypeDef I2C_WaitOnFlagUntilTimeout(I2C_HandleTypeDef *hi2c, uint32_t Flag, FlagStatus Status,
                                                    uint32_t Timeout, uint32_t Tickstart)
{
 8004a60:	b580      	push	{r7, lr}
 8004a62:	b084      	sub	sp, #16
 8004a64:	af00      	add	r7, sp, #0
 8004a66:	60f8      	str	r0, [r7, #12]
 8004a68:	60b9      	str	r1, [r7, #8]
 8004a6a:	603b      	str	r3, [r7, #0]
 8004a6c:	4613      	mov	r3, r2
 8004a6e:	71fb      	strb	r3, [r7, #7]
  while (__HAL_I2C_GET_FLAG(hi2c, Flag) == Status)
 8004a70:	e031      	b.n	8004ad6 <I2C_WaitOnFlagUntilTimeout+0x76>
  {
    /* Check for the Timeout */
    if (Timeout != HAL_MAX_DELAY)
 8004a72:	683b      	ldr	r3, [r7, #0]
 8004a74:	f1b3 3fff 	cmp.w	r3, #4294967295
 8004a78:	d02d      	beq.n	8004ad6 <I2C_WaitOnFlagUntilTimeout+0x76>
    {
      if (((HAL_GetTick() - Tickstart) > Timeout) || (Timeout == 0U))
 8004a7a:	f7fe f82b 	bl	8002ad4 <HAL_GetTick>
 8004a7e:	4602      	mov	r2, r0
 8004a80:	69bb      	ldr	r3, [r7, #24]
 8004a82:	1ad3      	subs	r3, r2, r3
 8004a84:	683a      	ldr	r2, [r7, #0]
 8004a86:	429a      	cmp	r2, r3
 8004a88:	d302      	bcc.n	8004a90 <I2C_WaitOnFlagUntilTimeout+0x30>
 8004a8a:	683b      	ldr	r3, [r7, #0]
 8004a8c:	2b00      	cmp	r3, #0
 8004a8e:	d122      	bne.n	8004ad6 <I2C_WaitOnFlagUntilTimeout+0x76>
      {
        if ((__HAL_I2C_GET_FLAG(hi2c, Flag) == Status))
 8004a90:	68fb      	ldr	r3, [r7, #12]
 8004a92:	681b      	ldr	r3, [r3, #0]
 8004a94:	699a      	ldr	r2, [r3, #24]
 8004a96:	68bb      	ldr	r3, [r7, #8]
 8004a98:	4013      	ands	r3, r2
 8004a9a:	68ba      	ldr	r2, [r7, #8]
 8004a9c:	429a      	cmp	r2, r3
 8004a9e:	bf0c      	ite	eq
 8004aa0:	2301      	moveq	r3, #1
 8004aa2:	2300      	movne	r3, #0
 8004aa4:	b2db      	uxtb	r3, r3
 8004aa6:	461a      	mov	r2, r3
 8004aa8:	79fb      	ldrb	r3, [r7, #7]
 8004aaa:	429a      	cmp	r2, r3
 8004aac:	d113      	bne.n	8004ad6 <I2C_WaitOnFlagUntilTimeout+0x76>
        {
          hi2c->ErrorCode |= HAL_I2C_ERROR_TIMEOUT;
 8004aae:	68fb      	ldr	r3, [r7, #12]
 8004ab0:	6c5b      	ldr	r3, [r3, #68]	@ 0x44
 8004ab2:	f043 0220 	orr.w	r2, r3, #32
 8004ab6:	68fb      	ldr	r3, [r7, #12]
 8004ab8:	645a      	str	r2, [r3, #68]	@ 0x44
          hi2c->State = HAL_I2C_STATE_READY;
 8004aba:	68fb      	ldr	r3, [r7, #12]
 8004abc:	2220      	movs	r2, #32
 8004abe:	f883 2041 	strb.w	r2, [r3, #65]	@ 0x41
          hi2c->Mode = HAL_I2C_MODE_NONE;
 8004ac2:	68fb      	ldr	r3, [r7, #12]
 8004ac4:	2200      	movs	r2, #0
 8004ac6:	f883 2042 	strb.w	r2, [r3, #66]	@ 0x42

          /* Process Unlocked */
          __HAL_UNLOCK(hi2c);
 8004aca:	68fb      	ldr	r3, [r7, #12]
 8004acc:	2200      	movs	r2, #0
 8004ace:	f883 2040 	strb.w	r2, [r3, #64]	@ 0x40
          return HAL_ERROR;
 8004ad2:	2301      	movs	r3, #1
 8004ad4:	e00f      	b.n	8004af6 <I2C_WaitOnFlagUntilTimeout+0x96>
  while (__HAL_I2C_GET_FLAG(hi2c, Flag) == Status)
 8004ad6:	68fb      	ldr	r3, [r7, #12]
 8004ad8:	681b      	ldr	r3, [r3, #0]
 8004ada:	699a      	ldr	r2, [r3, #24]
 8004adc:	68bb      	ldr	r3, [r7, #8]
 8004ade:	4013      	ands	r3, r2
 8004ae0:	68ba      	ldr	r2, [r7, #8]
 8004ae2:	429a      	cmp	r2, r3
 8004ae4:	bf0c      	ite	eq
 8004ae6:	2301      	moveq	r3, #1
 8004ae8:	2300      	movne	r3, #0
 8004aea:	b2db      	uxtb	r3, r3
 8004aec:	461a      	mov	r2, r3
 8004aee:	79fb      	ldrb	r3, [r7, #7]
 8004af0:	429a      	cmp	r2, r3
 8004af2:	d0be      	beq.n	8004a72 <I2C_WaitOnFlagUntilTimeout+0x12>
        }
      }
    }
  }
  return HAL_OK;
 8004af4:	2300      	movs	r3, #0
}
 8004af6:	4618      	mov	r0, r3
 8004af8:	3710      	adds	r7, #16
 8004afa:	46bd      	mov	sp, r7
 8004afc:	bd80      	pop	{r7, pc}

08004afe <I2C_WaitOnTXISFlagUntilTimeout>:
  * @param  Tickstart Tick start value
  * @retval HAL status
  */
static HAL_StatusTypeDef I2C_WaitOnTXISFlagUntilTimeout(I2C_HandleTypeDef *hi2c, uint32_t Timeout,
                                                        uint32_t Tickstart)
{
 8004afe:	b580      	push	{r7, lr}
 8004b00:	b084      	sub	sp, #16
 8004b02:	af00      	add	r7, sp, #0
 8004b04:	60f8      	str	r0, [r7, #12]
 8004b06:	60b9      	str	r1, [r7, #8]
 8004b08:	607a      	str	r2, [r7, #4]
  while (__HAL_I2C_GET_FLAG(hi2c, I2C_FLAG_TXIS) == RESET)
 8004b0a:	e033      	b.n	8004b74 <I2C_WaitOnTXISFlagUntilTimeout+0x76>
  {
    /* Check if an error is detected */
    if (I2C_IsErrorOccurred(hi2c, Timeout, Tickstart) != HAL_OK)
 8004b0c:	687a      	ldr	r2, [r7, #4]
 8004b0e:	68b9      	ldr	r1, [r7, #8]
 8004b10:	68f8      	ldr	r0, [r7, #12]
 8004b12:	f000 f87f 	bl	8004c14 <I2C_IsErrorOccurred>
 8004b16:	4603      	mov	r3, r0
 8004b18:	2b00      	cmp	r3, #0
 8004b1a:	d001      	beq.n	8004b20 <I2C_WaitOnTXISFlagUntilTimeout+0x22>
    {
      return HAL_ERROR;
 8004b1c:	2301      	movs	r3, #1
 8004b1e:	e031      	b.n	8004b84 <I2C_WaitOnTXISFlagUntilTimeout+0x86>
    }

    /* Check for the Timeout */
    if (Timeout != HAL_MAX_DELAY)
 8004b20:	68bb      	ldr	r3, [r7, #8]
 8004b22:	f1b3 3fff 	cmp.w	r3, #4294967295
 8004b26:	d025      	beq.n	8004b74 <I2C_WaitOnTXISFlagUntilTimeout+0x76>
    {
      if (((HAL_GetTick() - Tickstart) > Timeout) || (Timeout == 0U))
 8004b28:	f7fd ffd4 	bl	8002ad4 <HAL_GetTick>
 8004b2c:	4602      	mov	r2, r0
 8004b2e:	687b      	ldr	r3, [r7, #4]
 8004b30:	1ad3      	subs	r3, r2, r3
 8004b32:	68ba      	ldr	r2, [r7, #8]
 8004b34:	429a      	cmp	r2, r3
 8004b36:	d302      	bcc.n	8004b3e <I2C_WaitOnTXISFlagUntilTimeout+0x40>
 8004b38:	68bb      	ldr	r3, [r7, #8]
 8004b3a:	2b00      	cmp	r3, #0
 8004b3c:	d11a      	bne.n	8004b74 <I2C_WaitOnTXISFlagUntilTimeout+0x76>
      {
        if ((__HAL_I2C_GET_FLAG(hi2c, I2C_FLAG_TXIS) == RESET))
 8004b3e:	68fb      	ldr	r3, [r7, #12]
 8004b40:	681b      	ldr	r3, [r3, #0]
 8004b42:	699b      	ldr	r3, [r3, #24]
 8004b44:	f003 0302 	and.w	r3, r3, #2
 8004b48:	2b02      	cmp	r3, #2
 8004b4a:	d013      	beq.n	8004b74 <I2C_WaitOnTXISFlagUntilTimeout+0x76>
        {
          hi2c->ErrorCode |= HAL_I2C_ERROR_TIMEOUT;
 8004b4c:	68fb      	ldr	r3, [r7, #12]
 8004b4e:	6c5b      	ldr	r3, [r3, #68]	@ 0x44
 8004b50:	f043 0220 	orr.w	r2, r3, #32
 8004b54:	68fb      	ldr	r3, [r7, #12]
 8004b56:	645a      	str	r2, [r3, #68]	@ 0x44
          hi2c->State = HAL_I2C_STATE_READY;
 8004b58:	68fb      	ldr	r3, [r7, #12]
 8004b5a:	2220      	movs	r2, #32
 8004b5c:	f883 2041 	strb.w	r2, [r3, #65]	@ 0x41
          hi2c->Mode = HAL_I2C_MODE_NONE;
 8004b60:	68fb      	ldr	r3, [r7, #12]
 8004b62:	2200      	movs	r2, #0
 8004b64:	f883 2042 	strb.w	r2, [r3, #66]	@ 0x42

          /* Process Unlocked */
          __HAL_UNLOCK(hi2c);
 8004b68:	68fb      	ldr	r3, [r7, #12]
 8004b6a:	2200      	movs	r2, #0
 8004b6c:	f883 2040 	strb.w	r2, [r3, #64]	@ 0x40

          return HAL_ERROR;
 8004b70:	2301      	movs	r3, #1
 8004b72:	e007      	b.n	8004b84 <I2C_WaitOnTXISFlagUntilTimeout+0x86>
  while (__HAL_I2C_GET_FLAG(hi2c, I2C_FLAG_TXIS) == RESET)
 8004b74:	68fb      	ldr	r3, [r7, #12]
 8004b76:	681b      	ldr	r3, [r3, #0]
 8004b78:	699b      	ldr	r3, [r3, #24]
 8004b7a:	f003 0302 	and.w	r3, r3, #2
 8004b7e:	2b02      	cmp	r3, #2
 8004b80:	d1c4      	bne.n	8004b0c <I2C_WaitOnTXISFlagUntilTimeout+0xe>
        }
      }
    }
  }
  return HAL_OK;
 8004b82:	2300      	movs	r3, #0
}
 8004b84:	4618      	mov	r0, r3
 8004b86:	3710      	adds	r7, #16
 8004b88:	46bd      	mov	sp, r7
 8004b8a:	bd80      	pop	{r7, pc}

08004b8c <I2C_WaitOnSTOPFlagUntilTimeout>:
  * @param  Tickstart Tick start value
  * @retval HAL status
  */
static HAL_StatusTypeDef I2C_WaitOnSTOPFlagUntilTimeout(I2C_HandleTypeDef *hi2c, uint32_t Timeout,
                                                        uint32_t Tickstart)
{
 8004b8c:	b580      	push	{r7, lr}
 8004b8e:	b084      	sub	sp, #16
 8004b90:	af00      	add	r7, sp, #0
 8004b92:	60f8      	str	r0, [r7, #12]
 8004b94:	60b9      	str	r1, [r7, #8]
 8004b96:	607a      	str	r2, [r7, #4]
  while (__HAL_I2C_GET_FLAG(hi2c, I2C_FLAG_STOPF) == RESET)
 8004b98:	e02f      	b.n	8004bfa <I2C_WaitOnSTOPFlagUntilTimeout+0x6e>
  {
    /* Check if an error is detected */
    if (I2C_IsErrorOccurred(hi2c, Timeout, Tickstart) != HAL_OK)
 8004b9a:	687a      	ldr	r2, [r7, #4]
 8004b9c:	68b9      	ldr	r1, [r7, #8]
 8004b9e:	68f8      	ldr	r0, [r7, #12]
 8004ba0:	f000 f838 	bl	8004c14 <I2C_IsErrorOccurred>
 8004ba4:	4603      	mov	r3, r0
 8004ba6:	2b00      	cmp	r3, #0
 8004ba8:	d001      	beq.n	8004bae <I2C_WaitOnSTOPFlagUntilTimeout+0x22>
    {
      return HAL_ERROR;
 8004baa:	2301      	movs	r3, #1
 8004bac:	e02d      	b.n	8004c0a <I2C_WaitOnSTOPFlagUntilTimeout+0x7e>
    }

    /* Check for the Timeout */
    if (((HAL_GetTick() - Tickstart) > Timeout) || (Timeout == 0U))
 8004bae:	f7fd ff91 	bl	8002ad4 <HAL_GetTick>
 8004bb2:	4602      	mov	r2, r0
 8004bb4:	687b      	ldr	r3, [r7, #4]
 8004bb6:	1ad3      	subs	r3, r2, r3
 8004bb8:	68ba      	ldr	r2, [r7, #8]
 8004bba:	429a      	cmp	r2, r3
 8004bbc:	d302      	bcc.n	8004bc4 <I2C_WaitOnSTOPFlagUntilTimeout+0x38>
 8004bbe:	68bb      	ldr	r3, [r7, #8]
 8004bc0:	2b00      	cmp	r3, #0
 8004bc2:	d11a      	bne.n	8004bfa <I2C_WaitOnSTOPFlagUntilTimeout+0x6e>
    {
      if ((__HAL_I2C_GET_FLAG(hi2c, I2C_FLAG_STOPF) == RESET))
 8004bc4:	68fb      	ldr	r3, [r7, #12]
 8004bc6:	681b      	ldr	r3, [r3, #0]
 8004bc8:	699b      	ldr	r3, [r3, #24]
 8004bca:	f003 0320 	and.w	r3, r3, #32
 8004bce:	2b20      	cmp	r3, #32
 8004bd0:	d013      	beq.n	8004bfa <I2C_WaitOnSTOPFlagUntilTimeout+0x6e>
      {
        hi2c->ErrorCode |= HAL_I2C_ERROR_TIMEOUT;
 8004bd2:	68fb      	ldr	r3, [r7, #12]
 8004bd4:	6c5b      	ldr	r3, [r3, #68]	@ 0x44
 8004bd6:	f043 0220 	orr.w	r2, r3, #32
 8004bda:	68fb      	ldr	r3, [r7, #12]
 8004bdc:	645a      	str	r2, [r3, #68]	@ 0x44
        hi2c->State = HAL_I2C_STATE_READY;
 8004bde:	68fb      	ldr	r3, [r7, #12]
 8004be0:	2220      	movs	r2, #32
 8004be2:	f883 2041 	strb.w	r2, [r3, #65]	@ 0x41
        hi2c->Mode = HAL_I2C_MODE_NONE;
 8004be6:	68fb      	ldr	r3, [r7, #12]
 8004be8:	2200      	movs	r2, #0
 8004bea:	f883 2042 	strb.w	r2, [r3, #66]	@ 0x42

        /* Process Unlocked */
        __HAL_UNLOCK(hi2c);
 8004bee:	68fb      	ldr	r3, [r7, #12]
 8004bf0:	2200      	movs	r2, #0
 8004bf2:	f883 2040 	strb.w	r2, [r3, #64]	@ 0x40

        return HAL_ERROR;
 8004bf6:	2301      	movs	r3, #1
 8004bf8:	e007      	b.n	8004c0a <I2C_WaitOnSTOPFlagUntilTimeout+0x7e>
  while (__HAL_I2C_GET_FLAG(hi2c, I2C_FLAG_STOPF) == RESET)
 8004bfa:	68fb      	ldr	r3, [r7, #12]
 8004bfc:	681b      	ldr	r3, [r3, #0]
 8004bfe:	699b      	ldr	r3, [r3, #24]
 8004c00:	f003 0320 	and.w	r3, r3, #32
 8004c04:	2b20      	cmp	r3, #32
 8004c06:	d1c8      	bne.n	8004b9a <I2C_WaitOnSTOPFlagUntilTimeout+0xe>
      }
    }
  }
  return HAL_OK;
 8004c08:	2300      	movs	r3, #0
}
 8004c0a:	4618      	mov	r0, r3
 8004c0c:	3710      	adds	r7, #16
 8004c0e:	46bd      	mov	sp, r7
 8004c10:	bd80      	pop	{r7, pc}
	...

08004c14 <I2C_IsErrorOccurred>:
  * @param  Timeout Timeout duration
  * @param  Tickstart Tick start value
  * @retval HAL status
  */
static HAL_StatusTypeDef I2C_IsErrorOccurred(I2C_HandleTypeDef *hi2c, uint32_t Timeout, uint32_t Tickstart)
{
 8004c14:	b580      	push	{r7, lr}
 8004c16:	b08a      	sub	sp, #40	@ 0x28
 8004c18:	af00      	add	r7, sp, #0
 8004c1a:	60f8      	str	r0, [r7, #12]
 8004c1c:	60b9      	str	r1, [r7, #8]
 8004c1e:	607a      	str	r2, [r7, #4]
  HAL_StatusTypeDef status = HAL_OK;
 8004c20:	2300      	movs	r3, #0
 8004c22:	f887 3027 	strb.w	r3, [r7, #39]	@ 0x27
  uint32_t itflag   = hi2c->Instance->ISR;
 8004c26:	68fb      	ldr	r3, [r7, #12]
 8004c28:	681b      	ldr	r3, [r3, #0]
 8004c2a:	699b      	ldr	r3, [r3, #24]
 8004c2c:	61bb      	str	r3, [r7, #24]
  uint32_t error_code = 0;
 8004c2e:	2300      	movs	r3, #0
 8004c30:	623b      	str	r3, [r7, #32]
  uint32_t tickstart = Tickstart;
 8004c32:	687b      	ldr	r3, [r7, #4]
 8004c34:	61fb      	str	r3, [r7, #28]
  uint32_t tmp1;
  HAL_I2C_ModeTypeDef tmp2;

  if (HAL_IS_BIT_SET(itflag, I2C_FLAG_AF))
 8004c36:	69bb      	ldr	r3, [r7, #24]
 8004c38:	f003 0310 	and.w	r3, r3, #16
 8004c3c:	2b00      	cmp	r3, #0
 8004c3e:	d068      	beq.n	8004d12 <I2C_IsErrorOccurred+0xfe>
  {
    /* Clear NACKF Flag */
    __HAL_I2C_CLEAR_FLAG(hi2c, I2C_FLAG_AF);
 8004c40:	68fb      	ldr	r3, [r7, #12]
 8004c42:	681b      	ldr	r3, [r3, #0]
 8004c44:	2210      	movs	r2, #16
 8004c46:	61da      	str	r2, [r3, #28]

    /* Wait until STOP Flag is set or timeout occurred */
    /* AutoEnd should be initiate after AF */
    while ((__HAL_I2C_GET_FLAG(hi2c, I2C_FLAG_STOPF) == RESET) && (status == HAL_OK))
 8004c48:	e049      	b.n	8004cde <I2C_IsErrorOccurred+0xca>
    {
      /* Check for the Timeout */
      if (Timeout != HAL_MAX_DELAY)
 8004c4a:	68bb      	ldr	r3, [r7, #8]
 8004c4c:	f1b3 3fff 	cmp.w	r3, #4294967295
 8004c50:	d045      	beq.n	8004cde <I2C_IsErrorOccurred+0xca>
      {
        if (((HAL_GetTick() - tickstart) > Timeout) || (Timeout == 0U))
 8004c52:	f7fd ff3f 	bl	8002ad4 <HAL_GetTick>
 8004c56:	4602      	mov	r2, r0
 8004c58:	69fb      	ldr	r3, [r7, #28]
 8004c5a:	1ad3      	subs	r3, r2, r3
 8004c5c:	68ba      	ldr	r2, [r7, #8]
 8004c5e:	429a      	cmp	r2, r3
 8004c60:	d302      	bcc.n	8004c68 <I2C_IsErrorOccurred+0x54>
 8004c62:	68bb      	ldr	r3, [r7, #8]
 8004c64:	2b00      	cmp	r3, #0
 8004c66:	d13a      	bne.n	8004cde <I2C_IsErrorOccurred+0xca>
        {
          tmp1 = (uint32_t)(hi2c->Instance->CR2 & I2C_CR2_STOP);
 8004c68:	68fb      	ldr	r3, [r7, #12]
 8004c6a:	681b      	ldr	r3, [r3, #0]
 8004c6c:	685b      	ldr	r3, [r3, #4]
 8004c6e:	f403 4380 	and.w	r3, r3, #16384	@ 0x4000
 8004c72:	617b      	str	r3, [r7, #20]
          tmp2 = hi2c->Mode;
 8004c74:	68fb      	ldr	r3, [r7, #12]
 8004c76:	f893 3042 	ldrb.w	r3, [r3, #66]	@ 0x42
 8004c7a:	74fb      	strb	r3, [r7, #19]

          /* In case of I2C still busy, try to regenerate a STOP manually */
          if ((__HAL_I2C_GET_FLAG(hi2c, I2C_FLAG_BUSY) != RESET) && \
 8004c7c:	68fb      	ldr	r3, [r7, #12]
 8004c7e:	681b      	ldr	r3, [r3, #0]
 8004c80:	699b      	ldr	r3, [r3, #24]
 8004c82:	f403 4300 	and.w	r3, r3, #32768	@ 0x8000
 8004c86:	f5b3 4f00 	cmp.w	r3, #32768	@ 0x8000
 8004c8a:	d121      	bne.n	8004cd0 <I2C_IsErrorOccurred+0xbc>
 8004c8c:	697b      	ldr	r3, [r7, #20]
 8004c8e:	f5b3 4f80 	cmp.w	r3, #16384	@ 0x4000
 8004c92:	d01d      	beq.n	8004cd0 <I2C_IsErrorOccurred+0xbc>
              (tmp1 != I2C_CR2_STOP) && \
 8004c94:	7cfb      	ldrb	r3, [r7, #19]
 8004c96:	2b20      	cmp	r3, #32
 8004c98:	d01a      	beq.n	8004cd0 <I2C_IsErrorOccurred+0xbc>
              (tmp2 != HAL_I2C_MODE_SLAVE))
          {
            /* Generate Stop */
            hi2c->Instance->CR2 |= I2C_CR2_STOP;
 8004c9a:	68fb      	ldr	r3, [r7, #12]
 8004c9c:	681b      	ldr	r3, [r3, #0]
 8004c9e:	685a      	ldr	r2, [r3, #4]
 8004ca0:	68fb      	ldr	r3, [r7, #12]
 8004ca2:	681b      	ldr	r3, [r3, #0]
 8004ca4:	f442 4280 	orr.w	r2, r2, #16384	@ 0x4000
 8004ca8:	605a      	str	r2, [r3, #4]

            /* Update Tick with new reference */
            tickstart = HAL_GetTick();
 8004caa:	f7fd ff13 	bl	8002ad4 <HAL_GetTick>
 8004cae:	61f8      	str	r0, [r7, #28]
          }

          while (__HAL_I2C_GET_FLAG(hi2c, I2C_FLAG_STOPF) == RESET)
 8004cb0:	e00e      	b.n	8004cd0 <I2C_IsErrorOccurred+0xbc>
          {
            /* Check for the Timeout */
            if ((HAL_GetTick() - tickstart) > I2C_TIMEOUT_STOPF)
 8004cb2:	f7fd ff0f 	bl	8002ad4 <HAL_GetTick>
 8004cb6:	4602      	mov	r2, r0
 8004cb8:	69fb      	ldr	r3, [r7, #28]
 8004cba:	1ad3      	subs	r3, r2, r3
 8004cbc:	2b19      	cmp	r3, #25
 8004cbe:	d907      	bls.n	8004cd0 <I2C_IsErrorOccurred+0xbc>
            {
              error_code |= HAL_I2C_ERROR_TIMEOUT;
 8004cc0:	6a3b      	ldr	r3, [r7, #32]
 8004cc2:	f043 0320 	orr.w	r3, r3, #32
 8004cc6:	623b      	str	r3, [r7, #32]

              status = HAL_ERROR;
 8004cc8:	2301      	movs	r3, #1
 8004cca:	f887 3027 	strb.w	r3, [r7, #39]	@ 0x27

              break;
 8004cce:	e006      	b.n	8004cde <I2C_IsErrorOccurred+0xca>
          while (__HAL_I2C_GET_FLAG(hi2c, I2C_FLAG_STOPF) == RESET)
 8004cd0:	68fb      	ldr	r3, [r7, #12]
 8004cd2:	681b      	ldr	r3, [r3, #0]
 8004cd4:	699b      	ldr	r3, [r3, #24]
 8004cd6:	f003 0320 	and.w	r3, r3, #32
 8004cda:	2b20      	cmp	r3, #32
 8004cdc:	d1e9      	bne.n	8004cb2 <I2C_IsErrorOccurred+0x9e>
    while ((__HAL_I2C_GET_FLAG(hi2c, I2C_FLAG_STOPF) == RESET) && (status == HAL_OK))
 8004cde:	68fb      	ldr	r3, [r7, #12]
 8004ce0:	681b      	ldr	r3, [r3, #0]
 8004ce2:	699b      	ldr	r3, [r3, #24]
 8004ce4:	f003 0320 	and.w	r3, r3, #32
 8004ce8:	2b20      	cmp	r3, #32
 8004cea:	d003      	beq.n	8004cf4 <I2C_IsErrorOccurred+0xe0>
 8004cec:	f897 3027 	ldrb.w	r3, [r7, #39]	@ 0x27
 8004cf0:	2b00      	cmp	r3, #0
 8004cf2:	d0aa      	beq.n	8004c4a <I2C_IsErrorOccurred+0x36>
        }
      }
    }

    /* In case STOP Flag is detected, clear it */
    if (status == HAL_OK)
 8004cf4:	f897 3027 	ldrb.w	r3, [r7, #39]	@ 0x27
 8004cf8:	2b00      	cmp	r3, #0
 8004cfa:	d103      	bne.n	8004d04 <I2C_IsErrorOccurred+0xf0>
    {
      /* Clear STOP Flag */
      __HAL_I2C_CLEAR_FLAG(hi2c, I2C_FLAG_STOPF);
 8004cfc:	68fb      	ldr	r3, [r7, #12]
 8004cfe:	681b      	ldr	r3, [r3, #0]
 8004d00:	2220      	movs	r2, #32
 8004d02:	61da      	str	r2, [r3, #28]
    }

    error_code |= HAL_I2C_ERROR_AF;
 8004d04:	6a3b      	ldr	r3, [r7, #32]
 8004d06:	f043 0304 	orr.w	r3, r3, #4
 8004d0a:	623b      	str	r3, [r7, #32]

    status = HAL_ERROR;
 8004d0c:	2301      	movs	r3, #1
 8004d0e:	f887 3027 	strb.w	r3, [r7, #39]	@ 0x27
  }

  /* Refresh Content of Status register */
  itflag = hi2c->Instance->ISR;
 8004d12:	68fb      	ldr	r3, [r7, #12]
 8004d14:	681b      	ldr	r3, [r3, #0]
 8004d16:	699b      	ldr	r3, [r3, #24]
 8004d18:	61bb      	str	r3, [r7, #24]

  /* Then verify if an additional errors occurs */
  /* Check if a Bus error occurred */
  if (HAL_IS_BIT_SET(itflag, I2C_FLAG_BERR))
 8004d1a:	69bb      	ldr	r3, [r7, #24]
 8004d1c:	f403 7380 	and.w	r3, r3, #256	@ 0x100
 8004d20:	2b00      	cmp	r3, #0
 8004d22:	d00b      	beq.n	8004d3c <I2C_IsErrorOccurred+0x128>
  {
    error_code |= HAL_I2C_ERROR_BERR;
 8004d24:	6a3b      	ldr	r3, [r7, #32]
 8004d26:	f043 0301 	orr.w	r3, r3, #1
 8004d2a:	623b      	str	r3, [r7, #32]

    /* Clear BERR flag */
    __HAL_I2C_CLEAR_FLAG(hi2c, I2C_FLAG_BERR);
 8004d2c:	68fb      	ldr	r3, [r7, #12]
 8004d2e:	681b      	ldr	r3, [r3, #0]
 8004d30:	f44f 7280 	mov.w	r2, #256	@ 0x100
 8004d34:	61da      	str	r2, [r3, #28]

    status = HAL_ERROR;
 8004d36:	2301      	movs	r3, #1
 8004d38:	f887 3027 	strb.w	r3, [r7, #39]	@ 0x27
  }

  /* Check if an Over-Run/Under-Run error occurred */
  if (HAL_IS_BIT_SET(itflag, I2C_FLAG_OVR))
 8004d3c:	69bb      	ldr	r3, [r7, #24]
 8004d3e:	f403 6380 	and.w	r3, r3, #1024	@ 0x400
 8004d42:	2b00      	cmp	r3, #0
 8004d44:	d00b      	beq.n	8004d5e <I2C_IsErrorOccurred+0x14a>
  {
    error_code |= HAL_I2C_ERROR_OVR;
 8004d46:	6a3b      	ldr	r3, [r7, #32]
 8004d48:	f043 0308 	orr.w	r3, r3, #8
 8004d4c:	623b      	str	r3, [r7, #32]

    /* Clear OVR flag */
    __HAL_I2C_CLEAR_FLAG(hi2c, I2C_FLAG_OVR);
 8004d4e:	68fb      	ldr	r3, [r7, #12]
 8004d50:	681b      	ldr	r3, [r3, #0]
 8004d52:	f44f 6280 	mov.w	r2, #1024	@ 0x400
 8004d56:	61da      	str	r2, [r3, #28]

    status = HAL_ERROR;
 8004d58:	2301      	movs	r3, #1
 8004d5a:	f887 3027 	strb.w	r3, [r7, #39]	@ 0x27
  }

  /* Check if an Arbitration Loss error occurred */
  if (HAL_IS_BIT_SET(itflag, I2C_FLAG_ARLO))
 8004d5e:	69bb      	ldr	r3, [r7, #24]
 8004d60:	f403 7300 	and.w	r3, r3, #512	@ 0x200
 8004d64:	2b00      	cmp	r3, #0
 8004d66:	d00b      	beq.n	8004d80 <I2C_IsErrorOccurred+0x16c>
  {
    error_code |= HAL_I2C_ERROR_ARLO;
 8004d68:	6a3b      	ldr	r3, [r7, #32]
 8004d6a:	f043 0302 	orr.w	r3, r3, #2
 8004d6e:	623b      	str	r3, [r7, #32]

    /* Clear ARLO flag */
    __HAL_I2C_CLEAR_FLAG(hi2c, I2C_FLAG_ARLO);
 8004d70:	68fb      	ldr	r3, [r7, #12]
 8004d72:	681b      	ldr	r3, [r3, #0]
 8004d74:	f44f 7200 	mov.w	r2, #512	@ 0x200
 8004d78:	61da      	str	r2, [r3, #28]

    status = HAL_ERROR;
 8004d7a:	2301      	movs	r3, #1
 8004d7c:	f887 3027 	strb.w	r3, [r7, #39]	@ 0x27
  }

  if (status != HAL_OK)
 8004d80:	f897 3027 	ldrb.w	r3, [r7, #39]	@ 0x27
 8004d84:	2b00      	cmp	r3, #0
 8004d86:	d01c      	beq.n	8004dc2 <I2C_IsErrorOccurred+0x1ae>
  {
    /* Flush TX register */
    I2C_Flush_TXDR(hi2c);
 8004d88:	68f8      	ldr	r0, [r7, #12]
 8004d8a:	f7ff fe45 	bl	8004a18 <I2C_Flush_TXDR>

    /* Clear Configuration Register 2 */
    I2C_RESET_CR2(hi2c);
 8004d8e:	68fb      	ldr	r3, [r7, #12]
 8004d90:	681b      	ldr	r3, [r3, #0]
 8004d92:	6859      	ldr	r1, [r3, #4]
 8004d94:	68fb      	ldr	r3, [r7, #12]
 8004d96:	681a      	ldr	r2, [r3, #0]
 8004d98:	4b0d      	ldr	r3, [pc, #52]	@ (8004dd0 <I2C_IsErrorOccurred+0x1bc>)
 8004d9a:	400b      	ands	r3, r1
 8004d9c:	6053      	str	r3, [r2, #4]

    hi2c->ErrorCode |= error_code;
 8004d9e:	68fb      	ldr	r3, [r7, #12]
 8004da0:	6c5a      	ldr	r2, [r3, #68]	@ 0x44
 8004da2:	6a3b      	ldr	r3, [r7, #32]
 8004da4:	431a      	orrs	r2, r3
 8004da6:	68fb      	ldr	r3, [r7, #12]
 8004da8:	645a      	str	r2, [r3, #68]	@ 0x44
    hi2c->State = HAL_I2C_STATE_READY;
 8004daa:	68fb      	ldr	r3, [r7, #12]
 8004dac:	2220      	movs	r2, #32
 8004dae:	f883 2041 	strb.w	r2, [r3, #65]	@ 0x41
    hi2c->Mode = HAL_I2C_MODE_NONE;
 8004db2:	68fb      	ldr	r3, [r7, #12]
 8004db4:	2200      	movs	r2, #0
 8004db6:	f883 2042 	strb.w	r2, [r3, #66]	@ 0x42

    /* Process Unlocked */
    __HAL_UNLOCK(hi2c);
 8004dba:	68fb      	ldr	r3, [r7, #12]
 8004dbc:	2200      	movs	r2, #0
 8004dbe:	f883 2040 	strb.w	r2, [r3, #64]	@ 0x40
  }

  return status;
 8004dc2:	f897 3027 	ldrb.w	r3, [r7, #39]	@ 0x27
}
 8004dc6:	4618      	mov	r0, r3
 8004dc8:	3728      	adds	r7, #40	@ 0x28
 8004dca:	46bd      	mov	sp, r7
 8004dcc:	bd80      	pop	{r7, pc}
 8004dce:	bf00      	nop
 8004dd0:	fe00e800 	.word	0xfe00e800

08004dd4 <I2C_TransferConfig>:
  *     @arg @ref I2C_GENERATE_START_WRITE Generate Restart for write request.
  * @retval None
  */
static void I2C_TransferConfig(I2C_HandleTypeDef *hi2c, uint16_t DevAddress, uint8_t Size, uint32_t Mode,
                               uint32_t Request)
{
 8004dd4:	b480      	push	{r7}
 8004dd6:	b087      	sub	sp, #28
 8004dd8:	af00      	add	r7, sp, #0
 8004dda:	60f8      	str	r0, [r7, #12]
 8004ddc:	607b      	str	r3, [r7, #4]
 8004dde:	460b      	mov	r3, r1
 8004de0:	817b      	strh	r3, [r7, #10]
 8004de2:	4613      	mov	r3, r2
 8004de4:	727b      	strb	r3, [r7, #9]
  assert_param(IS_I2C_ALL_INSTANCE(hi2c->Instance));
  assert_param(IS_TRANSFER_MODE(Mode));
  assert_param(IS_TRANSFER_REQUEST(Request));

  /* Declaration of tmp to prevent undefined behavior of volatile usage */
  uint32_t tmp = ((uint32_t)(((uint32_t)DevAddress & I2C_CR2_SADD) | \
 8004de6:	897b      	ldrh	r3, [r7, #10]
 8004de8:	f3c3 0209 	ubfx	r2, r3, #0, #10
                             (((uint32_t)Size << I2C_CR2_NBYTES_Pos) & I2C_CR2_NBYTES) | \
 8004dec:	7a7b      	ldrb	r3, [r7, #9]
 8004dee:	041b      	lsls	r3, r3, #16
 8004df0:	f403 037f 	and.w	r3, r3, #16711680	@ 0xff0000
  uint32_t tmp = ((uint32_t)(((uint32_t)DevAddress & I2C_CR2_SADD) | \
 8004df4:	431a      	orrs	r2, r3
                             (((uint32_t)Size << I2C_CR2_NBYTES_Pos) & I2C_CR2_NBYTES) | \
 8004df6:	687b      	ldr	r3, [r7, #4]
 8004df8:	431a      	orrs	r2, r3
  uint32_t tmp = ((uint32_t)(((uint32_t)DevAddress & I2C_CR2_SADD) | \
 8004dfa:	6a3b      	ldr	r3, [r7, #32]
 8004dfc:	4313      	orrs	r3, r2
 8004dfe:	f023 4300 	bic.w	r3, r3, #2147483648	@ 0x80000000
 8004e02:	617b      	str	r3, [r7, #20]
                             (uint32_t)Mode | (uint32_t)Request) & (~0x80000000U));

  /* update CR2 register */
  MODIFY_REG(hi2c->Instance->CR2, \
 8004e04:	68fb      	ldr	r3, [r7, #12]
 8004e06:	681b      	ldr	r3, [r3, #0]
 8004e08:	685a      	ldr	r2, [r3, #4]
 8004e0a:	6a3b      	ldr	r3, [r7, #32]
 8004e0c:	0d5b      	lsrs	r3, r3, #21
 8004e0e:	f403 6180 	and.w	r1, r3, #1024	@ 0x400
 8004e12:	4b08      	ldr	r3, [pc, #32]	@ (8004e34 <I2C_TransferConfig+0x60>)
 8004e14:	430b      	orrs	r3, r1
 8004e16:	43db      	mvns	r3, r3
 8004e18:	ea02 0103 	and.w	r1, r2, r3
 8004e1c:	68fb      	ldr	r3, [r7, #12]
 8004e1e:	681b      	ldr	r3, [r3, #0]
 8004e20:	697a      	ldr	r2, [r7, #20]
 8004e22:	430a      	orrs	r2, r1
 8004e24:	605a      	str	r2, [r3, #4]
             ((I2C_CR2_SADD | I2C_CR2_NBYTES | I2C_CR2_RELOAD | I2C_CR2_AUTOEND | \
               (I2C_CR2_RD_WRN & (uint32_t)(Request >> (31U - I2C_CR2_RD_WRN_Pos))) | \
               I2C_CR2_START | I2C_CR2_STOP)), tmp);
}
 8004e26:	bf00      	nop
 8004e28:	371c      	adds	r7, #28
 8004e2a:	46bd      	mov	sp, r7
 8004e2c:	f85d 7b04 	ldr.w	r7, [sp], #4
 8004e30:	4770      	bx	lr
 8004e32:	bf00      	nop
 8004e34:	03ff63ff 	.word	0x03ff63ff

08004e38 <HAL_I2CEx_ConfigAnalogFilter>:
  *                the configuration information for the specified I2Cx peripheral.
  * @param  AnalogFilter New state of the Analog filter.
  * @retval HAL status
  */
HAL_StatusTypeDef HAL_I2CEx_ConfigAnalogFilter(I2C_HandleTypeDef *hi2c, uint32_t AnalogFilter)
{
 8004e38:	b480      	push	{r7}
 8004e3a:	b083      	sub	sp, #12
 8004e3c:	af00      	add	r7, sp, #0
 8004e3e:	6078      	str	r0, [r7, #4]
 8004e40:	6039      	str	r1, [r7, #0]
  /* Check the parameters */
  assert_param(IS_I2C_ALL_INSTANCE(hi2c->Instance));
  assert_param(IS_I2C_ANALOG_FILTER(AnalogFilter));

  if (hi2c->State == HAL_I2C_STATE_READY)
 8004e42:	687b      	ldr	r3, [r7, #4]
 8004e44:	f893 3041 	ldrb.w	r3, [r3, #65]	@ 0x41
 8004e48:	b2db      	uxtb	r3, r3
 8004e4a:	2b20      	cmp	r3, #32
 8004e4c:	d138      	bne.n	8004ec0 <HAL_I2CEx_ConfigAnalogFilter+0x88>
  {
    /* Process Locked */
    __HAL_LOCK(hi2c);
 8004e4e:	687b      	ldr	r3, [r7, #4]
 8004e50:	f893 3040 	ldrb.w	r3, [r3, #64]	@ 0x40
 8004e54:	2b01      	cmp	r3, #1
 8004e56:	d101      	bne.n	8004e5c <HAL_I2CEx_ConfigAnalogFilter+0x24>
 8004e58:	2302      	movs	r3, #2
 8004e5a:	e032      	b.n	8004ec2 <HAL_I2CEx_ConfigAnalogFilter+0x8a>
 8004e5c:	687b      	ldr	r3, [r7, #4]
 8004e5e:	2201      	movs	r2, #1
 8004e60:	f883 2040 	strb.w	r2, [r3, #64]	@ 0x40

    hi2c->State = HAL_I2C_STATE_BUSY;
 8004e64:	687b      	ldr	r3, [r7, #4]
 8004e66:	2224      	movs	r2, #36	@ 0x24
 8004e68:	f883 2041 	strb.w	r2, [r3, #65]	@ 0x41

    /* Disable the selected I2C peripheral */
    __HAL_I2C_DISABLE(hi2c);
 8004e6c:	687b      	ldr	r3, [r7, #4]
 8004e6e:	681b      	ldr	r3, [r3, #0]
 8004e70:	681a      	ldr	r2, [r3, #0]
 8004e72:	687b      	ldr	r3, [r7, #4]
 8004e74:	681b      	ldr	r3, [r3, #0]
 8004e76:	f022 0201 	bic.w	r2, r2, #1
 8004e7a:	601a      	str	r2, [r3, #0]

    /* Reset I2Cx ANOFF bit */
    hi2c->Instance->CR1 &= ~(I2C_CR1_ANFOFF);
 8004e7c:	687b      	ldr	r3, [r7, #4]
 8004e7e:	681b      	ldr	r3, [r3, #0]
 8004e80:	681a      	ldr	r2, [r3, #0]
 8004e82:	687b      	ldr	r3, [r7, #4]
 8004e84:	681b      	ldr	r3, [r3, #0]
 8004e86:	f422 5280 	bic.w	r2, r2, #4096	@ 0x1000
 8004e8a:	601a      	str	r2, [r3, #0]

    /* Set analog filter bit*/
    hi2c->Instance->CR1 |= AnalogFilter;
 8004e8c:	687b      	ldr	r3, [r7, #4]
 8004e8e:	681b      	ldr	r3, [r3, #0]
 8004e90:	6819      	ldr	r1, [r3, #0]
 8004e92:	687b      	ldr	r3, [r7, #4]
 8004e94:	681b      	ldr	r3, [r3, #0]
 8004e96:	683a      	ldr	r2, [r7, #0]
 8004e98:	430a      	orrs	r2, r1
 8004e9a:	601a      	str	r2, [r3, #0]

    __HAL_I2C_ENABLE(hi2c);
 8004e9c:	687b      	ldr	r3, [r7, #4]
 8004e9e:	681b      	ldr	r3, [r3, #0]
 8004ea0:	681a      	ldr	r2, [r3, #0]
 8004ea2:	687b      	ldr	r3, [r7, #4]
 8004ea4:	681b      	ldr	r3, [r3, #0]
 8004ea6:	f042 0201 	orr.w	r2, r2, #1
 8004eaa:	601a      	str	r2, [r3, #0]

    hi2c->State = HAL_I2C_STATE_READY;
 8004eac:	687b      	ldr	r3, [r7, #4]
 8004eae:	2220      	movs	r2, #32
 8004eb0:	f883 2041 	strb.w	r2, [r3, #65]	@ 0x41

    /* Process Unlocked */
    __HAL_UNLOCK(hi2c);
 8004eb4:	687b      	ldr	r3, [r7, #4]
 8004eb6:	2200      	movs	r2, #0
 8004eb8:	f883 2040 	strb.w	r2, [r3, #64]	@ 0x40

    return HAL_OK;
 8004ebc:	2300      	movs	r3, #0
 8004ebe:	e000      	b.n	8004ec2 <HAL_I2CEx_ConfigAnalogFilter+0x8a>
  }
  else
  {
    return HAL_BUSY;
 8004ec0:	2302      	movs	r3, #2
  }
}
 8004ec2:	4618      	mov	r0, r3
 8004ec4:	370c      	adds	r7, #12
 8004ec6:	46bd      	mov	sp, r7
 8004ec8:	f85d 7b04 	ldr.w	r7, [sp], #4
 8004ecc:	4770      	bx	lr
	...

08004ed0 <HAL_RCC_GetSysClockFreq>:
  *
  *
  * @retval SYSCLK frequency
  */
uint32_t HAL_RCC_GetSysClockFreq(void)
{
 8004ed0:	b480      	push	{r7}
 8004ed2:	b089      	sub	sp, #36	@ 0x24
 8004ed4:	af00      	add	r7, sp, #0
  uint32_t msirange = 0U, sysclockfreq = 0U;
 8004ed6:	2300      	movs	r3, #0
 8004ed8:	61fb      	str	r3, [r7, #28]
 8004eda:	2300      	movs	r3, #0
 8004edc:	61bb      	str	r3, [r7, #24]
  uint32_t pllvco, pllsource, pllr, pllm;    /* no init needed */
  uint32_t sysclk_source, pll_oscsource;

  sysclk_source = __HAL_RCC_GET_SYSCLK_SOURCE();
 8004ede:	4b3e      	ldr	r3, [pc, #248]	@ (8004fd8 <HAL_RCC_GetSysClockFreq+0x108>)
 8004ee0:	689b      	ldr	r3, [r3, #8]
 8004ee2:	f003 030c 	and.w	r3, r3, #12
 8004ee6:	613b      	str	r3, [r7, #16]
  pll_oscsource = __HAL_RCC_GET_PLL_OSCSOURCE();
 8004ee8:	4b3b      	ldr	r3, [pc, #236]	@ (8004fd8 <HAL_RCC_GetSysClockFreq+0x108>)
 8004eea:	68db      	ldr	r3, [r3, #12]
 8004eec:	f003 0303 	and.w	r3, r3, #3
 8004ef0:	60fb      	str	r3, [r7, #12]

  if((sysclk_source == RCC_CFGR_SWS_MSI) ||
 8004ef2:	693b      	ldr	r3, [r7, #16]
 8004ef4:	2b00      	cmp	r3, #0
 8004ef6:	d005      	beq.n	8004f04 <HAL_RCC_GetSysClockFreq+0x34>
 8004ef8:	693b      	ldr	r3, [r7, #16]
 8004efa:	2b0c      	cmp	r3, #12
 8004efc:	d121      	bne.n	8004f42 <HAL_RCC_GetSysClockFreq+0x72>
     ((sysclk_source == RCC_CFGR_SWS_PLL) && (pll_oscsource == RCC_PLLSOURCE_MSI)))
 8004efe:	68fb      	ldr	r3, [r7, #12]
 8004f00:	2b01      	cmp	r3, #1
 8004f02:	d11e      	bne.n	8004f42 <HAL_RCC_GetSysClockFreq+0x72>
  {
    /* MSI or PLL with MSI source used as system clock source */

    /* Get SYSCLK source */
    if(READ_BIT(RCC->CR, RCC_CR_MSIRGSEL) == 0U)
 8004f04:	4b34      	ldr	r3, [pc, #208]	@ (8004fd8 <HAL_RCC_GetSysClockFreq+0x108>)
 8004f06:	681b      	ldr	r3, [r3, #0]
 8004f08:	f003 0308 	and.w	r3, r3, #8
 8004f0c:	2b00      	cmp	r3, #0
 8004f0e:	d107      	bne.n	8004f20 <HAL_RCC_GetSysClockFreq+0x50>
    { /* MSISRANGE from RCC_CSR applies */
      msirange = READ_BIT(RCC->CSR, RCC_CSR_MSISRANGE) >> RCC_CSR_MSISRANGE_Pos;
 8004f10:	4b31      	ldr	r3, [pc, #196]	@ (8004fd8 <HAL_RCC_GetSysClockFreq+0x108>)
 8004f12:	f8d3 3094 	ldr.w	r3, [r3, #148]	@ 0x94
 8004f16:	0a1b      	lsrs	r3, r3, #8
 8004f18:	f003 030f 	and.w	r3, r3, #15
 8004f1c:	61fb      	str	r3, [r7, #28]
 8004f1e:	e005      	b.n	8004f2c <HAL_RCC_GetSysClockFreq+0x5c>
    }
    else
    { /* MSIRANGE from RCC_CR applies */
      msirange = READ_BIT(RCC->CR, RCC_CR_MSIRANGE) >> RCC_CR_MSIRANGE_Pos;
 8004f20:	4b2d      	ldr	r3, [pc, #180]	@ (8004fd8 <HAL_RCC_GetSysClockFreq+0x108>)
 8004f22:	681b      	ldr	r3, [r3, #0]
 8004f24:	091b      	lsrs	r3, r3, #4
 8004f26:	f003 030f 	and.w	r3, r3, #15
 8004f2a:	61fb      	str	r3, [r7, #28]
    }
    /*MSI frequency range in HZ*/
    msirange = MSIRangeTable[msirange];
 8004f2c:	4a2b      	ldr	r2, [pc, #172]	@ (8004fdc <HAL_RCC_GetSysClockFreq+0x10c>)
 8004f2e:	69fb      	ldr	r3, [r7, #28]
 8004f30:	f852 3023 	ldr.w	r3, [r2, r3, lsl #2]
 8004f34:	61fb      	str	r3, [r7, #28]

    if(sysclk_source == RCC_CFGR_SWS_MSI)
 8004f36:	693b      	ldr	r3, [r7, #16]
 8004f38:	2b00      	cmp	r3, #0
 8004f3a:	d10d      	bne.n	8004f58 <HAL_RCC_GetSysClockFreq+0x88>
    {
      /* MSI used as system clock source */
      sysclockfreq = msirange;
 8004f3c:	69fb      	ldr	r3, [r7, #28]
 8004f3e:	61bb      	str	r3, [r7, #24]
    if(sysclk_source == RCC_CFGR_SWS_MSI)
 8004f40:	e00a      	b.n	8004f58 <HAL_RCC_GetSysClockFreq+0x88>
    }
  }
  else if(sysclk_source == RCC_CFGR_SWS_HSI)
 8004f42:	693b      	ldr	r3, [r7, #16]
 8004f44:	2b04      	cmp	r3, #4
 8004f46:	d102      	bne.n	8004f4e <HAL_RCC_GetSysClockFreq+0x7e>
  {
    /* HSI used as system clock source */
    sysclockfreq = HSI_VALUE;
 8004f48:	4b25      	ldr	r3, [pc, #148]	@ (8004fe0 <HAL_RCC_GetSysClockFreq+0x110>)
 8004f4a:	61bb      	str	r3, [r7, #24]
 8004f4c:	e004      	b.n	8004f58 <HAL_RCC_GetSysClockFreq+0x88>
  }
  else if(sysclk_source == RCC_CFGR_SWS_HSE)
 8004f4e:	693b      	ldr	r3, [r7, #16]
 8004f50:	2b08      	cmp	r3, #8
 8004f52:	d101      	bne.n	8004f58 <HAL_RCC_GetSysClockFreq+0x88>
  {
    /* HSE used as system clock source */
    sysclockfreq = HSE_VALUE;
 8004f54:	4b23      	ldr	r3, [pc, #140]	@ (8004fe4 <HAL_RCC_GetSysClockFreq+0x114>)
 8004f56:	61bb      	str	r3, [r7, #24]
  else
  {
    /* unexpected case: sysclockfreq at 0 */
  }

  if(sysclk_source == RCC_CFGR_SWS_PLL)
 8004f58:	693b      	ldr	r3, [r7, #16]
 8004f5a:	2b0c      	cmp	r3, #12
 8004f5c:	d134      	bne.n	8004fc8 <HAL_RCC_GetSysClockFreq+0xf8>
    /* PLL used as system clock  source */

    /* PLL_VCO = (HSE_VALUE or HSI_VALUE or MSI_VALUE) * PLLN / PLLM
    SYSCLK = PLL_VCO / PLLR
    */
    pllsource = READ_BIT(RCC->PLLCFGR, RCC_PLLCFGR_PLLSRC);
 8004f5e:	4b1e      	ldr	r3, [pc, #120]	@ (8004fd8 <HAL_RCC_GetSysClockFreq+0x108>)
 8004f60:	68db      	ldr	r3, [r3, #12]
 8004f62:	f003 0303 	and.w	r3, r3, #3
 8004f66:	60bb      	str	r3, [r7, #8]

    switch (pllsource)
 8004f68:	68bb      	ldr	r3, [r7, #8]
 8004f6a:	2b02      	cmp	r3, #2
 8004f6c:	d003      	beq.n	8004f76 <HAL_RCC_GetSysClockFreq+0xa6>
 8004f6e:	68bb      	ldr	r3, [r7, #8]
 8004f70:	2b03      	cmp	r3, #3
 8004f72:	d003      	beq.n	8004f7c <HAL_RCC_GetSysClockFreq+0xac>
 8004f74:	e005      	b.n	8004f82 <HAL_RCC_GetSysClockFreq+0xb2>
    {
    case RCC_PLLSOURCE_HSI:  /* HSI used as PLL clock source */
      pllvco = HSI_VALUE;
 8004f76:	4b1a      	ldr	r3, [pc, #104]	@ (8004fe0 <HAL_RCC_GetSysClockFreq+0x110>)
 8004f78:	617b      	str	r3, [r7, #20]
      break;
 8004f7a:	e005      	b.n	8004f88 <HAL_RCC_GetSysClockFreq+0xb8>

    case RCC_PLLSOURCE_HSE:  /* HSE used as PLL clock source */
      pllvco = HSE_VALUE;
 8004f7c:	4b19      	ldr	r3, [pc, #100]	@ (8004fe4 <HAL_RCC_GetSysClockFreq+0x114>)
 8004f7e:	617b      	str	r3, [r7, #20]
      break;
 8004f80:	e002      	b.n	8004f88 <HAL_RCC_GetSysClockFreq+0xb8>

    case RCC_PLLSOURCE_MSI:  /* MSI used as PLL clock source */
    default:
      pllvco = msirange;
 8004f82:	69fb      	ldr	r3, [r7, #28]
 8004f84:	617b      	str	r3, [r7, #20]
      break;
 8004f86:	bf00      	nop
    }
    pllm = (READ_BIT(RCC->PLLCFGR, RCC_PLLCFGR_PLLM) >> RCC_PLLCFGR_PLLM_Pos) + 1U ;
 8004f88:	4b13      	ldr	r3, [pc, #76]	@ (8004fd8 <HAL_RCC_GetSysClockFreq+0x108>)
 8004f8a:	68db      	ldr	r3, [r3, #12]
 8004f8c:	091b      	lsrs	r3, r3, #4
 8004f8e:	f003 030f 	and.w	r3, r3, #15
 8004f92:	3301      	adds	r3, #1
 8004f94:	607b      	str	r3, [r7, #4]
    pllvco = (pllvco * (READ_BIT(RCC->PLLCFGR, RCC_PLLCFGR_PLLN) >> RCC_PLLCFGR_PLLN_Pos)) / pllm;
 8004f96:	4b10      	ldr	r3, [pc, #64]	@ (8004fd8 <HAL_RCC_GetSysClockFreq+0x108>)
 8004f98:	68db      	ldr	r3, [r3, #12]
 8004f9a:	0a1b      	lsrs	r3, r3, #8
 8004f9c:	f003 037f 	and.w	r3, r3, #127	@ 0x7f
 8004fa0:	697a      	ldr	r2, [r7, #20]
 8004fa2:	fb03 f202 	mul.w	r2, r3, r2
 8004fa6:	687b      	ldr	r3, [r7, #4]
 8004fa8:	fbb2 f3f3 	udiv	r3, r2, r3
 8004fac:	617b      	str	r3, [r7, #20]
    pllr = ((READ_BIT(RCC->PLLCFGR, RCC_PLLCFGR_PLLR) >> RCC_PLLCFGR_PLLR_Pos) + 1U ) * 2U;
 8004fae:	4b0a      	ldr	r3, [pc, #40]	@ (8004fd8 <HAL_RCC_GetSysClockFreq+0x108>)
 8004fb0:	68db      	ldr	r3, [r3, #12]
 8004fb2:	0e5b      	lsrs	r3, r3, #25
 8004fb4:	f003 0303 	and.w	r3, r3, #3
 8004fb8:	3301      	adds	r3, #1
 8004fba:	005b      	lsls	r3, r3, #1
 8004fbc:	603b      	str	r3, [r7, #0]
    sysclockfreq = pllvco / pllr;
 8004fbe:	697a      	ldr	r2, [r7, #20]
 8004fc0:	683b      	ldr	r3, [r7, #0]
 8004fc2:	fbb2 f3f3 	udiv	r3, r2, r3
 8004fc6:	61bb      	str	r3, [r7, #24]
  }

  return sysclockfreq;
 8004fc8:	69bb      	ldr	r3, [r7, #24]
}
 8004fca:	4618      	mov	r0, r3
 8004fcc:	3724      	adds	r7, #36	@ 0x24
 8004fce:	46bd      	mov	sp, r7
 8004fd0:	f85d 7b04 	ldr.w	r7, [sp], #4
 8004fd4:	4770      	bx	lr
 8004fd6:	bf00      	nop
 8004fd8:	40021000 	.word	0x40021000
 8004fdc:	08009918 	.word	0x08009918
 8004fe0:	00f42400 	.word	0x00f42400
 8004fe4:	007a1200 	.word	0x007a1200

08004fe8 <HAL_RCC_GetHCLKFreq>:
  *
  * @note   The SystemCoreClock CMSIS variable is used to store System Clock Frequency.
  * @retval HCLK frequency in Hz
  */
uint32_t HAL_RCC_GetHCLKFreq(void)
{
 8004fe8:	b480      	push	{r7}
 8004fea:	af00      	add	r7, sp, #0
  return SystemCoreClock;
 8004fec:	4b03      	ldr	r3, [pc, #12]	@ (8004ffc <HAL_RCC_GetHCLKFreq+0x14>)
 8004fee:	681b      	ldr	r3, [r3, #0]
}
 8004ff0:	4618      	mov	r0, r3
 8004ff2:	46bd      	mov	sp, r7
 8004ff4:	f85d 7b04 	ldr.w	r7, [sp], #4
 8004ff8:	4770      	bx	lr
 8004ffa:	bf00      	nop
 8004ffc:	20000008 	.word	0x20000008

08005000 <HAL_RCC_GetPCLK1Freq>:
  * @note   Each time PCLK1 changes, this function must be called to update the
  *         right PCLK1 value. Otherwise, any configuration based on this function will be incorrect.
  * @retval PCLK1 frequency in Hz
  */
uint32_t HAL_RCC_GetPCLK1Freq(void)
{
 8005000:	b580      	push	{r7, lr}
 8005002:	af00      	add	r7, sp, #0
  /* Get HCLK source and Compute PCLK1 frequency ---------------------------*/
  return (HAL_RCC_GetHCLKFreq() >> (APBPrescTable[READ_BIT(RCC->CFGR, RCC_CFGR_PPRE1) >> RCC_CFGR_PPRE1_Pos] & 0x1FU));
 8005004:	f7ff fff0 	bl	8004fe8 <HAL_RCC_GetHCLKFreq>
 8005008:	4602      	mov	r2, r0
 800500a:	4b06      	ldr	r3, [pc, #24]	@ (8005024 <HAL_RCC_GetPCLK1Freq+0x24>)
 800500c:	689b      	ldr	r3, [r3, #8]
 800500e:	0a1b      	lsrs	r3, r3, #8
 8005010:	f003 0307 	and.w	r3, r3, #7
 8005014:	4904      	ldr	r1, [pc, #16]	@ (8005028 <HAL_RCC_GetPCLK1Freq+0x28>)
 8005016:	5ccb      	ldrb	r3, [r1, r3]
 8005018:	f003 031f 	and.w	r3, r3, #31
 800501c:	fa22 f303 	lsr.w	r3, r2, r3
}
 8005020:	4618      	mov	r0, r3
 8005022:	bd80      	pop	{r7, pc}
 8005024:	40021000 	.word	0x40021000
 8005028:	08009910 	.word	0x08009910

0800502c <HAL_RCC_GetPCLK2Freq>:
  * @note   Each time PCLK2 changes, this function must be called to update the
  *         right PCLK2 value. Otherwise, any configuration based on this function will be incorrect.
  * @retval PCLK2 frequency in Hz
  */
uint32_t HAL_RCC_GetPCLK2Freq(void)
{
 800502c:	b580      	push	{r7, lr}
 800502e:	af00      	add	r7, sp, #0
  /* Get HCLK source and Compute PCLK2 frequency ---------------------------*/
  return (HAL_RCC_GetHCLKFreq()>> (APBPrescTable[READ_BIT(RCC->CFGR, RCC_CFGR_PPRE2) >> RCC_CFGR_PPRE2_Pos] & 0x1FU));
 8005030:	f7ff ffda 	bl	8004fe8 <HAL_RCC_GetHCLKFreq>
 8005034:	4602      	mov	r2, r0
 8005036:	4b06      	ldr	r3, [pc, #24]	@ (8005050 <HAL_RCC_GetPCLK2Freq+0x24>)
 8005038:	689b      	ldr	r3, [r3, #8]
 800503a:	0adb      	lsrs	r3, r3, #11
 800503c:	f003 0307 	and.w	r3, r3, #7
 8005040:	4904      	ldr	r1, [pc, #16]	@ (8005054 <HAL_RCC_GetPCLK2Freq+0x28>)
 8005042:	5ccb      	ldrb	r3, [r1, r3]
 8005044:	f003 031f 	and.w	r3, r3, #31
 8005048:	fa22 f303 	lsr.w	r3, r2, r3
}
 800504c:	4618      	mov	r0, r3
 800504e:	bd80      	pop	{r7, pc}
 8005050:	40021000 	.word	0x40021000
 8005054:	08009910 	.word	0x08009910

08005058 <HAL_UART_Init>:
  *        parameters in the UART_InitTypeDef and initialize the associated handle.
  * @param huart UART handle.
  * @retval HAL status
  */
HAL_StatusTypeDef HAL_UART_Init(UART_HandleTypeDef *huart)
{
 8005058:	b580      	push	{r7, lr}
 800505a:	b082      	sub	sp, #8
 800505c:	af00      	add	r7, sp, #0
 800505e:	6078      	str	r0, [r7, #4]
  /* Check the UART handle allocation */
  if (huart == NULL)
 8005060:	687b      	ldr	r3, [r7, #4]
 8005062:	2b00      	cmp	r3, #0
 8005064:	d101      	bne.n	800506a <HAL_UART_Init+0x12>
  {
    return HAL_ERROR;
 8005066:	2301      	movs	r3, #1
 8005068:	e042      	b.n	80050f0 <HAL_UART_Init+0x98>
  {
    /* Check the parameters */
    assert_param((IS_UART_INSTANCE(huart->Instance)) || (IS_LPUART_INSTANCE(huart->Instance)));
  }

  if (huart->gState == HAL_UART_STATE_RESET)
 800506a:	687b      	ldr	r3, [r7, #4]
 800506c:	f8d3 3088 	ldr.w	r3, [r3, #136]	@ 0x88
 8005070:	2b00      	cmp	r3, #0
 8005072:	d106      	bne.n	8005082 <HAL_UART_Init+0x2a>
  {
    /* Allocate lock resource and initialize it */
    huart->Lock = HAL_UNLOCKED;
 8005074:	687b      	ldr	r3, [r7, #4]
 8005076:	2200      	movs	r2, #0
 8005078:	f883 2084 	strb.w	r2, [r3, #132]	@ 0x84

    /* Init the low level hardware */
    huart->MspInitCallback(huart);
#else
    /* Init the low level hardware : GPIO, CLOCK */
    HAL_UART_MspInit(huart);
 800507c:	6878      	ldr	r0, [r7, #4]
 800507e:	f000 f83b 	bl	80050f8 <HAL_UART_MspInit>
#endif /* (USE_HAL_UART_REGISTER_CALLBACKS) */
  }

  huart->gState = HAL_UART_STATE_BUSY;
 8005082:	687b      	ldr	r3, [r7, #4]
 8005084:	2224      	movs	r2, #36	@ 0x24
 8005086:	f8c3 2088 	str.w	r2, [r3, #136]	@ 0x88

  __HAL_UART_DISABLE(huart);
 800508a:	687b      	ldr	r3, [r7, #4]
 800508c:	681b      	ldr	r3, [r3, #0]
 800508e:	681a      	ldr	r2, [r3, #0]
 8005090:	687b      	ldr	r3, [r7, #4]
 8005092:	681b      	ldr	r3, [r3, #0]
 8005094:	f022 0201 	bic.w	r2, r2, #1
 8005098:	601a      	str	r2, [r3, #0]

  /* Perform advanced settings configuration */
  /* For some items, configuration requires to be done prior TE and RE bits are set */
  if (huart->AdvancedInit.AdvFeatureInit != UART_ADVFEATURE_NO_INIT)
 800509a:	687b      	ldr	r3, [r7, #4]
 800509c:	6a9b      	ldr	r3, [r3, #40]	@ 0x28
 800509e:	2b00      	cmp	r3, #0
 80050a0:	d002      	beq.n	80050a8 <HAL_UART_Init+0x50>
  {
    UART_AdvFeatureConfig(huart);
 80050a2:	6878      	ldr	r0, [r7, #4]
 80050a4:	f000 fbbc 	bl	8005820 <UART_AdvFeatureConfig>
  }

  /* Set the UART Communication parameters */
  if (UART_SetConfig(huart) == HAL_ERROR)
 80050a8:	6878      	ldr	r0, [r7, #4]
 80050aa:	f000 f8bd 	bl	8005228 <UART_SetConfig>
 80050ae:	4603      	mov	r3, r0
 80050b0:	2b01      	cmp	r3, #1
 80050b2:	d101      	bne.n	80050b8 <HAL_UART_Init+0x60>
  {
    return HAL_ERROR;
 80050b4:	2301      	movs	r3, #1
 80050b6:	e01b      	b.n	80050f0 <HAL_UART_Init+0x98>
  }

  /* In asynchronous mode, the following bits must be kept cleared:
  - LINEN and CLKEN bits in the USART_CR2 register,
  - SCEN, HDSEL and IREN  bits in the USART_CR3 register.*/
  CLEAR_BIT(huart->Instance->CR2, (USART_CR2_LINEN | USART_CR2_CLKEN));
 80050b8:	687b      	ldr	r3, [r7, #4]
 80050ba:	681b      	ldr	r3, [r3, #0]
 80050bc:	685a      	ldr	r2, [r3, #4]
 80050be:	687b      	ldr	r3, [r7, #4]
 80050c0:	681b      	ldr	r3, [r3, #0]
 80050c2:	f422 4290 	bic.w	r2, r2, #18432	@ 0x4800
 80050c6:	605a      	str	r2, [r3, #4]
  CLEAR_BIT(huart->Instance->CR3, (USART_CR3_SCEN | USART_CR3_HDSEL | USART_CR3_IREN));
 80050c8:	687b      	ldr	r3, [r7, #4]
 80050ca:	681b      	ldr	r3, [r3, #0]
 80050cc:	689a      	ldr	r2, [r3, #8]
 80050ce:	687b      	ldr	r3, [r7, #4]
 80050d0:	681b      	ldr	r3, [r3, #0]
 80050d2:	f022 022a 	bic.w	r2, r2, #42	@ 0x2a
 80050d6:	609a      	str	r2, [r3, #8]

  __HAL_UART_ENABLE(huart);
 80050d8:	687b      	ldr	r3, [r7, #4]
 80050da:	681b      	ldr	r3, [r3, #0]
 80050dc:	681a      	ldr	r2, [r3, #0]
 80050de:	687b      	ldr	r3, [r7, #4]
 80050e0:	681b      	ldr	r3, [r3, #0]
 80050e2:	f042 0201 	orr.w	r2, r2, #1
 80050e6:	601a      	str	r2, [r3, #0]

  /* TEACK and/or REACK to check before moving huart->gState and huart->RxState to Ready */
  return (UART_CheckIdleState(huart));
 80050e8:	6878      	ldr	r0, [r7, #4]
 80050ea:	f000 fc3b 	bl	8005964 <UART_CheckIdleState>
 80050ee:	4603      	mov	r3, r0
}
 80050f0:	4618      	mov	r0, r3
 80050f2:	3708      	adds	r7, #8
 80050f4:	46bd      	mov	sp, r7
 80050f6:	bd80      	pop	{r7, pc}

080050f8 <HAL_UART_MspInit>:
  * @brief Initialize the UART MSP.
  * @param huart UART handle.
  * @retval None
  */
__weak void HAL_UART_MspInit(UART_HandleTypeDef *huart)
{
 80050f8:	b480      	push	{r7}
 80050fa:	b083      	sub	sp, #12
 80050fc:	af00      	add	r7, sp, #0
 80050fe:	6078      	str	r0, [r7, #4]
  UNUSED(huart);

  /* NOTE : This function should not be modified, when the callback is needed,
            the HAL_UART_MspInit can be implemented in the user file
   */
}
 8005100:	bf00      	nop
 8005102:	370c      	adds	r7, #12
 8005104:	46bd      	mov	sp, r7
 8005106:	f85d 7b04 	ldr.w	r7, [sp], #4
 800510a:	4770      	bx	lr

0800510c <HAL_UART_Transmit>:
  * @param Size    Amount of data elements (u8 or u16) to be sent.
  * @param Timeout Timeout duration.
  * @retval HAL status
  */
HAL_StatusTypeDef HAL_UART_Transmit(UART_HandleTypeDef *huart, const uint8_t *pData, uint16_t Size, uint32_t Timeout)
{
 800510c:	b580      	push	{r7, lr}
 800510e:	b08a      	sub	sp, #40	@ 0x28
 8005110:	af02      	add	r7, sp, #8
 8005112:	60f8      	str	r0, [r7, #12]
 8005114:	60b9      	str	r1, [r7, #8]
 8005116:	603b      	str	r3, [r7, #0]
 8005118:	4613      	mov	r3, r2
 800511a:	80fb      	strh	r3, [r7, #6]
  const uint8_t  *pdata8bits;
  const uint16_t *pdata16bits;
  uint32_t tickstart;

  /* Check that a Tx process is not already ongoing */
  if (huart->gState == HAL_UART_STATE_READY)
 800511c:	68fb      	ldr	r3, [r7, #12]
 800511e:	f8d3 3088 	ldr.w	r3, [r3, #136]	@ 0x88
 8005122:	2b20      	cmp	r3, #32
 8005124:	d17b      	bne.n	800521e <HAL_UART_Transmit+0x112>
  {
    if ((pData == NULL) || (Size == 0U))
 8005126:	68bb      	ldr	r3, [r7, #8]
 8005128:	2b00      	cmp	r3, #0
 800512a:	d002      	beq.n	8005132 <HAL_UART_Transmit+0x26>
 800512c:	88fb      	ldrh	r3, [r7, #6]
 800512e:	2b00      	cmp	r3, #0
 8005130:	d101      	bne.n	8005136 <HAL_UART_Transmit+0x2a>
    {
      return  HAL_ERROR;
 8005132:	2301      	movs	r3, #1
 8005134:	e074      	b.n	8005220 <HAL_UART_Transmit+0x114>
    }

    huart->ErrorCode = HAL_UART_ERROR_NONE;
 8005136:	68fb      	ldr	r3, [r7, #12]
 8005138:	2200      	movs	r2, #0
 800513a:	f8c3 2090 	str.w	r2, [r3, #144]	@ 0x90
    huart->gState = HAL_UART_STATE_BUSY_TX;
 800513e:	68fb      	ldr	r3, [r7, #12]
 8005140:	2221      	movs	r2, #33	@ 0x21
 8005142:	f8c3 2088 	str.w	r2, [r3, #136]	@ 0x88

    /* Init tickstart for timeout management */
    tickstart = HAL_GetTick();
 8005146:	f7fd fcc5 	bl	8002ad4 <HAL_GetTick>
 800514a:	6178      	str	r0, [r7, #20]

    huart->TxXferSize  = Size;
 800514c:	68fb      	ldr	r3, [r7, #12]
 800514e:	88fa      	ldrh	r2, [r7, #6]
 8005150:	f8a3 2054 	strh.w	r2, [r3, #84]	@ 0x54
    huart->TxXferCount = Size;
 8005154:	68fb      	ldr	r3, [r7, #12]
 8005156:	88fa      	ldrh	r2, [r7, #6]
 8005158:	f8a3 2056 	strh.w	r2, [r3, #86]	@ 0x56

    /* In case of 9bits/No Parity transfer, pData needs to be handled as a uint16_t pointer */
    if ((huart->Init.WordLength == UART_WORDLENGTH_9B) && (huart->Init.Parity == UART_PARITY_NONE))
 800515c:	68fb      	ldr	r3, [r7, #12]
 800515e:	689b      	ldr	r3, [r3, #8]
 8005160:	f5b3 5f80 	cmp.w	r3, #4096	@ 0x1000
 8005164:	d108      	bne.n	8005178 <HAL_UART_Transmit+0x6c>
 8005166:	68fb      	ldr	r3, [r7, #12]
 8005168:	691b      	ldr	r3, [r3, #16]
 800516a:	2b00      	cmp	r3, #0
 800516c:	d104      	bne.n	8005178 <HAL_UART_Transmit+0x6c>
    {
      pdata8bits  = NULL;
 800516e:	2300      	movs	r3, #0
 8005170:	61fb      	str	r3, [r7, #28]
      pdata16bits = (const uint16_t *) pData;
 8005172:	68bb      	ldr	r3, [r7, #8]
 8005174:	61bb      	str	r3, [r7, #24]
 8005176:	e003      	b.n	8005180 <HAL_UART_Transmit+0x74>
    }
    else
    {
      pdata8bits  = pData;
 8005178:	68bb      	ldr	r3, [r7, #8]
 800517a:	61fb      	str	r3, [r7, #28]
      pdata16bits = NULL;
 800517c:	2300      	movs	r3, #0
 800517e:	61bb      	str	r3, [r7, #24]
    }

    while (huart->TxXferCount > 0U)
 8005180:	e030      	b.n	80051e4 <HAL_UART_Transmit+0xd8>
    {
      if (UART_WaitOnFlagUntilTimeout(huart, UART_FLAG_TXE, RESET, tickstart, Timeout) != HAL_OK)
 8005182:	683b      	ldr	r3, [r7, #0]
 8005184:	9300      	str	r3, [sp, #0]
 8005186:	697b      	ldr	r3, [r7, #20]
 8005188:	2200      	movs	r2, #0
 800518a:	2180      	movs	r1, #128	@ 0x80
 800518c:	68f8      	ldr	r0, [r7, #12]
 800518e:	f000 fc93 	bl	8005ab8 <UART_WaitOnFlagUntilTimeout>
 8005192:	4603      	mov	r3, r0
 8005194:	2b00      	cmp	r3, #0
 8005196:	d005      	beq.n	80051a4 <HAL_UART_Transmit+0x98>
      {

        huart->gState = HAL_UART_STATE_READY;
 8005198:	68fb      	ldr	r3, [r7, #12]
 800519a:	2220      	movs	r2, #32
 800519c:	f8c3 2088 	str.w	r2, [r3, #136]	@ 0x88

        return HAL_TIMEOUT;
 80051a0:	2303      	movs	r3, #3
 80051a2:	e03d      	b.n	8005220 <HAL_UART_Transmit+0x114>
      }
      if (pdata8bits == NULL)
 80051a4:	69fb      	ldr	r3, [r7, #28]
 80051a6:	2b00      	cmp	r3, #0
 80051a8:	d10b      	bne.n	80051c2 <HAL_UART_Transmit+0xb6>
      {
        huart->Instance->TDR = (uint16_t)(*pdata16bits & 0x01FFU);
 80051aa:	69bb      	ldr	r3, [r7, #24]
 80051ac:	881a      	ldrh	r2, [r3, #0]
 80051ae:	68fb      	ldr	r3, [r7, #12]
 80051b0:	681b      	ldr	r3, [r3, #0]
 80051b2:	f3c2 0208 	ubfx	r2, r2, #0, #9
 80051b6:	b292      	uxth	r2, r2
 80051b8:	851a      	strh	r2, [r3, #40]	@ 0x28
        pdata16bits++;
 80051ba:	69bb      	ldr	r3, [r7, #24]
 80051bc:	3302      	adds	r3, #2
 80051be:	61bb      	str	r3, [r7, #24]
 80051c0:	e007      	b.n	80051d2 <HAL_UART_Transmit+0xc6>
      }
      else
      {
        huart->Instance->TDR = (uint8_t)(*pdata8bits & 0xFFU);
 80051c2:	69fb      	ldr	r3, [r7, #28]
 80051c4:	781a      	ldrb	r2, [r3, #0]
 80051c6:	68fb      	ldr	r3, [r7, #12]
 80051c8:	681b      	ldr	r3, [r3, #0]
 80051ca:	851a      	strh	r2, [r3, #40]	@ 0x28
        pdata8bits++;
 80051cc:	69fb      	ldr	r3, [r7, #28]
 80051ce:	3301      	adds	r3, #1
 80051d0:	61fb      	str	r3, [r7, #28]
      }
      huart->TxXferCount--;
 80051d2:	68fb      	ldr	r3, [r7, #12]
 80051d4:	f8b3 3056 	ldrh.w	r3, [r3, #86]	@ 0x56
 80051d8:	b29b      	uxth	r3, r3
 80051da:	3b01      	subs	r3, #1
 80051dc:	b29a      	uxth	r2, r3
 80051de:	68fb      	ldr	r3, [r7, #12]
 80051e0:	f8a3 2056 	strh.w	r2, [r3, #86]	@ 0x56
    while (huart->TxXferCount > 0U)
 80051e4:	68fb      	ldr	r3, [r7, #12]
 80051e6:	f8b3 3056 	ldrh.w	r3, [r3, #86]	@ 0x56
 80051ea:	b29b      	uxth	r3, r3
 80051ec:	2b00      	cmp	r3, #0
 80051ee:	d1c8      	bne.n	8005182 <HAL_UART_Transmit+0x76>
    }

    if (UART_WaitOnFlagUntilTimeout(huart, UART_FLAG_TC, RESET, tickstart, Timeout) != HAL_OK)
 80051f0:	683b      	ldr	r3, [r7, #0]
 80051f2:	9300      	str	r3, [sp, #0]
 80051f4:	697b      	ldr	r3, [r7, #20]
 80051f6:	2200      	movs	r2, #0
 80051f8:	2140      	movs	r1, #64	@ 0x40
 80051fa:	68f8      	ldr	r0, [r7, #12]
 80051fc:	f000 fc5c 	bl	8005ab8 <UART_WaitOnFlagUntilTimeout>
 8005200:	4603      	mov	r3, r0
 8005202:	2b00      	cmp	r3, #0
 8005204:	d005      	beq.n	8005212 <HAL_UART_Transmit+0x106>
    {
      huart->gState = HAL_UART_STATE_READY;
 8005206:	68fb      	ldr	r3, [r7, #12]
 8005208:	2220      	movs	r2, #32
 800520a:	f8c3 2088 	str.w	r2, [r3, #136]	@ 0x88

      return HAL_TIMEOUT;
 800520e:	2303      	movs	r3, #3
 8005210:	e006      	b.n	8005220 <HAL_UART_Transmit+0x114>
    }

    /* At end of Tx process, restore huart->gState to Ready */
    huart->gState = HAL_UART_STATE_READY;
 8005212:	68fb      	ldr	r3, [r7, #12]
 8005214:	2220      	movs	r2, #32
 8005216:	f8c3 2088 	str.w	r2, [r3, #136]	@ 0x88

    return HAL_OK;
 800521a:	2300      	movs	r3, #0
 800521c:	e000      	b.n	8005220 <HAL_UART_Transmit+0x114>
  }
  else
  {
    return HAL_BUSY;
 800521e:	2302      	movs	r3, #2
  }
}
 8005220:	4618      	mov	r0, r3
 8005222:	3720      	adds	r7, #32
 8005224:	46bd      	mov	sp, r7
 8005226:	bd80      	pop	{r7, pc}

08005228 <UART_SetConfig>:
  * @brief Configure the UART peripheral.
  * @param huart UART handle.
  * @retval HAL status
  */
HAL_StatusTypeDef UART_SetConfig(UART_HandleTypeDef *huart)
{
 8005228:	e92d 4fb0 	stmdb	sp!, {r4, r5, r7, r8, r9, sl, fp, lr}
 800522c:	b08c      	sub	sp, #48	@ 0x30
 800522e:	af00      	add	r7, sp, #0
 8005230:	6178      	str	r0, [r7, #20]
  uint32_t tmpreg;
  uint16_t brrtemp;
  UART_ClockSourceTypeDef clocksource;
  uint32_t usartdiv;
  HAL_StatusTypeDef ret               = HAL_OK;
 8005232:	2300      	movs	r3, #0
 8005234:	f887 302a 	strb.w	r3, [r7, #42]	@ 0x2a
  *  the UART Word Length, Parity, Mode and oversampling:
  *  set the M bits according to huart->Init.WordLength value
  *  set PCE and PS bits according to huart->Init.Parity value
  *  set TE and RE bits according to huart->Init.Mode value
  *  set OVER8 bit according to huart->Init.OverSampling value */
  tmpreg = (uint32_t)huart->Init.WordLength | huart->Init.Parity | huart->Init.Mode | huart->Init.OverSampling ;
 8005238:	697b      	ldr	r3, [r7, #20]
 800523a:	689a      	ldr	r2, [r3, #8]
 800523c:	697b      	ldr	r3, [r7, #20]
 800523e:	691b      	ldr	r3, [r3, #16]
 8005240:	431a      	orrs	r2, r3
 8005242:	697b      	ldr	r3, [r7, #20]
 8005244:	695b      	ldr	r3, [r3, #20]
 8005246:	431a      	orrs	r2, r3
 8005248:	697b      	ldr	r3, [r7, #20]
 800524a:	69db      	ldr	r3, [r3, #28]
 800524c:	4313      	orrs	r3, r2
 800524e:	62fb      	str	r3, [r7, #44]	@ 0x2c
  MODIFY_REG(huart->Instance->CR1, USART_CR1_FIELDS, tmpreg);
 8005250:	697b      	ldr	r3, [r7, #20]
 8005252:	681b      	ldr	r3, [r3, #0]
 8005254:	681a      	ldr	r2, [r3, #0]
 8005256:	4baa      	ldr	r3, [pc, #680]	@ (8005500 <UART_SetConfig+0x2d8>)
 8005258:	4013      	ands	r3, r2
 800525a:	697a      	ldr	r2, [r7, #20]
 800525c:	6812      	ldr	r2, [r2, #0]
 800525e:	6af9      	ldr	r1, [r7, #44]	@ 0x2c
 8005260:	430b      	orrs	r3, r1
 8005262:	6013      	str	r3, [r2, #0]

  /*-------------------------- USART CR2 Configuration -----------------------*/
  /* Configure the UART Stop Bits: Set STOP[13:12] bits according
  * to huart->Init.StopBits value */
  MODIFY_REG(huart->Instance->CR2, USART_CR2_STOP, huart->Init.StopBits);
 8005264:	697b      	ldr	r3, [r7, #20]
 8005266:	681b      	ldr	r3, [r3, #0]
 8005268:	685b      	ldr	r3, [r3, #4]
 800526a:	f423 5140 	bic.w	r1, r3, #12288	@ 0x3000
 800526e:	697b      	ldr	r3, [r7, #20]
 8005270:	68da      	ldr	r2, [r3, #12]
 8005272:	697b      	ldr	r3, [r7, #20]
 8005274:	681b      	ldr	r3, [r3, #0]
 8005276:	430a      	orrs	r2, r1
 8005278:	605a      	str	r2, [r3, #4]
  /* Configure
  * - UART HardWare Flow Control: set CTSE and RTSE bits according
  *   to huart->Init.HwFlowCtl value
  * - one-bit sampling method versus three samples' majority rule according
  *   to huart->Init.OneBitSampling (not applicable to LPUART) */
  tmpreg = (uint32_t)huart->Init.HwFlowCtl;
 800527a:	697b      	ldr	r3, [r7, #20]
 800527c:	699b      	ldr	r3, [r3, #24]
 800527e:	62fb      	str	r3, [r7, #44]	@ 0x2c

  if (!(UART_INSTANCE_LOWPOWER(huart)))
 8005280:	697b      	ldr	r3, [r7, #20]
 8005282:	681b      	ldr	r3, [r3, #0]
 8005284:	4a9f      	ldr	r2, [pc, #636]	@ (8005504 <UART_SetConfig+0x2dc>)
 8005286:	4293      	cmp	r3, r2
 8005288:	d004      	beq.n	8005294 <UART_SetConfig+0x6c>
  {
    tmpreg |= huart->Init.OneBitSampling;
 800528a:	697b      	ldr	r3, [r7, #20]
 800528c:	6a1b      	ldr	r3, [r3, #32]
 800528e:	6afa      	ldr	r2, [r7, #44]	@ 0x2c
 8005290:	4313      	orrs	r3, r2
 8005292:	62fb      	str	r3, [r7, #44]	@ 0x2c
  }
  MODIFY_REG(huart->Instance->CR3, USART_CR3_FIELDS, tmpreg);
 8005294:	697b      	ldr	r3, [r7, #20]
 8005296:	681b      	ldr	r3, [r3, #0]
 8005298:	689b      	ldr	r3, [r3, #8]
 800529a:	f023 436e 	bic.w	r3, r3, #3992977408	@ 0xee000000
 800529e:	f423 6330 	bic.w	r3, r3, #2816	@ 0xb00
 80052a2:	697a      	ldr	r2, [r7, #20]
 80052a4:	6812      	ldr	r2, [r2, #0]
 80052a6:	6af9      	ldr	r1, [r7, #44]	@ 0x2c
 80052a8:	430b      	orrs	r3, r1
 80052aa:	6093      	str	r3, [r2, #8]

#if defined(USART_PRESC_PRESCALER)
  /*-------------------------- USART PRESC Configuration -----------------------*/
  /* Configure
  * - UART Clock Prescaler : set PRESCALER according to huart->Init.ClockPrescaler value */
  MODIFY_REG(huart->Instance->PRESC, USART_PRESC_PRESCALER, huart->Init.ClockPrescaler);
 80052ac:	697b      	ldr	r3, [r7, #20]
 80052ae:	681b      	ldr	r3, [r3, #0]
 80052b0:	6adb      	ldr	r3, [r3, #44]	@ 0x2c
 80052b2:	f023 010f 	bic.w	r1, r3, #15
 80052b6:	697b      	ldr	r3, [r7, #20]
 80052b8:	6a5a      	ldr	r2, [r3, #36]	@ 0x24
 80052ba:	697b      	ldr	r3, [r7, #20]
 80052bc:	681b      	ldr	r3, [r3, #0]
 80052be:	430a      	orrs	r2, r1
 80052c0:	62da      	str	r2, [r3, #44]	@ 0x2c
#endif /* USART_PRESC_PRESCALER */

  /*-------------------------- USART BRR Configuration -----------------------*/
  UART_GETCLOCKSOURCE(huart, clocksource);
 80052c2:	697b      	ldr	r3, [r7, #20]
 80052c4:	681b      	ldr	r3, [r3, #0]
 80052c6:	4a90      	ldr	r2, [pc, #576]	@ (8005508 <UART_SetConfig+0x2e0>)
 80052c8:	4293      	cmp	r3, r2
 80052ca:	d125      	bne.n	8005318 <UART_SetConfig+0xf0>
 80052cc:	4b8f      	ldr	r3, [pc, #572]	@ (800550c <UART_SetConfig+0x2e4>)
 80052ce:	f8d3 3088 	ldr.w	r3, [r3, #136]	@ 0x88
 80052d2:	f003 0303 	and.w	r3, r3, #3
 80052d6:	2b03      	cmp	r3, #3
 80052d8:	d81a      	bhi.n	8005310 <UART_SetConfig+0xe8>
 80052da:	a201      	add	r2, pc, #4	@ (adr r2, 80052e0 <UART_SetConfig+0xb8>)
 80052dc:	f852 f023 	ldr.w	pc, [r2, r3, lsl #2]
 80052e0:	080052f1 	.word	0x080052f1
 80052e4:	08005301 	.word	0x08005301
 80052e8:	080052f9 	.word	0x080052f9
 80052ec:	08005309 	.word	0x08005309
 80052f0:	2301      	movs	r3, #1
 80052f2:	f887 302b 	strb.w	r3, [r7, #43]	@ 0x2b
 80052f6:	e116      	b.n	8005526 <UART_SetConfig+0x2fe>
 80052f8:	2302      	movs	r3, #2
 80052fa:	f887 302b 	strb.w	r3, [r7, #43]	@ 0x2b
 80052fe:	e112      	b.n	8005526 <UART_SetConfig+0x2fe>
 8005300:	2304      	movs	r3, #4
 8005302:	f887 302b 	strb.w	r3, [r7, #43]	@ 0x2b
 8005306:	e10e      	b.n	8005526 <UART_SetConfig+0x2fe>
 8005308:	2308      	movs	r3, #8
 800530a:	f887 302b 	strb.w	r3, [r7, #43]	@ 0x2b
 800530e:	e10a      	b.n	8005526 <UART_SetConfig+0x2fe>
 8005310:	2310      	movs	r3, #16
 8005312:	f887 302b 	strb.w	r3, [r7, #43]	@ 0x2b
 8005316:	e106      	b.n	8005526 <UART_SetConfig+0x2fe>
 8005318:	697b      	ldr	r3, [r7, #20]
 800531a:	681b      	ldr	r3, [r3, #0]
 800531c:	4a7c      	ldr	r2, [pc, #496]	@ (8005510 <UART_SetConfig+0x2e8>)
 800531e:	4293      	cmp	r3, r2
 8005320:	d138      	bne.n	8005394 <UART_SetConfig+0x16c>
 8005322:	4b7a      	ldr	r3, [pc, #488]	@ (800550c <UART_SetConfig+0x2e4>)
 8005324:	f8d3 3088 	ldr.w	r3, [r3, #136]	@ 0x88
 8005328:	f003 030c 	and.w	r3, r3, #12
 800532c:	2b0c      	cmp	r3, #12
 800532e:	d82d      	bhi.n	800538c <UART_SetConfig+0x164>
 8005330:	a201      	add	r2, pc, #4	@ (adr r2, 8005338 <UART_SetConfig+0x110>)
 8005332:	f852 f023 	ldr.w	pc, [r2, r3, lsl #2]
 8005336:	bf00      	nop
 8005338:	0800536d 	.word	0x0800536d
 800533c:	0800538d 	.word	0x0800538d
 8005340:	0800538d 	.word	0x0800538d
 8005344:	0800538d 	.word	0x0800538d
 8005348:	0800537d 	.word	0x0800537d
 800534c:	0800538d 	.word	0x0800538d
 8005350:	0800538d 	.word	0x0800538d
 8005354:	0800538d 	.word	0x0800538d
 8005358:	08005375 	.word	0x08005375
 800535c:	0800538d 	.word	0x0800538d
 8005360:	0800538d 	.word	0x0800538d
 8005364:	0800538d 	.word	0x0800538d
 8005368:	08005385 	.word	0x08005385
 800536c:	2300      	movs	r3, #0
 800536e:	f887 302b 	strb.w	r3, [r7, #43]	@ 0x2b
 8005372:	e0d8      	b.n	8005526 <UART_SetConfig+0x2fe>
 8005374:	2302      	movs	r3, #2
 8005376:	f887 302b 	strb.w	r3, [r7, #43]	@ 0x2b
 800537a:	e0d4      	b.n	8005526 <UART_SetConfig+0x2fe>
 800537c:	2304      	movs	r3, #4
 800537e:	f887 302b 	strb.w	r3, [r7, #43]	@ 0x2b
 8005382:	e0d0      	b.n	8005526 <UART_SetConfig+0x2fe>
 8005384:	2308      	movs	r3, #8
 8005386:	f887 302b 	strb.w	r3, [r7, #43]	@ 0x2b
 800538a:	e0cc      	b.n	8005526 <UART_SetConfig+0x2fe>
 800538c:	2310      	movs	r3, #16
 800538e:	f887 302b 	strb.w	r3, [r7, #43]	@ 0x2b
 8005392:	e0c8      	b.n	8005526 <UART_SetConfig+0x2fe>
 8005394:	697b      	ldr	r3, [r7, #20]
 8005396:	681b      	ldr	r3, [r3, #0]
 8005398:	4a5e      	ldr	r2, [pc, #376]	@ (8005514 <UART_SetConfig+0x2ec>)
 800539a:	4293      	cmp	r3, r2
 800539c:	d125      	bne.n	80053ea <UART_SetConfig+0x1c2>
 800539e:	4b5b      	ldr	r3, [pc, #364]	@ (800550c <UART_SetConfig+0x2e4>)
 80053a0:	f8d3 3088 	ldr.w	r3, [r3, #136]	@ 0x88
 80053a4:	f003 0330 	and.w	r3, r3, #48	@ 0x30
 80053a8:	2b30      	cmp	r3, #48	@ 0x30
 80053aa:	d016      	beq.n	80053da <UART_SetConfig+0x1b2>
 80053ac:	2b30      	cmp	r3, #48	@ 0x30
 80053ae:	d818      	bhi.n	80053e2 <UART_SetConfig+0x1ba>
 80053b0:	2b20      	cmp	r3, #32
 80053b2:	d00a      	beq.n	80053ca <UART_SetConfig+0x1a2>
 80053b4:	2b20      	cmp	r3, #32
 80053b6:	d814      	bhi.n	80053e2 <UART_SetConfig+0x1ba>
 80053b8:	2b00      	cmp	r3, #0
 80053ba:	d002      	beq.n	80053c2 <UART_SetConfig+0x19a>
 80053bc:	2b10      	cmp	r3, #16
 80053be:	d008      	beq.n	80053d2 <UART_SetConfig+0x1aa>
 80053c0:	e00f      	b.n	80053e2 <UART_SetConfig+0x1ba>
 80053c2:	2300      	movs	r3, #0
 80053c4:	f887 302b 	strb.w	r3, [r7, #43]	@ 0x2b
 80053c8:	e0ad      	b.n	8005526 <UART_SetConfig+0x2fe>
 80053ca:	2302      	movs	r3, #2
 80053cc:	f887 302b 	strb.w	r3, [r7, #43]	@ 0x2b
 80053d0:	e0a9      	b.n	8005526 <UART_SetConfig+0x2fe>
 80053d2:	2304      	movs	r3, #4
 80053d4:	f887 302b 	strb.w	r3, [r7, #43]	@ 0x2b
 80053d8:	e0a5      	b.n	8005526 <UART_SetConfig+0x2fe>
 80053da:	2308      	movs	r3, #8
 80053dc:	f887 302b 	strb.w	r3, [r7, #43]	@ 0x2b
 80053e0:	e0a1      	b.n	8005526 <UART_SetConfig+0x2fe>
 80053e2:	2310      	movs	r3, #16
 80053e4:	f887 302b 	strb.w	r3, [r7, #43]	@ 0x2b
 80053e8:	e09d      	b.n	8005526 <UART_SetConfig+0x2fe>
 80053ea:	697b      	ldr	r3, [r7, #20]
 80053ec:	681b      	ldr	r3, [r3, #0]
 80053ee:	4a4a      	ldr	r2, [pc, #296]	@ (8005518 <UART_SetConfig+0x2f0>)
 80053f0:	4293      	cmp	r3, r2
 80053f2:	d125      	bne.n	8005440 <UART_SetConfig+0x218>
 80053f4:	4b45      	ldr	r3, [pc, #276]	@ (800550c <UART_SetConfig+0x2e4>)
 80053f6:	f8d3 3088 	ldr.w	r3, [r3, #136]	@ 0x88
 80053fa:	f003 03c0 	and.w	r3, r3, #192	@ 0xc0
 80053fe:	2bc0      	cmp	r3, #192	@ 0xc0
 8005400:	d016      	beq.n	8005430 <UART_SetConfig+0x208>
 8005402:	2bc0      	cmp	r3, #192	@ 0xc0
 8005404:	d818      	bhi.n	8005438 <UART_SetConfig+0x210>
 8005406:	2b80      	cmp	r3, #128	@ 0x80
 8005408:	d00a      	beq.n	8005420 <UART_SetConfig+0x1f8>
 800540a:	2b80      	cmp	r3, #128	@ 0x80
 800540c:	d814      	bhi.n	8005438 <UART_SetConfig+0x210>
 800540e:	2b00      	cmp	r3, #0
 8005410:	d002      	beq.n	8005418 <UART_SetConfig+0x1f0>
 8005412:	2b40      	cmp	r3, #64	@ 0x40
 8005414:	d008      	beq.n	8005428 <UART_SetConfig+0x200>
 8005416:	e00f      	b.n	8005438 <UART_SetConfig+0x210>
 8005418:	2300      	movs	r3, #0
 800541a:	f887 302b 	strb.w	r3, [r7, #43]	@ 0x2b
 800541e:	e082      	b.n	8005526 <UART_SetConfig+0x2fe>
 8005420:	2302      	movs	r3, #2
 8005422:	f887 302b 	strb.w	r3, [r7, #43]	@ 0x2b
 8005426:	e07e      	b.n	8005526 <UART_SetConfig+0x2fe>
 8005428:	2304      	movs	r3, #4
 800542a:	f887 302b 	strb.w	r3, [r7, #43]	@ 0x2b
 800542e:	e07a      	b.n	8005526 <UART_SetConfig+0x2fe>
 8005430:	2308      	movs	r3, #8
 8005432:	f887 302b 	strb.w	r3, [r7, #43]	@ 0x2b
 8005436:	e076      	b.n	8005526 <UART_SetConfig+0x2fe>
 8005438:	2310      	movs	r3, #16
 800543a:	f887 302b 	strb.w	r3, [r7, #43]	@ 0x2b
 800543e:	e072      	b.n	8005526 <UART_SetConfig+0x2fe>
 8005440:	697b      	ldr	r3, [r7, #20]
 8005442:	681b      	ldr	r3, [r3, #0]
 8005444:	4a35      	ldr	r2, [pc, #212]	@ (800551c <UART_SetConfig+0x2f4>)
 8005446:	4293      	cmp	r3, r2
 8005448:	d12a      	bne.n	80054a0 <UART_SetConfig+0x278>
 800544a:	4b30      	ldr	r3, [pc, #192]	@ (800550c <UART_SetConfig+0x2e4>)
 800544c:	f8d3 3088 	ldr.w	r3, [r3, #136]	@ 0x88
 8005450:	f403 7340 	and.w	r3, r3, #768	@ 0x300
 8005454:	f5b3 7f40 	cmp.w	r3, #768	@ 0x300
 8005458:	d01a      	beq.n	8005490 <UART_SetConfig+0x268>
 800545a:	f5b3 7f40 	cmp.w	r3, #768	@ 0x300
 800545e:	d81b      	bhi.n	8005498 <UART_SetConfig+0x270>
 8005460:	f5b3 7f00 	cmp.w	r3, #512	@ 0x200
 8005464:	d00c      	beq.n	8005480 <UART_SetConfig+0x258>
 8005466:	f5b3 7f00 	cmp.w	r3, #512	@ 0x200
 800546a:	d815      	bhi.n	8005498 <UART_SetConfig+0x270>
 800546c:	2b00      	cmp	r3, #0
 800546e:	d003      	beq.n	8005478 <UART_SetConfig+0x250>
 8005470:	f5b3 7f80 	cmp.w	r3, #256	@ 0x100
 8005474:	d008      	beq.n	8005488 <UART_SetConfig+0x260>
 8005476:	e00f      	b.n	8005498 <UART_SetConfig+0x270>
 8005478:	2300      	movs	r3, #0
 800547a:	f887 302b 	strb.w	r3, [r7, #43]	@ 0x2b
 800547e:	e052      	b.n	8005526 <UART_SetConfig+0x2fe>
 8005480:	2302      	movs	r3, #2
 8005482:	f887 302b 	strb.w	r3, [r7, #43]	@ 0x2b
 8005486:	e04e      	b.n	8005526 <UART_SetConfig+0x2fe>
 8005488:	2304      	movs	r3, #4
 800548a:	f887 302b 	strb.w	r3, [r7, #43]	@ 0x2b
 800548e:	e04a      	b.n	8005526 <UART_SetConfig+0x2fe>
 8005490:	2308      	movs	r3, #8
 8005492:	f887 302b 	strb.w	r3, [r7, #43]	@ 0x2b
 8005496:	e046      	b.n	8005526 <UART_SetConfig+0x2fe>
 8005498:	2310      	movs	r3, #16
 800549a:	f887 302b 	strb.w	r3, [r7, #43]	@ 0x2b
 800549e:	e042      	b.n	8005526 <UART_SetConfig+0x2fe>
 80054a0:	697b      	ldr	r3, [r7, #20]
 80054a2:	681b      	ldr	r3, [r3, #0]
 80054a4:	4a17      	ldr	r2, [pc, #92]	@ (8005504 <UART_SetConfig+0x2dc>)
 80054a6:	4293      	cmp	r3, r2
 80054a8:	d13a      	bne.n	8005520 <UART_SetConfig+0x2f8>
 80054aa:	4b18      	ldr	r3, [pc, #96]	@ (800550c <UART_SetConfig+0x2e4>)
 80054ac:	f8d3 3088 	ldr.w	r3, [r3, #136]	@ 0x88
 80054b0:	f403 6340 	and.w	r3, r3, #3072	@ 0xc00
 80054b4:	f5b3 6f40 	cmp.w	r3, #3072	@ 0xc00
 80054b8:	d01a      	beq.n	80054f0 <UART_SetConfig+0x2c8>
 80054ba:	f5b3 6f40 	cmp.w	r3, #3072	@ 0xc00
 80054be:	d81b      	bhi.n	80054f8 <UART_SetConfig+0x2d0>
 80054c0:	f5b3 6f00 	cmp.w	r3, #2048	@ 0x800
 80054c4:	d00c      	beq.n	80054e0 <UART_SetConfig+0x2b8>
 80054c6:	f5b3 6f00 	cmp.w	r3, #2048	@ 0x800
 80054ca:	d815      	bhi.n	80054f8 <UART_SetConfig+0x2d0>
 80054cc:	2b00      	cmp	r3, #0
 80054ce:	d003      	beq.n	80054d8 <UART_SetConfig+0x2b0>
 80054d0:	f5b3 6f80 	cmp.w	r3, #1024	@ 0x400
 80054d4:	d008      	beq.n	80054e8 <UART_SetConfig+0x2c0>
 80054d6:	e00f      	b.n	80054f8 <UART_SetConfig+0x2d0>
 80054d8:	2300      	movs	r3, #0
 80054da:	f887 302b 	strb.w	r3, [r7, #43]	@ 0x2b
 80054de:	e022      	b.n	8005526 <UART_SetConfig+0x2fe>
 80054e0:	2302      	movs	r3, #2
 80054e2:	f887 302b 	strb.w	r3, [r7, #43]	@ 0x2b
 80054e6:	e01e      	b.n	8005526 <UART_SetConfig+0x2fe>
 80054e8:	2304      	movs	r3, #4
 80054ea:	f887 302b 	strb.w	r3, [r7, #43]	@ 0x2b
 80054ee:	e01a      	b.n	8005526 <UART_SetConfig+0x2fe>
 80054f0:	2308      	movs	r3, #8
 80054f2:	f887 302b 	strb.w	r3, [r7, #43]	@ 0x2b
 80054f6:	e016      	b.n	8005526 <UART_SetConfig+0x2fe>
 80054f8:	2310      	movs	r3, #16
 80054fa:	f887 302b 	strb.w	r3, [r7, #43]	@ 0x2b
 80054fe:	e012      	b.n	8005526 <UART_SetConfig+0x2fe>
 8005500:	cfff69f3 	.word	0xcfff69f3
 8005504:	40008000 	.word	0x40008000
 8005508:	40013800 	.word	0x40013800
 800550c:	40021000 	.word	0x40021000
 8005510:	40004400 	.word	0x40004400
 8005514:	40004800 	.word	0x40004800
 8005518:	40004c00 	.word	0x40004c00
 800551c:	40005000 	.word	0x40005000
 8005520:	2310      	movs	r3, #16
 8005522:	f887 302b 	strb.w	r3, [r7, #43]	@ 0x2b

  /* Check LPUART instance */
  if (UART_INSTANCE_LOWPOWER(huart))
 8005526:	697b      	ldr	r3, [r7, #20]
 8005528:	681b      	ldr	r3, [r3, #0]
 800552a:	4aae      	ldr	r2, [pc, #696]	@ (80057e4 <UART_SetConfig+0x5bc>)
 800552c:	4293      	cmp	r3, r2
 800552e:	f040 8097 	bne.w	8005660 <UART_SetConfig+0x438>
  {
    /* Retrieve frequency clock */
    switch (clocksource)
 8005532:	f897 302b 	ldrb.w	r3, [r7, #43]	@ 0x2b
 8005536:	2b08      	cmp	r3, #8
 8005538:	d823      	bhi.n	8005582 <UART_SetConfig+0x35a>
 800553a:	a201      	add	r2, pc, #4	@ (adr r2, 8005540 <UART_SetConfig+0x318>)
 800553c:	f852 f023 	ldr.w	pc, [r2, r3, lsl #2]
 8005540:	08005565 	.word	0x08005565
 8005544:	08005583 	.word	0x08005583
 8005548:	0800556d 	.word	0x0800556d
 800554c:	08005583 	.word	0x08005583
 8005550:	08005573 	.word	0x08005573
 8005554:	08005583 	.word	0x08005583
 8005558:	08005583 	.word	0x08005583
 800555c:	08005583 	.word	0x08005583
 8005560:	0800557b 	.word	0x0800557b
    {
      case UART_CLOCKSOURCE_PCLK1:
        pclk = HAL_RCC_GetPCLK1Freq();
 8005564:	f7ff fd4c 	bl	8005000 <HAL_RCC_GetPCLK1Freq>
 8005568:	6278      	str	r0, [r7, #36]	@ 0x24
        break;
 800556a:	e010      	b.n	800558e <UART_SetConfig+0x366>
      case UART_CLOCKSOURCE_HSI:
        pclk = (uint32_t) HSI_VALUE;
 800556c:	4b9e      	ldr	r3, [pc, #632]	@ (80057e8 <UART_SetConfig+0x5c0>)
 800556e:	627b      	str	r3, [r7, #36]	@ 0x24
        break;
 8005570:	e00d      	b.n	800558e <UART_SetConfig+0x366>
      case UART_CLOCKSOURCE_SYSCLK:
        pclk = HAL_RCC_GetSysClockFreq();
 8005572:	f7ff fcad 	bl	8004ed0 <HAL_RCC_GetSysClockFreq>
 8005576:	6278      	str	r0, [r7, #36]	@ 0x24
        break;
 8005578:	e009      	b.n	800558e <UART_SetConfig+0x366>
      case UART_CLOCKSOURCE_LSE:
        pclk = (uint32_t) LSE_VALUE;
 800557a:	f44f 4300 	mov.w	r3, #32768	@ 0x8000
 800557e:	627b      	str	r3, [r7, #36]	@ 0x24
        break;
 8005580:	e005      	b.n	800558e <UART_SetConfig+0x366>
      default:
        pclk = 0U;
 8005582:	2300      	movs	r3, #0
 8005584:	627b      	str	r3, [r7, #36]	@ 0x24
        ret = HAL_ERROR;
 8005586:	2301      	movs	r3, #1
 8005588:	f887 302a 	strb.w	r3, [r7, #42]	@ 0x2a
        break;
 800558c:	bf00      	nop
    }

    /* If proper clock source reported */
    if (pclk != 0U)
 800558e:	6a7b      	ldr	r3, [r7, #36]	@ 0x24
 8005590:	2b00      	cmp	r3, #0
 8005592:	f000 8130 	beq.w	80057f6 <UART_SetConfig+0x5ce>
    {
#if defined(USART_PRESC_PRESCALER)
      /* Compute clock after Prescaler */
      lpuart_ker_ck_pres = (pclk / UARTPrescTable[huart->Init.ClockPrescaler]);
 8005596:	697b      	ldr	r3, [r7, #20]
 8005598:	6a5b      	ldr	r3, [r3, #36]	@ 0x24
 800559a:	4a94      	ldr	r2, [pc, #592]	@ (80057ec <UART_SetConfig+0x5c4>)
 800559c:	f832 3013 	ldrh.w	r3, [r2, r3, lsl #1]
 80055a0:	461a      	mov	r2, r3
 80055a2:	6a7b      	ldr	r3, [r7, #36]	@ 0x24
 80055a4:	fbb3 f3f2 	udiv	r3, r3, r2
 80055a8:	61bb      	str	r3, [r7, #24]

      /* Ensure that Frequency clock is in the range [3 * baudrate, 4096 * baudrate] */
      if ((lpuart_ker_ck_pres < (3U * huart->Init.BaudRate)) ||
 80055aa:	697b      	ldr	r3, [r7, #20]
 80055ac:	685a      	ldr	r2, [r3, #4]
 80055ae:	4613      	mov	r3, r2
 80055b0:	005b      	lsls	r3, r3, #1
 80055b2:	4413      	add	r3, r2
 80055b4:	69ba      	ldr	r2, [r7, #24]
 80055b6:	429a      	cmp	r2, r3
 80055b8:	d305      	bcc.n	80055c6 <UART_SetConfig+0x39e>
          (lpuart_ker_ck_pres > (4096U * huart->Init.BaudRate)))
 80055ba:	697b      	ldr	r3, [r7, #20]
 80055bc:	685b      	ldr	r3, [r3, #4]
 80055be:	031b      	lsls	r3, r3, #12
      if ((lpuart_ker_ck_pres < (3U * huart->Init.BaudRate)) ||
 80055c0:	69ba      	ldr	r2, [r7, #24]
 80055c2:	429a      	cmp	r2, r3
 80055c4:	d903      	bls.n	80055ce <UART_SetConfig+0x3a6>
      {
        ret = HAL_ERROR;
 80055c6:	2301      	movs	r3, #1
 80055c8:	f887 302a 	strb.w	r3, [r7, #42]	@ 0x2a
 80055cc:	e113      	b.n	80057f6 <UART_SetConfig+0x5ce>
      }
      else
      {
        /* Check computed UsartDiv value is in allocated range
           (it is forbidden to write values lower than 0x300 in the LPUART_BRR register) */
        usartdiv = (uint32_t)(UART_DIV_LPUART(pclk, huart->Init.BaudRate, huart->Init.ClockPrescaler));
 80055ce:	6a7b      	ldr	r3, [r7, #36]	@ 0x24
 80055d0:	2200      	movs	r2, #0
 80055d2:	60bb      	str	r3, [r7, #8]
 80055d4:	60fa      	str	r2, [r7, #12]
 80055d6:	697b      	ldr	r3, [r7, #20]
 80055d8:	6a5b      	ldr	r3, [r3, #36]	@ 0x24
 80055da:	4a84      	ldr	r2, [pc, #528]	@ (80057ec <UART_SetConfig+0x5c4>)
 80055dc:	f832 3013 	ldrh.w	r3, [r2, r3, lsl #1]
 80055e0:	b29b      	uxth	r3, r3
 80055e2:	2200      	movs	r2, #0
 80055e4:	603b      	str	r3, [r7, #0]
 80055e6:	607a      	str	r2, [r7, #4]
 80055e8:	e9d7 2300 	ldrd	r2, r3, [r7]
 80055ec:	e9d7 0102 	ldrd	r0, r1, [r7, #8]
 80055f0:	f7fb fb0a 	bl	8000c08 <__aeabi_uldivmod>
 80055f4:	4602      	mov	r2, r0
 80055f6:	460b      	mov	r3, r1
 80055f8:	4610      	mov	r0, r2
 80055fa:	4619      	mov	r1, r3
 80055fc:	f04f 0200 	mov.w	r2, #0
 8005600:	f04f 0300 	mov.w	r3, #0
 8005604:	020b      	lsls	r3, r1, #8
 8005606:	ea43 6310 	orr.w	r3, r3, r0, lsr #24
 800560a:	0202      	lsls	r2, r0, #8
 800560c:	6979      	ldr	r1, [r7, #20]
 800560e:	6849      	ldr	r1, [r1, #4]
 8005610:	0849      	lsrs	r1, r1, #1
 8005612:	2000      	movs	r0, #0
 8005614:	460c      	mov	r4, r1
 8005616:	4605      	mov	r5, r0
 8005618:	eb12 0804 	adds.w	r8, r2, r4
 800561c:	eb43 0905 	adc.w	r9, r3, r5
 8005620:	697b      	ldr	r3, [r7, #20]
 8005622:	685b      	ldr	r3, [r3, #4]
 8005624:	2200      	movs	r2, #0
 8005626:	469a      	mov	sl, r3
 8005628:	4693      	mov	fp, r2
 800562a:	4652      	mov	r2, sl
 800562c:	465b      	mov	r3, fp
 800562e:	4640      	mov	r0, r8
 8005630:	4649      	mov	r1, r9
 8005632:	f7fb fae9 	bl	8000c08 <__aeabi_uldivmod>
 8005636:	4602      	mov	r2, r0
 8005638:	460b      	mov	r3, r1
 800563a:	4613      	mov	r3, r2
 800563c:	623b      	str	r3, [r7, #32]
        if ((usartdiv >= LPUART_BRR_MIN) && (usartdiv <= LPUART_BRR_MAX))
 800563e:	6a3b      	ldr	r3, [r7, #32]
 8005640:	f5b3 7f40 	cmp.w	r3, #768	@ 0x300
 8005644:	d308      	bcc.n	8005658 <UART_SetConfig+0x430>
 8005646:	6a3b      	ldr	r3, [r7, #32]
 8005648:	f5b3 1f80 	cmp.w	r3, #1048576	@ 0x100000
 800564c:	d204      	bcs.n	8005658 <UART_SetConfig+0x430>
        {
          huart->Instance->BRR = usartdiv;
 800564e:	697b      	ldr	r3, [r7, #20]
 8005650:	681b      	ldr	r3, [r3, #0]
 8005652:	6a3a      	ldr	r2, [r7, #32]
 8005654:	60da      	str	r2, [r3, #12]
 8005656:	e0ce      	b.n	80057f6 <UART_SetConfig+0x5ce>
        }
        else
        {
          ret = HAL_ERROR;
 8005658:	2301      	movs	r3, #1
 800565a:	f887 302a 	strb.w	r3, [r7, #42]	@ 0x2a
 800565e:	e0ca      	b.n	80057f6 <UART_SetConfig+0x5ce>
      } /* if ( (pclk < (3 * huart->Init.BaudRate) ) || (pclk > (4096 * huart->Init.BaudRate) )) */
#endif /* USART_PRESC_PRESCALER */
    } /* if (pclk != 0) */
  }
  /* Check UART Over Sampling to set Baud Rate Register */
  else if (huart->Init.OverSampling == UART_OVERSAMPLING_8)
 8005660:	697b      	ldr	r3, [r7, #20]
 8005662:	69db      	ldr	r3, [r3, #28]
 8005664:	f5b3 4f00 	cmp.w	r3, #32768	@ 0x8000
 8005668:	d166      	bne.n	8005738 <UART_SetConfig+0x510>
  {
    switch (clocksource)
 800566a:	f897 302b 	ldrb.w	r3, [r7, #43]	@ 0x2b
 800566e:	2b08      	cmp	r3, #8
 8005670:	d827      	bhi.n	80056c2 <UART_SetConfig+0x49a>
 8005672:	a201      	add	r2, pc, #4	@ (adr r2, 8005678 <UART_SetConfig+0x450>)
 8005674:	f852 f023 	ldr.w	pc, [r2, r3, lsl #2]
 8005678:	0800569d 	.word	0x0800569d
 800567c:	080056a5 	.word	0x080056a5
 8005680:	080056ad 	.word	0x080056ad
 8005684:	080056c3 	.word	0x080056c3
 8005688:	080056b3 	.word	0x080056b3
 800568c:	080056c3 	.word	0x080056c3
 8005690:	080056c3 	.word	0x080056c3
 8005694:	080056c3 	.word	0x080056c3
 8005698:	080056bb 	.word	0x080056bb
    {
      case UART_CLOCKSOURCE_PCLK1:
        pclk = HAL_RCC_GetPCLK1Freq();
 800569c:	f7ff fcb0 	bl	8005000 <HAL_RCC_GetPCLK1Freq>
 80056a0:	6278      	str	r0, [r7, #36]	@ 0x24
        break;
 80056a2:	e014      	b.n	80056ce <UART_SetConfig+0x4a6>
      case UART_CLOCKSOURCE_PCLK2:
        pclk = HAL_RCC_GetPCLK2Freq();
 80056a4:	f7ff fcc2 	bl	800502c <HAL_RCC_GetPCLK2Freq>
 80056a8:	6278      	str	r0, [r7, #36]	@ 0x24
        break;
 80056aa:	e010      	b.n	80056ce <UART_SetConfig+0x4a6>
      case UART_CLOCKSOURCE_HSI:
        pclk = (uint32_t) HSI_VALUE;
 80056ac:	4b4e      	ldr	r3, [pc, #312]	@ (80057e8 <UART_SetConfig+0x5c0>)
 80056ae:	627b      	str	r3, [r7, #36]	@ 0x24
        break;
 80056b0:	e00d      	b.n	80056ce <UART_SetConfig+0x4a6>
      case UART_CLOCKSOURCE_SYSCLK:
        pclk = HAL_RCC_GetSysClockFreq();
 80056b2:	f7ff fc0d 	bl	8004ed0 <HAL_RCC_GetSysClockFreq>
 80056b6:	6278      	str	r0, [r7, #36]	@ 0x24
        break;
 80056b8:	e009      	b.n	80056ce <UART_SetConfig+0x4a6>
      case UART_CLOCKSOURCE_LSE:
        pclk = (uint32_t) LSE_VALUE;
 80056ba:	f44f 4300 	mov.w	r3, #32768	@ 0x8000
 80056be:	627b      	str	r3, [r7, #36]	@ 0x24
        break;
 80056c0:	e005      	b.n	80056ce <UART_SetConfig+0x4a6>
      default:
        pclk = 0U;
 80056c2:	2300      	movs	r3, #0
 80056c4:	627b      	str	r3, [r7, #36]	@ 0x24
        ret = HAL_ERROR;
 80056c6:	2301      	movs	r3, #1
 80056c8:	f887 302a 	strb.w	r3, [r7, #42]	@ 0x2a
        break;
 80056cc:	bf00      	nop
    }

    /* USARTDIV must be greater than or equal to 0d16 */
    if (pclk != 0U)
 80056ce:	6a7b      	ldr	r3, [r7, #36]	@ 0x24
 80056d0:	2b00      	cmp	r3, #0
 80056d2:	f000 8090 	beq.w	80057f6 <UART_SetConfig+0x5ce>
    {
#if defined(USART_PRESC_PRESCALER)
      usartdiv = (uint32_t)(UART_DIV_SAMPLING8(pclk, huart->Init.BaudRate, huart->Init.ClockPrescaler));
 80056d6:	697b      	ldr	r3, [r7, #20]
 80056d8:	6a5b      	ldr	r3, [r3, #36]	@ 0x24
 80056da:	4a44      	ldr	r2, [pc, #272]	@ (80057ec <UART_SetConfig+0x5c4>)
 80056dc:	f832 3013 	ldrh.w	r3, [r2, r3, lsl #1]
 80056e0:	461a      	mov	r2, r3
 80056e2:	6a7b      	ldr	r3, [r7, #36]	@ 0x24
 80056e4:	fbb3 f3f2 	udiv	r3, r3, r2
 80056e8:	005a      	lsls	r2, r3, #1
 80056ea:	697b      	ldr	r3, [r7, #20]
 80056ec:	685b      	ldr	r3, [r3, #4]
 80056ee:	085b      	lsrs	r3, r3, #1
 80056f0:	441a      	add	r2, r3
 80056f2:	697b      	ldr	r3, [r7, #20]
 80056f4:	685b      	ldr	r3, [r3, #4]
 80056f6:	fbb2 f3f3 	udiv	r3, r2, r3
 80056fa:	623b      	str	r3, [r7, #32]
#else
      usartdiv = (uint32_t)(UART_DIV_SAMPLING8(pclk, huart->Init.BaudRate));
#endif /* USART_PRESC_PRESCALER */
      if ((usartdiv >= UART_BRR_MIN) && (usartdiv <= UART_BRR_MAX))
 80056fc:	6a3b      	ldr	r3, [r7, #32]
 80056fe:	2b0f      	cmp	r3, #15
 8005700:	d916      	bls.n	8005730 <UART_SetConfig+0x508>
 8005702:	6a3b      	ldr	r3, [r7, #32]
 8005704:	f5b3 3f80 	cmp.w	r3, #65536	@ 0x10000
 8005708:	d212      	bcs.n	8005730 <UART_SetConfig+0x508>
      {
        brrtemp = (uint16_t)(usartdiv & 0xFFF0U);
 800570a:	6a3b      	ldr	r3, [r7, #32]
 800570c:	b29b      	uxth	r3, r3
 800570e:	f023 030f 	bic.w	r3, r3, #15
 8005712:	83fb      	strh	r3, [r7, #30]
        brrtemp |= (uint16_t)((usartdiv & (uint16_t)0x000FU) >> 1U);
 8005714:	6a3b      	ldr	r3, [r7, #32]
 8005716:	085b      	lsrs	r3, r3, #1
 8005718:	b29b      	uxth	r3, r3
 800571a:	f003 0307 	and.w	r3, r3, #7
 800571e:	b29a      	uxth	r2, r3
 8005720:	8bfb      	ldrh	r3, [r7, #30]
 8005722:	4313      	orrs	r3, r2
 8005724:	83fb      	strh	r3, [r7, #30]
        huart->Instance->BRR = brrtemp;
 8005726:	697b      	ldr	r3, [r7, #20]
 8005728:	681b      	ldr	r3, [r3, #0]
 800572a:	8bfa      	ldrh	r2, [r7, #30]
 800572c:	60da      	str	r2, [r3, #12]
 800572e:	e062      	b.n	80057f6 <UART_SetConfig+0x5ce>
      }
      else
      {
        ret = HAL_ERROR;
 8005730:	2301      	movs	r3, #1
 8005732:	f887 302a 	strb.w	r3, [r7, #42]	@ 0x2a
 8005736:	e05e      	b.n	80057f6 <UART_SetConfig+0x5ce>
      }
    }
  }
  else
  {
    switch (clocksource)
 8005738:	f897 302b 	ldrb.w	r3, [r7, #43]	@ 0x2b
 800573c:	2b08      	cmp	r3, #8
 800573e:	d828      	bhi.n	8005792 <UART_SetConfig+0x56a>
 8005740:	a201      	add	r2, pc, #4	@ (adr r2, 8005748 <UART_SetConfig+0x520>)
 8005742:	f852 f023 	ldr.w	pc, [r2, r3, lsl #2]
 8005746:	bf00      	nop
 8005748:	0800576d 	.word	0x0800576d
 800574c:	08005775 	.word	0x08005775
 8005750:	0800577d 	.word	0x0800577d
 8005754:	08005793 	.word	0x08005793
 8005758:	08005783 	.word	0x08005783
 800575c:	08005793 	.word	0x08005793
 8005760:	08005793 	.word	0x08005793
 8005764:	08005793 	.word	0x08005793
 8005768:	0800578b 	.word	0x0800578b
    {
      case UART_CLOCKSOURCE_PCLK1:
        pclk = HAL_RCC_GetPCLK1Freq();
 800576c:	f7ff fc48 	bl	8005000 <HAL_RCC_GetPCLK1Freq>
 8005770:	6278      	str	r0, [r7, #36]	@ 0x24
        break;
 8005772:	e014      	b.n	800579e <UART_SetConfig+0x576>
      case UART_CLOCKSOURCE_PCLK2:
        pclk = HAL_RCC_GetPCLK2Freq();
 8005774:	f7ff fc5a 	bl	800502c <HAL_RCC_GetPCLK2Freq>
 8005778:	6278      	str	r0, [r7, #36]	@ 0x24
        break;
 800577a:	e010      	b.n	800579e <UART_SetConfig+0x576>
      case UART_CLOCKSOURCE_HSI:
        pclk = (uint32_t) HSI_VALUE;
 800577c:	4b1a      	ldr	r3, [pc, #104]	@ (80057e8 <UART_SetConfig+0x5c0>)
 800577e:	627b      	str	r3, [r7, #36]	@ 0x24
        break;
 8005780:	e00d      	b.n	800579e <UART_SetConfig+0x576>
      case UART_CLOCKSOURCE_SYSCLK:
        pclk = HAL_RCC_GetSysClockFreq();
 8005782:	f7ff fba5 	bl	8004ed0 <HAL_RCC_GetSysClockFreq>
 8005786:	6278      	str	r0, [r7, #36]	@ 0x24
        break;
 8005788:	e009      	b.n	800579e <UART_SetConfig+0x576>
      case UART_CLOCKSOURCE_LSE:
        pclk = (uint32_t) LSE_VALUE;
 800578a:	f44f 4300 	mov.w	r3, #32768	@ 0x8000
 800578e:	627b      	str	r3, [r7, #36]	@ 0x24
        break;
 8005790:	e005      	b.n	800579e <UART_SetConfig+0x576>
      default:
        pclk = 0U;
 8005792:	2300      	movs	r3, #0
 8005794:	627b      	str	r3, [r7, #36]	@ 0x24
        ret = HAL_ERROR;
 8005796:	2301      	movs	r3, #1
 8005798:	f887 302a 	strb.w	r3, [r7, #42]	@ 0x2a
        break;
 800579c:	bf00      	nop
    }

    if (pclk != 0U)
 800579e:	6a7b      	ldr	r3, [r7, #36]	@ 0x24
 80057a0:	2b00      	cmp	r3, #0
 80057a2:	d028      	beq.n	80057f6 <UART_SetConfig+0x5ce>
    {
      /* USARTDIV must be greater than or equal to 0d16 */
#if defined(USART_PRESC_PRESCALER)
      usartdiv = (uint32_t)(UART_DIV_SAMPLING16(pclk, huart->Init.BaudRate, huart->Init.ClockPrescaler));
 80057a4:	697b      	ldr	r3, [r7, #20]
 80057a6:	6a5b      	ldr	r3, [r3, #36]	@ 0x24
 80057a8:	4a10      	ldr	r2, [pc, #64]	@ (80057ec <UART_SetConfig+0x5c4>)
 80057aa:	f832 3013 	ldrh.w	r3, [r2, r3, lsl #1]
 80057ae:	461a      	mov	r2, r3
 80057b0:	6a7b      	ldr	r3, [r7, #36]	@ 0x24
 80057b2:	fbb3 f2f2 	udiv	r2, r3, r2
 80057b6:	697b      	ldr	r3, [r7, #20]
 80057b8:	685b      	ldr	r3, [r3, #4]
 80057ba:	085b      	lsrs	r3, r3, #1
 80057bc:	441a      	add	r2, r3
 80057be:	697b      	ldr	r3, [r7, #20]
 80057c0:	685b      	ldr	r3, [r3, #4]
 80057c2:	fbb2 f3f3 	udiv	r3, r2, r3
 80057c6:	623b      	str	r3, [r7, #32]
#else
      usartdiv = (uint32_t)(UART_DIV_SAMPLING16(pclk, huart->Init.BaudRate));
#endif /* USART_PRESC_PRESCALER */
      if ((usartdiv >= UART_BRR_MIN) && (usartdiv <= UART_BRR_MAX))
 80057c8:	6a3b      	ldr	r3, [r7, #32]
 80057ca:	2b0f      	cmp	r3, #15
 80057cc:	d910      	bls.n	80057f0 <UART_SetConfig+0x5c8>
 80057ce:	6a3b      	ldr	r3, [r7, #32]
 80057d0:	f5b3 3f80 	cmp.w	r3, #65536	@ 0x10000
 80057d4:	d20c      	bcs.n	80057f0 <UART_SetConfig+0x5c8>
      {
        huart->Instance->BRR = (uint16_t)usartdiv;
 80057d6:	6a3b      	ldr	r3, [r7, #32]
 80057d8:	b29a      	uxth	r2, r3
 80057da:	697b      	ldr	r3, [r7, #20]
 80057dc:	681b      	ldr	r3, [r3, #0]
 80057de:	60da      	str	r2, [r3, #12]
 80057e0:	e009      	b.n	80057f6 <UART_SetConfig+0x5ce>
 80057e2:	bf00      	nop
 80057e4:	40008000 	.word	0x40008000
 80057e8:	00f42400 	.word	0x00f42400
 80057ec:	08009948 	.word	0x08009948
      }
      else
      {
        ret = HAL_ERROR;
 80057f0:	2301      	movs	r3, #1
 80057f2:	f887 302a 	strb.w	r3, [r7, #42]	@ 0x2a
    }
  }

#if defined(USART_CR1_FIFOEN)
  /* Initialize the number of data to process during RX/TX ISR execution */
  huart->NbTxDataToProcess = 1;
 80057f6:	697b      	ldr	r3, [r7, #20]
 80057f8:	2201      	movs	r2, #1
 80057fa:	f8a3 206a 	strh.w	r2, [r3, #106]	@ 0x6a
  huart->NbRxDataToProcess = 1;
 80057fe:	697b      	ldr	r3, [r7, #20]
 8005800:	2201      	movs	r2, #1
 8005802:	f8a3 2068 	strh.w	r2, [r3, #104]	@ 0x68
#endif /* USART_CR1_FIFOEN */

  /* Clear ISR function pointers */
  huart->RxISR = NULL;
 8005806:	697b      	ldr	r3, [r7, #20]
 8005808:	2200      	movs	r2, #0
 800580a:	675a      	str	r2, [r3, #116]	@ 0x74
  huart->TxISR = NULL;
 800580c:	697b      	ldr	r3, [r7, #20]
 800580e:	2200      	movs	r2, #0
 8005810:	679a      	str	r2, [r3, #120]	@ 0x78

  return ret;
 8005812:	f897 302a 	ldrb.w	r3, [r7, #42]	@ 0x2a
}
 8005816:	4618      	mov	r0, r3
 8005818:	3730      	adds	r7, #48	@ 0x30
 800581a:	46bd      	mov	sp, r7
 800581c:	e8bd 8fb0 	ldmia.w	sp!, {r4, r5, r7, r8, r9, sl, fp, pc}

08005820 <UART_AdvFeatureConfig>:
  * @brief Configure the UART peripheral advanced features.
  * @param huart UART handle.
  * @retval None
  */
void UART_AdvFeatureConfig(UART_HandleTypeDef *huart)
{
 8005820:	b480      	push	{r7}
 8005822:	b083      	sub	sp, #12
 8005824:	af00      	add	r7, sp, #0
 8005826:	6078      	str	r0, [r7, #4]
  /* Check whether the set of advanced features to configure is properly set */
  assert_param(IS_UART_ADVFEATURE_INIT(huart->AdvancedInit.AdvFeatureInit));

  /* if required, configure RX/TX pins swap */
  if (HAL_IS_BIT_SET(huart->AdvancedInit.AdvFeatureInit, UART_ADVFEATURE_SWAP_INIT))
 8005828:	687b      	ldr	r3, [r7, #4]
 800582a:	6a9b      	ldr	r3, [r3, #40]	@ 0x28
 800582c:	f003 0308 	and.w	r3, r3, #8
 8005830:	2b00      	cmp	r3, #0
 8005832:	d00a      	beq.n	800584a <UART_AdvFeatureConfig+0x2a>
  {
    assert_param(IS_UART_ADVFEATURE_SWAP(huart->AdvancedInit.Swap));
    MODIFY_REG(huart->Instance->CR2, USART_CR2_SWAP, huart->AdvancedInit.Swap);
 8005834:	687b      	ldr	r3, [r7, #4]
 8005836:	681b      	ldr	r3, [r3, #0]
 8005838:	685b      	ldr	r3, [r3, #4]
 800583a:	f423 4100 	bic.w	r1, r3, #32768	@ 0x8000
 800583e:	687b      	ldr	r3, [r7, #4]
 8005840:	6b9a      	ldr	r2, [r3, #56]	@ 0x38
 8005842:	687b      	ldr	r3, [r7, #4]
 8005844:	681b      	ldr	r3, [r3, #0]
 8005846:	430a      	orrs	r2, r1
 8005848:	605a      	str	r2, [r3, #4]
  }

  /* if required, configure TX pin active level inversion */
  if (HAL_IS_BIT_SET(huart->AdvancedInit.AdvFeatureInit, UART_ADVFEATURE_TXINVERT_INIT))
 800584a:	687b      	ldr	r3, [r7, #4]
 800584c:	6a9b      	ldr	r3, [r3, #40]	@ 0x28
 800584e:	f003 0301 	and.w	r3, r3, #1
 8005852:	2b00      	cmp	r3, #0
 8005854:	d00a      	beq.n	800586c <UART_AdvFeatureConfig+0x4c>
  {
    assert_param(IS_UART_ADVFEATURE_TXINV(huart->AdvancedInit.TxPinLevelInvert));
    MODIFY_REG(huart->Instance->CR2, USART_CR2_TXINV, huart->AdvancedInit.TxPinLevelInvert);
 8005856:	687b      	ldr	r3, [r7, #4]
 8005858:	681b      	ldr	r3, [r3, #0]
 800585a:	685b      	ldr	r3, [r3, #4]
 800585c:	f423 3100 	bic.w	r1, r3, #131072	@ 0x20000
 8005860:	687b      	ldr	r3, [r7, #4]
 8005862:	6ada      	ldr	r2, [r3, #44]	@ 0x2c
 8005864:	687b      	ldr	r3, [r7, #4]
 8005866:	681b      	ldr	r3, [r3, #0]
 8005868:	430a      	orrs	r2, r1
 800586a:	605a      	str	r2, [r3, #4]
  }

  /* if required, configure RX pin active level inversion */
  if (HAL_IS_BIT_SET(huart->AdvancedInit.AdvFeatureInit, UART_ADVFEATURE_RXINVERT_INIT))
 800586c:	687b      	ldr	r3, [r7, #4]
 800586e:	6a9b      	ldr	r3, [r3, #40]	@ 0x28
 8005870:	f003 0302 	and.w	r3, r3, #2
 8005874:	2b00      	cmp	r3, #0
 8005876:	d00a      	beq.n	800588e <UART_AdvFeatureConfig+0x6e>
  {
    assert_param(IS_UART_ADVFEATURE_RXINV(huart->AdvancedInit.RxPinLevelInvert));
    MODIFY_REG(huart->Instance->CR2, USART_CR2_RXINV, huart->AdvancedInit.RxPinLevelInvert);
 8005878:	687b      	ldr	r3, [r7, #4]
 800587a:	681b      	ldr	r3, [r3, #0]
 800587c:	685b      	ldr	r3, [r3, #4]
 800587e:	f423 3180 	bic.w	r1, r3, #65536	@ 0x10000
 8005882:	687b      	ldr	r3, [r7, #4]
 8005884:	6b1a      	ldr	r2, [r3, #48]	@ 0x30
 8005886:	687b      	ldr	r3, [r7, #4]
 8005888:	681b      	ldr	r3, [r3, #0]
 800588a:	430a      	orrs	r2, r1
 800588c:	605a      	str	r2, [r3, #4]
  }

  /* if required, configure data inversion */
  if (HAL_IS_BIT_SET(huart->AdvancedInit.AdvFeatureInit, UART_ADVFEATURE_DATAINVERT_INIT))
 800588e:	687b      	ldr	r3, [r7, #4]
 8005890:	6a9b      	ldr	r3, [r3, #40]	@ 0x28
 8005892:	f003 0304 	and.w	r3, r3, #4
 8005896:	2b00      	cmp	r3, #0
 8005898:	d00a      	beq.n	80058b0 <UART_AdvFeatureConfig+0x90>
  {
    assert_param(IS_UART_ADVFEATURE_DATAINV(huart->AdvancedInit.DataInvert));
    MODIFY_REG(huart->Instance->CR2, USART_CR2_DATAINV, huart->AdvancedInit.DataInvert);
 800589a:	687b      	ldr	r3, [r7, #4]
 800589c:	681b      	ldr	r3, [r3, #0]
 800589e:	685b      	ldr	r3, [r3, #4]
 80058a0:	f423 2180 	bic.w	r1, r3, #262144	@ 0x40000
 80058a4:	687b      	ldr	r3, [r7, #4]
 80058a6:	6b5a      	ldr	r2, [r3, #52]	@ 0x34
 80058a8:	687b      	ldr	r3, [r7, #4]
 80058aa:	681b      	ldr	r3, [r3, #0]
 80058ac:	430a      	orrs	r2, r1
 80058ae:	605a      	str	r2, [r3, #4]
  }

  /* if required, configure RX overrun detection disabling */
  if (HAL_IS_BIT_SET(huart->AdvancedInit.AdvFeatureInit, UART_ADVFEATURE_RXOVERRUNDISABLE_INIT))
 80058b0:	687b      	ldr	r3, [r7, #4]
 80058b2:	6a9b      	ldr	r3, [r3, #40]	@ 0x28
 80058b4:	f003 0310 	and.w	r3, r3, #16
 80058b8:	2b00      	cmp	r3, #0
 80058ba:	d00a      	beq.n	80058d2 <UART_AdvFeatureConfig+0xb2>
  {
    assert_param(IS_UART_OVERRUN(huart->AdvancedInit.OverrunDisable));
    MODIFY_REG(huart->Instance->CR3, USART_CR3_OVRDIS, huart->AdvancedInit.OverrunDisable);
 80058bc:	687b      	ldr	r3, [r7, #4]
 80058be:	681b      	ldr	r3, [r3, #0]
 80058c0:	689b      	ldr	r3, [r3, #8]
 80058c2:	f423 5180 	bic.w	r1, r3, #4096	@ 0x1000
 80058c6:	687b      	ldr	r3, [r7, #4]
 80058c8:	6bda      	ldr	r2, [r3, #60]	@ 0x3c
 80058ca:	687b      	ldr	r3, [r7, #4]
 80058cc:	681b      	ldr	r3, [r3, #0]
 80058ce:	430a      	orrs	r2, r1
 80058d0:	609a      	str	r2, [r3, #8]
  }

  /* if required, configure DMA disabling on reception error */
  if (HAL_IS_BIT_SET(huart->AdvancedInit.AdvFeatureInit, UART_ADVFEATURE_DMADISABLEONERROR_INIT))
 80058d2:	687b      	ldr	r3, [r7, #4]
 80058d4:	6a9b      	ldr	r3, [r3, #40]	@ 0x28
 80058d6:	f003 0320 	and.w	r3, r3, #32
 80058da:	2b00      	cmp	r3, #0
 80058dc:	d00a      	beq.n	80058f4 <UART_AdvFeatureConfig+0xd4>
  {
    assert_param(IS_UART_ADVFEATURE_DMAONRXERROR(huart->AdvancedInit.DMADisableonRxError));
    MODIFY_REG(huart->Instance->CR3, USART_CR3_DDRE, huart->AdvancedInit.DMADisableonRxError);
 80058de:	687b      	ldr	r3, [r7, #4]
 80058e0:	681b      	ldr	r3, [r3, #0]
 80058e2:	689b      	ldr	r3, [r3, #8]
 80058e4:	f423 5100 	bic.w	r1, r3, #8192	@ 0x2000
 80058e8:	687b      	ldr	r3, [r7, #4]
 80058ea:	6c1a      	ldr	r2, [r3, #64]	@ 0x40
 80058ec:	687b      	ldr	r3, [r7, #4]
 80058ee:	681b      	ldr	r3, [r3, #0]
 80058f0:	430a      	orrs	r2, r1
 80058f2:	609a      	str	r2, [r3, #8]
  }

  /* if required, configure auto Baud rate detection scheme */
  if (HAL_IS_BIT_SET(huart->AdvancedInit.AdvFeatureInit, UART_ADVFEATURE_AUTOBAUDRATE_INIT))
 80058f4:	687b      	ldr	r3, [r7, #4]
 80058f6:	6a9b      	ldr	r3, [r3, #40]	@ 0x28
 80058f8:	f003 0340 	and.w	r3, r3, #64	@ 0x40
 80058fc:	2b00      	cmp	r3, #0
 80058fe:	d01a      	beq.n	8005936 <UART_AdvFeatureConfig+0x116>
  {
    assert_param(IS_USART_AUTOBAUDRATE_DETECTION_INSTANCE(huart->Instance));
    assert_param(IS_UART_ADVFEATURE_AUTOBAUDRATE(huart->AdvancedInit.AutoBaudRateEnable));
    MODIFY_REG(huart->Instance->CR2, USART_CR2_ABREN, huart->AdvancedInit.AutoBaudRateEnable);
 8005900:	687b      	ldr	r3, [r7, #4]
 8005902:	681b      	ldr	r3, [r3, #0]
 8005904:	685b      	ldr	r3, [r3, #4]
 8005906:	f423 1180 	bic.w	r1, r3, #1048576	@ 0x100000
 800590a:	687b      	ldr	r3, [r7, #4]
 800590c:	6c5a      	ldr	r2, [r3, #68]	@ 0x44
 800590e:	687b      	ldr	r3, [r7, #4]
 8005910:	681b      	ldr	r3, [r3, #0]
 8005912:	430a      	orrs	r2, r1
 8005914:	605a      	str	r2, [r3, #4]
    /* set auto Baudrate detection parameters if detection is enabled */
    if (huart->AdvancedInit.AutoBaudRateEnable == UART_ADVFEATURE_AUTOBAUDRATE_ENABLE)
 8005916:	687b      	ldr	r3, [r7, #4]
 8005918:	6c5b      	ldr	r3, [r3, #68]	@ 0x44
 800591a:	f5b3 1f80 	cmp.w	r3, #1048576	@ 0x100000
 800591e:	d10a      	bne.n	8005936 <UART_AdvFeatureConfig+0x116>
    {
      assert_param(IS_UART_ADVFEATURE_AUTOBAUDRATEMODE(huart->AdvancedInit.AutoBaudRateMode));
      MODIFY_REG(huart->Instance->CR2, USART_CR2_ABRMODE, huart->AdvancedInit.AutoBaudRateMode);
 8005920:	687b      	ldr	r3, [r7, #4]
 8005922:	681b      	ldr	r3, [r3, #0]
 8005924:	685b      	ldr	r3, [r3, #4]
 8005926:	f423 01c0 	bic.w	r1, r3, #6291456	@ 0x600000
 800592a:	687b      	ldr	r3, [r7, #4]
 800592c:	6c9a      	ldr	r2, [r3, #72]	@ 0x48
 800592e:	687b      	ldr	r3, [r7, #4]
 8005930:	681b      	ldr	r3, [r3, #0]
 8005932:	430a      	orrs	r2, r1
 8005934:	605a      	str	r2, [r3, #4]
    }
  }

  /* if required, configure MSB first on communication line */
  if (HAL_IS_BIT_SET(huart->AdvancedInit.AdvFeatureInit, UART_ADVFEATURE_MSBFIRST_INIT))
 8005936:	687b      	ldr	r3, [r7, #4]
 8005938:	6a9b      	ldr	r3, [r3, #40]	@ 0x28
 800593a:	f003 0380 	and.w	r3, r3, #128	@ 0x80
 800593e:	2b00      	cmp	r3, #0
 8005940:	d00a      	beq.n	8005958 <UART_AdvFeatureConfig+0x138>
  {
    assert_param(IS_UART_ADVFEATURE_MSBFIRST(huart->AdvancedInit.MSBFirst));
    MODIFY_REG(huart->Instance->CR2, USART_CR2_MSBFIRST, huart->AdvancedInit.MSBFirst);
 8005942:	687b      	ldr	r3, [r7, #4]
 8005944:	681b      	ldr	r3, [r3, #0]
 8005946:	685b      	ldr	r3, [r3, #4]
 8005948:	f423 2100 	bic.w	r1, r3, #524288	@ 0x80000
 800594c:	687b      	ldr	r3, [r7, #4]
 800594e:	6cda      	ldr	r2, [r3, #76]	@ 0x4c
 8005950:	687b      	ldr	r3, [r7, #4]
 8005952:	681b      	ldr	r3, [r3, #0]
 8005954:	430a      	orrs	r2, r1
 8005956:	605a      	str	r2, [r3, #4]
  }
}
 8005958:	bf00      	nop
 800595a:	370c      	adds	r7, #12
 800595c:	46bd      	mov	sp, r7
 800595e:	f85d 7b04 	ldr.w	r7, [sp], #4
 8005962:	4770      	bx	lr

08005964 <UART_CheckIdleState>:
  * @brief Check the UART Idle State.
  * @param huart UART handle.
  * @retval HAL status
  */
HAL_StatusTypeDef UART_CheckIdleState(UART_HandleTypeDef *huart)
{
 8005964:	b580      	push	{r7, lr}
 8005966:	b098      	sub	sp, #96	@ 0x60
 8005968:	af02      	add	r7, sp, #8
 800596a:	6078      	str	r0, [r7, #4]
  uint32_t tickstart;

  /* Initialize the UART ErrorCode */
  huart->ErrorCode = HAL_UART_ERROR_NONE;
 800596c:	687b      	ldr	r3, [r7, #4]
 800596e:	2200      	movs	r2, #0
 8005970:	f8c3 2090 	str.w	r2, [r3, #144]	@ 0x90

  /* Init tickstart for timeout management */
  tickstart = HAL_GetTick();
 8005974:	f7fd f8ae 	bl	8002ad4 <HAL_GetTick>
 8005978:	6578      	str	r0, [r7, #84]	@ 0x54

  /* Check if the Transmitter is enabled */
  if ((huart->Instance->CR1 & USART_CR1_TE) == USART_CR1_TE)
 800597a:	687b      	ldr	r3, [r7, #4]
 800597c:	681b      	ldr	r3, [r3, #0]
 800597e:	681b      	ldr	r3, [r3, #0]
 8005980:	f003 0308 	and.w	r3, r3, #8
 8005984:	2b08      	cmp	r3, #8
 8005986:	d12f      	bne.n	80059e8 <UART_CheckIdleState+0x84>
  {
    /* Wait until TEACK flag is set */
    if (UART_WaitOnFlagUntilTimeout(huart, USART_ISR_TEACK, RESET, tickstart, HAL_UART_TIMEOUT_VALUE) != HAL_OK)
 8005988:	f06f 437e 	mvn.w	r3, #4261412864	@ 0xfe000000
 800598c:	9300      	str	r3, [sp, #0]
 800598e:	6d7b      	ldr	r3, [r7, #84]	@ 0x54
 8005990:	2200      	movs	r2, #0
 8005992:	f44f 1100 	mov.w	r1, #2097152	@ 0x200000
 8005996:	6878      	ldr	r0, [r7, #4]
 8005998:	f000 f88e 	bl	8005ab8 <UART_WaitOnFlagUntilTimeout>
 800599c:	4603      	mov	r3, r0
 800599e:	2b00      	cmp	r3, #0
 80059a0:	d022      	beq.n	80059e8 <UART_CheckIdleState+0x84>
    {
      /* Disable TXE interrupt for the interrupt process */
#if defined(USART_CR1_FIFOEN)
      ATOMIC_CLEAR_BIT(huart->Instance->CR1, (USART_CR1_TXEIE_TXFNFIE));
 80059a2:	687b      	ldr	r3, [r7, #4]
 80059a4:	681b      	ldr	r3, [r3, #0]
 80059a6:	63bb      	str	r3, [r7, #56]	@ 0x38
 */
__STATIC_FORCEINLINE uint32_t __LDREXW(volatile uint32_t *addr)
{
    uint32_t result;

   __ASM volatile ("ldrex %0, %1" : "=r" (result) : "Q" (*addr) );
 80059a8:	6bbb      	ldr	r3, [r7, #56]	@ 0x38
 80059aa:	e853 3f00 	ldrex	r3, [r3]
 80059ae:	637b      	str	r3, [r7, #52]	@ 0x34
   return(result);
 80059b0:	6b7b      	ldr	r3, [r7, #52]	@ 0x34
 80059b2:	f023 0380 	bic.w	r3, r3, #128	@ 0x80
 80059b6:	653b      	str	r3, [r7, #80]	@ 0x50
 80059b8:	687b      	ldr	r3, [r7, #4]
 80059ba:	681b      	ldr	r3, [r3, #0]
 80059bc:	461a      	mov	r2, r3
 80059be:	6d3b      	ldr	r3, [r7, #80]	@ 0x50
 80059c0:	647b      	str	r3, [r7, #68]	@ 0x44
 80059c2:	643a      	str	r2, [r7, #64]	@ 0x40
 */
__STATIC_FORCEINLINE uint32_t __STREXW(uint32_t value, volatile uint32_t *addr)
{
   uint32_t result;

   __ASM volatile ("strex %0, %2, %1" : "=&r" (result), "=Q" (*addr) : "r" (value) );
 80059c4:	6c39      	ldr	r1, [r7, #64]	@ 0x40
 80059c6:	6c7a      	ldr	r2, [r7, #68]	@ 0x44
 80059c8:	e841 2300 	strex	r3, r2, [r1]
 80059cc:	63fb      	str	r3, [r7, #60]	@ 0x3c
   return(result);
 80059ce:	6bfb      	ldr	r3, [r7, #60]	@ 0x3c
 80059d0:	2b00      	cmp	r3, #0
 80059d2:	d1e6      	bne.n	80059a2 <UART_CheckIdleState+0x3e>
#else
      ATOMIC_CLEAR_BIT(huart->Instance->CR1, (USART_CR1_TXEIE));
#endif /* USART_CR1_FIFOEN */

      huart->gState = HAL_UART_STATE_READY;
 80059d4:	687b      	ldr	r3, [r7, #4]
 80059d6:	2220      	movs	r2, #32
 80059d8:	f8c3 2088 	str.w	r2, [r3, #136]	@ 0x88

      __HAL_UNLOCK(huart);
 80059dc:	687b      	ldr	r3, [r7, #4]
 80059de:	2200      	movs	r2, #0
 80059e0:	f883 2084 	strb.w	r2, [r3, #132]	@ 0x84

      /* Timeout occurred */
      return HAL_TIMEOUT;
 80059e4:	2303      	movs	r3, #3
 80059e6:	e063      	b.n	8005ab0 <UART_CheckIdleState+0x14c>
    }
  }

  /* Check if the Receiver is enabled */
  if ((huart->Instance->CR1 & USART_CR1_RE) == USART_CR1_RE)
 80059e8:	687b      	ldr	r3, [r7, #4]
 80059ea:	681b      	ldr	r3, [r3, #0]
 80059ec:	681b      	ldr	r3, [r3, #0]
 80059ee:	f003 0304 	and.w	r3, r3, #4
 80059f2:	2b04      	cmp	r3, #4
 80059f4:	d149      	bne.n	8005a8a <UART_CheckIdleState+0x126>
  {
    /* Wait until REACK flag is set */
    if (UART_WaitOnFlagUntilTimeout(huart, USART_ISR_REACK, RESET, tickstart, HAL_UART_TIMEOUT_VALUE) != HAL_OK)
 80059f6:	f06f 437e 	mvn.w	r3, #4261412864	@ 0xfe000000
 80059fa:	9300      	str	r3, [sp, #0]
 80059fc:	6d7b      	ldr	r3, [r7, #84]	@ 0x54
 80059fe:	2200      	movs	r2, #0
 8005a00:	f44f 0180 	mov.w	r1, #4194304	@ 0x400000
 8005a04:	6878      	ldr	r0, [r7, #4]
 8005a06:	f000 f857 	bl	8005ab8 <UART_WaitOnFlagUntilTimeout>
 8005a0a:	4603      	mov	r3, r0
 8005a0c:	2b00      	cmp	r3, #0
 8005a0e:	d03c      	beq.n	8005a8a <UART_CheckIdleState+0x126>
    {
      /* Disable RXNE, PE and ERR (Frame error, noise error, overrun error)
      interrupts for the interrupt process */
#if defined(USART_CR1_FIFOEN)
      ATOMIC_CLEAR_BIT(huart->Instance->CR1, (USART_CR1_RXNEIE_RXFNEIE | USART_CR1_PEIE));
 8005a10:	687b      	ldr	r3, [r7, #4]
 8005a12:	681b      	ldr	r3, [r3, #0]
 8005a14:	627b      	str	r3, [r7, #36]	@ 0x24
   __ASM volatile ("ldrex %0, %1" : "=r" (result) : "Q" (*addr) );
 8005a16:	6a7b      	ldr	r3, [r7, #36]	@ 0x24
 8005a18:	e853 3f00 	ldrex	r3, [r3]
 8005a1c:	623b      	str	r3, [r7, #32]
   return(result);
 8005a1e:	6a3b      	ldr	r3, [r7, #32]
 8005a20:	f423 7390 	bic.w	r3, r3, #288	@ 0x120
 8005a24:	64fb      	str	r3, [r7, #76]	@ 0x4c
 8005a26:	687b      	ldr	r3, [r7, #4]
 8005a28:	681b      	ldr	r3, [r3, #0]
 8005a2a:	461a      	mov	r2, r3
 8005a2c:	6cfb      	ldr	r3, [r7, #76]	@ 0x4c
 8005a2e:	633b      	str	r3, [r7, #48]	@ 0x30
 8005a30:	62fa      	str	r2, [r7, #44]	@ 0x2c
   __ASM volatile ("strex %0, %2, %1" : "=&r" (result), "=Q" (*addr) : "r" (value) );
 8005a32:	6af9      	ldr	r1, [r7, #44]	@ 0x2c
 8005a34:	6b3a      	ldr	r2, [r7, #48]	@ 0x30
 8005a36:	e841 2300 	strex	r3, r2, [r1]
 8005a3a:	62bb      	str	r3, [r7, #40]	@ 0x28
   return(result);
 8005a3c:	6abb      	ldr	r3, [r7, #40]	@ 0x28
 8005a3e:	2b00      	cmp	r3, #0
 8005a40:	d1e6      	bne.n	8005a10 <UART_CheckIdleState+0xac>
#else
      ATOMIC_CLEAR_BIT(huart->Instance->CR1, (USART_CR1_RXNEIE | USART_CR1_PEIE));
#endif /* USART_CR1_FIFOEN */
      ATOMIC_CLEAR_BIT(huart->Instance->CR3, USART_CR3_EIE);
 8005a42:	687b      	ldr	r3, [r7, #4]
 8005a44:	681b      	ldr	r3, [r3, #0]
 8005a46:	3308      	adds	r3, #8
 8005a48:	613b      	str	r3, [r7, #16]
   __ASM volatile ("ldrex %0, %1" : "=r" (result) : "Q" (*addr) );
 8005a4a:	693b      	ldr	r3, [r7, #16]
 8005a4c:	e853 3f00 	ldrex	r3, [r3]
 8005a50:	60fb      	str	r3, [r7, #12]
   return(result);
 8005a52:	68fb      	ldr	r3, [r7, #12]
 8005a54:	f023 0301 	bic.w	r3, r3, #1
 8005a58:	64bb      	str	r3, [r7, #72]	@ 0x48
 8005a5a:	687b      	ldr	r3, [r7, #4]
 8005a5c:	681b      	ldr	r3, [r3, #0]
 8005a5e:	3308      	adds	r3, #8
 8005a60:	6cba      	ldr	r2, [r7, #72]	@ 0x48
 8005a62:	61fa      	str	r2, [r7, #28]
 8005a64:	61bb      	str	r3, [r7, #24]
   __ASM volatile ("strex %0, %2, %1" : "=&r" (result), "=Q" (*addr) : "r" (value) );
 8005a66:	69b9      	ldr	r1, [r7, #24]
 8005a68:	69fa      	ldr	r2, [r7, #28]
 8005a6a:	e841 2300 	strex	r3, r2, [r1]
 8005a6e:	617b      	str	r3, [r7, #20]
   return(result);
 8005a70:	697b      	ldr	r3, [r7, #20]
 8005a72:	2b00      	cmp	r3, #0
 8005a74:	d1e5      	bne.n	8005a42 <UART_CheckIdleState+0xde>

      huart->RxState = HAL_UART_STATE_READY;
 8005a76:	687b      	ldr	r3, [r7, #4]
 8005a78:	2220      	movs	r2, #32
 8005a7a:	f8c3 208c 	str.w	r2, [r3, #140]	@ 0x8c

      __HAL_UNLOCK(huart);
 8005a7e:	687b      	ldr	r3, [r7, #4]
 8005a80:	2200      	movs	r2, #0
 8005a82:	f883 2084 	strb.w	r2, [r3, #132]	@ 0x84

      /* Timeout occurred */
      return HAL_TIMEOUT;
 8005a86:	2303      	movs	r3, #3
 8005a88:	e012      	b.n	8005ab0 <UART_CheckIdleState+0x14c>
    }
  }

  /* Initialize the UART State */
  huart->gState = HAL_UART_STATE_READY;
 8005a8a:	687b      	ldr	r3, [r7, #4]
 8005a8c:	2220      	movs	r2, #32
 8005a8e:	f8c3 2088 	str.w	r2, [r3, #136]	@ 0x88
  huart->RxState = HAL_UART_STATE_READY;
 8005a92:	687b      	ldr	r3, [r7, #4]
 8005a94:	2220      	movs	r2, #32
 8005a96:	f8c3 208c 	str.w	r2, [r3, #140]	@ 0x8c
  huart->ReceptionType = HAL_UART_RECEPTION_STANDARD;
 8005a9a:	687b      	ldr	r3, [r7, #4]
 8005a9c:	2200      	movs	r2, #0
 8005a9e:	66da      	str	r2, [r3, #108]	@ 0x6c
  huart->RxEventType = HAL_UART_RXEVENT_TC;
 8005aa0:	687b      	ldr	r3, [r7, #4]
 8005aa2:	2200      	movs	r2, #0
 8005aa4:	671a      	str	r2, [r3, #112]	@ 0x70

  __HAL_UNLOCK(huart);
 8005aa6:	687b      	ldr	r3, [r7, #4]
 8005aa8:	2200      	movs	r2, #0
 8005aaa:	f883 2084 	strb.w	r2, [r3, #132]	@ 0x84

  return HAL_OK;
 8005aae:	2300      	movs	r3, #0
}
 8005ab0:	4618      	mov	r0, r3
 8005ab2:	3758      	adds	r7, #88	@ 0x58
 8005ab4:	46bd      	mov	sp, r7
 8005ab6:	bd80      	pop	{r7, pc}

08005ab8 <UART_WaitOnFlagUntilTimeout>:
  * @param Timeout   Timeout duration
  * @retval HAL status
  */
HAL_StatusTypeDef UART_WaitOnFlagUntilTimeout(UART_HandleTypeDef *huart, uint32_t Flag, FlagStatus Status,
                                              uint32_t Tickstart, uint32_t Timeout)
{
 8005ab8:	b580      	push	{r7, lr}
 8005aba:	b084      	sub	sp, #16
 8005abc:	af00      	add	r7, sp, #0
 8005abe:	60f8      	str	r0, [r7, #12]
 8005ac0:	60b9      	str	r1, [r7, #8]
 8005ac2:	603b      	str	r3, [r7, #0]
 8005ac4:	4613      	mov	r3, r2
 8005ac6:	71fb      	strb	r3, [r7, #7]
  /* Wait until flag is set */
  while ((__HAL_UART_GET_FLAG(huart, Flag) ? SET : RESET) == Status)
 8005ac8:	e049      	b.n	8005b5e <UART_WaitOnFlagUntilTimeout+0xa6>
  {
    /* Check for the Timeout */
    if (Timeout != HAL_MAX_DELAY)
 8005aca:	69bb      	ldr	r3, [r7, #24]
 8005acc:	f1b3 3fff 	cmp.w	r3, #4294967295
 8005ad0:	d045      	beq.n	8005b5e <UART_WaitOnFlagUntilTimeout+0xa6>
    {
      if (((HAL_GetTick() - Tickstart) > Timeout) || (Timeout == 0U))
 8005ad2:	f7fc ffff 	bl	8002ad4 <HAL_GetTick>
 8005ad6:	4602      	mov	r2, r0
 8005ad8:	683b      	ldr	r3, [r7, #0]
 8005ada:	1ad3      	subs	r3, r2, r3
 8005adc:	69ba      	ldr	r2, [r7, #24]
 8005ade:	429a      	cmp	r2, r3
 8005ae0:	d302      	bcc.n	8005ae8 <UART_WaitOnFlagUntilTimeout+0x30>
 8005ae2:	69bb      	ldr	r3, [r7, #24]
 8005ae4:	2b00      	cmp	r3, #0
 8005ae6:	d101      	bne.n	8005aec <UART_WaitOnFlagUntilTimeout+0x34>
      {

        return HAL_TIMEOUT;
 8005ae8:	2303      	movs	r3, #3
 8005aea:	e048      	b.n	8005b7e <UART_WaitOnFlagUntilTimeout+0xc6>
      }

      if (READ_BIT(huart->Instance->CR1, USART_CR1_RE) != 0U)
 8005aec:	68fb      	ldr	r3, [r7, #12]
 8005aee:	681b      	ldr	r3, [r3, #0]
 8005af0:	681b      	ldr	r3, [r3, #0]
 8005af2:	f003 0304 	and.w	r3, r3, #4
 8005af6:	2b00      	cmp	r3, #0
 8005af8:	d031      	beq.n	8005b5e <UART_WaitOnFlagUntilTimeout+0xa6>
      {
        if (__HAL_UART_GET_FLAG(huart, UART_FLAG_ORE) == SET)
 8005afa:	68fb      	ldr	r3, [r7, #12]
 8005afc:	681b      	ldr	r3, [r3, #0]
 8005afe:	69db      	ldr	r3, [r3, #28]
 8005b00:	f003 0308 	and.w	r3, r3, #8
 8005b04:	2b08      	cmp	r3, #8
 8005b06:	d110      	bne.n	8005b2a <UART_WaitOnFlagUntilTimeout+0x72>
        {
          /* Clear Overrun Error flag*/
          __HAL_UART_CLEAR_FLAG(huart, UART_CLEAR_OREF);
 8005b08:	68fb      	ldr	r3, [r7, #12]
 8005b0a:	681b      	ldr	r3, [r3, #0]
 8005b0c:	2208      	movs	r2, #8
 8005b0e:	621a      	str	r2, [r3, #32]

          /* Blocking error : transfer is aborted
          Set the UART state ready to be able to start again the process,
          Disable Rx Interrupts if ongoing */
          UART_EndRxTransfer(huart);
 8005b10:	68f8      	ldr	r0, [r7, #12]
 8005b12:	f000 f838 	bl	8005b86 <UART_EndRxTransfer>

          huart->ErrorCode = HAL_UART_ERROR_ORE;
 8005b16:	68fb      	ldr	r3, [r7, #12]
 8005b18:	2208      	movs	r2, #8
 8005b1a:	f8c3 2090 	str.w	r2, [r3, #144]	@ 0x90

          /* Process Unlocked */
          __HAL_UNLOCK(huart);
 8005b1e:	68fb      	ldr	r3, [r7, #12]
 8005b20:	2200      	movs	r2, #0
 8005b22:	f883 2084 	strb.w	r2, [r3, #132]	@ 0x84

          return HAL_ERROR;
 8005b26:	2301      	movs	r3, #1
 8005b28:	e029      	b.n	8005b7e <UART_WaitOnFlagUntilTimeout+0xc6>
        }
        if (__HAL_UART_GET_FLAG(huart, UART_FLAG_RTOF) == SET)
 8005b2a:	68fb      	ldr	r3, [r7, #12]
 8005b2c:	681b      	ldr	r3, [r3, #0]
 8005b2e:	69db      	ldr	r3, [r3, #28]
 8005b30:	f403 6300 	and.w	r3, r3, #2048	@ 0x800
 8005b34:	f5b3 6f00 	cmp.w	r3, #2048	@ 0x800
 8005b38:	d111      	bne.n	8005b5e <UART_WaitOnFlagUntilTimeout+0xa6>
        {
          /* Clear Receiver Timeout flag*/
          __HAL_UART_CLEAR_FLAG(huart, UART_CLEAR_RTOF);
 8005b3a:	68fb      	ldr	r3, [r7, #12]
 8005b3c:	681b      	ldr	r3, [r3, #0]
 8005b3e:	f44f 6200 	mov.w	r2, #2048	@ 0x800
 8005b42:	621a      	str	r2, [r3, #32]

          /* Blocking error : transfer is aborted
          Set the UART state ready to be able to start again the process,
          Disable Rx Interrupts if ongoing */
          UART_EndRxTransfer(huart);
 8005b44:	68f8      	ldr	r0, [r7, #12]
 8005b46:	f000 f81e 	bl	8005b86 <UART_EndRxTransfer>

          huart->ErrorCode = HAL_UART_ERROR_RTO;
 8005b4a:	68fb      	ldr	r3, [r7, #12]
 8005b4c:	2220      	movs	r2, #32
 8005b4e:	f8c3 2090 	str.w	r2, [r3, #144]	@ 0x90

          /* Process Unlocked */
          __HAL_UNLOCK(huart);
 8005b52:	68fb      	ldr	r3, [r7, #12]
 8005b54:	2200      	movs	r2, #0
 8005b56:	f883 2084 	strb.w	r2, [r3, #132]	@ 0x84

          return HAL_TIMEOUT;
 8005b5a:	2303      	movs	r3, #3
 8005b5c:	e00f      	b.n	8005b7e <UART_WaitOnFlagUntilTimeout+0xc6>
  while ((__HAL_UART_GET_FLAG(huart, Flag) ? SET : RESET) == Status)
 8005b5e:	68fb      	ldr	r3, [r7, #12]
 8005b60:	681b      	ldr	r3, [r3, #0]
 8005b62:	69da      	ldr	r2, [r3, #28]
 8005b64:	68bb      	ldr	r3, [r7, #8]
 8005b66:	4013      	ands	r3, r2
 8005b68:	68ba      	ldr	r2, [r7, #8]
 8005b6a:	429a      	cmp	r2, r3
 8005b6c:	bf0c      	ite	eq
 8005b6e:	2301      	moveq	r3, #1
 8005b70:	2300      	movne	r3, #0
 8005b72:	b2db      	uxtb	r3, r3
 8005b74:	461a      	mov	r2, r3
 8005b76:	79fb      	ldrb	r3, [r7, #7]
 8005b78:	429a      	cmp	r2, r3
 8005b7a:	d0a6      	beq.n	8005aca <UART_WaitOnFlagUntilTimeout+0x12>
        }
      }
    }
  }
  return HAL_OK;
 8005b7c:	2300      	movs	r3, #0
}
 8005b7e:	4618      	mov	r0, r3
 8005b80:	3710      	adds	r7, #16
 8005b82:	46bd      	mov	sp, r7
 8005b84:	bd80      	pop	{r7, pc}

08005b86 <UART_EndRxTransfer>:
  * @brief  End ongoing Rx transfer on UART peripheral (following error detection or Reception completion).
  * @param  huart UART handle.
  * @retval None
  */
static void UART_EndRxTransfer(UART_HandleTypeDef *huart)
{
 8005b86:	b480      	push	{r7}
 8005b88:	b095      	sub	sp, #84	@ 0x54
 8005b8a:	af00      	add	r7, sp, #0
 8005b8c:	6078      	str	r0, [r7, #4]
  /* Disable RXNE, PE and ERR (Frame error, noise error, overrun error) interrupts */
#if defined(USART_CR1_FIFOEN)
  ATOMIC_CLEAR_BIT(huart->Instance->CR1, (USART_CR1_RXNEIE_RXFNEIE | USART_CR1_PEIE));
 8005b8e:	687b      	ldr	r3, [r7, #4]
 8005b90:	681b      	ldr	r3, [r3, #0]
 8005b92:	637b      	str	r3, [r7, #52]	@ 0x34
   __ASM volatile ("ldrex %0, %1" : "=r" (result) : "Q" (*addr) );
 8005b94:	6b7b      	ldr	r3, [r7, #52]	@ 0x34
 8005b96:	e853 3f00 	ldrex	r3, [r3]
 8005b9a:	633b      	str	r3, [r7, #48]	@ 0x30
   return(result);
 8005b9c:	6b3b      	ldr	r3, [r7, #48]	@ 0x30
 8005b9e:	f423 7390 	bic.w	r3, r3, #288	@ 0x120
 8005ba2:	64fb      	str	r3, [r7, #76]	@ 0x4c
 8005ba4:	687b      	ldr	r3, [r7, #4]
 8005ba6:	681b      	ldr	r3, [r3, #0]
 8005ba8:	461a      	mov	r2, r3
 8005baa:	6cfb      	ldr	r3, [r7, #76]	@ 0x4c
 8005bac:	643b      	str	r3, [r7, #64]	@ 0x40
 8005bae:	63fa      	str	r2, [r7, #60]	@ 0x3c
   __ASM volatile ("strex %0, %2, %1" : "=&r" (result), "=Q" (*addr) : "r" (value) );
 8005bb0:	6bf9      	ldr	r1, [r7, #60]	@ 0x3c
 8005bb2:	6c3a      	ldr	r2, [r7, #64]	@ 0x40
 8005bb4:	e841 2300 	strex	r3, r2, [r1]
 8005bb8:	63bb      	str	r3, [r7, #56]	@ 0x38
   return(result);
 8005bba:	6bbb      	ldr	r3, [r7, #56]	@ 0x38
 8005bbc:	2b00      	cmp	r3, #0
 8005bbe:	d1e6      	bne.n	8005b8e <UART_EndRxTransfer+0x8>
  ATOMIC_CLEAR_BIT(huart->Instance->CR3, (USART_CR3_EIE | USART_CR3_RXFTIE));
 8005bc0:	687b      	ldr	r3, [r7, #4]
 8005bc2:	681b      	ldr	r3, [r3, #0]
 8005bc4:	3308      	adds	r3, #8
 8005bc6:	623b      	str	r3, [r7, #32]
   __ASM volatile ("ldrex %0, %1" : "=r" (result) : "Q" (*addr) );
 8005bc8:	6a3b      	ldr	r3, [r7, #32]
 8005bca:	e853 3f00 	ldrex	r3, [r3]
 8005bce:	61fb      	str	r3, [r7, #28]
   return(result);
 8005bd0:	69fb      	ldr	r3, [r7, #28]
 8005bd2:	f023 5380 	bic.w	r3, r3, #268435456	@ 0x10000000
 8005bd6:	f023 0301 	bic.w	r3, r3, #1
 8005bda:	64bb      	str	r3, [r7, #72]	@ 0x48
 8005bdc:	687b      	ldr	r3, [r7, #4]
 8005bde:	681b      	ldr	r3, [r3, #0]
 8005be0:	3308      	adds	r3, #8
 8005be2:	6cba      	ldr	r2, [r7, #72]	@ 0x48
 8005be4:	62fa      	str	r2, [r7, #44]	@ 0x2c
 8005be6:	62bb      	str	r3, [r7, #40]	@ 0x28
   __ASM volatile ("strex %0, %2, %1" : "=&r" (result), "=Q" (*addr) : "r" (value) );
 8005be8:	6ab9      	ldr	r1, [r7, #40]	@ 0x28
 8005bea:	6afa      	ldr	r2, [r7, #44]	@ 0x2c
 8005bec:	e841 2300 	strex	r3, r2, [r1]
 8005bf0:	627b      	str	r3, [r7, #36]	@ 0x24
   return(result);
 8005bf2:	6a7b      	ldr	r3, [r7, #36]	@ 0x24
 8005bf4:	2b00      	cmp	r3, #0
 8005bf6:	d1e3      	bne.n	8005bc0 <UART_EndRxTransfer+0x3a>
  ATOMIC_CLEAR_BIT(huart->Instance->CR1, (USART_CR1_RXNEIE | USART_CR1_PEIE));
  ATOMIC_CLEAR_BIT(huart->Instance->CR3, USART_CR3_EIE);
#endif /* USART_CR1_FIFOEN */

  /* In case of reception waiting for IDLE event, disable also the IDLE IE interrupt source */
  if (huart->ReceptionType == HAL_UART_RECEPTION_TOIDLE)
 8005bf8:	687b      	ldr	r3, [r7, #4]
 8005bfa:	6edb      	ldr	r3, [r3, #108]	@ 0x6c
 8005bfc:	2b01      	cmp	r3, #1
 8005bfe:	d118      	bne.n	8005c32 <UART_EndRxTransfer+0xac>
  {
    ATOMIC_CLEAR_BIT(huart->Instance->CR1, USART_CR1_IDLEIE);
 8005c00:	687b      	ldr	r3, [r7, #4]
 8005c02:	681b      	ldr	r3, [r3, #0]
 8005c04:	60fb      	str	r3, [r7, #12]
   __ASM volatile ("ldrex %0, %1" : "=r" (result) : "Q" (*addr) );
 8005c06:	68fb      	ldr	r3, [r7, #12]
 8005c08:	e853 3f00 	ldrex	r3, [r3]
 8005c0c:	60bb      	str	r3, [r7, #8]
   return(result);
 8005c0e:	68bb      	ldr	r3, [r7, #8]
 8005c10:	f023 0310 	bic.w	r3, r3, #16
 8005c14:	647b      	str	r3, [r7, #68]	@ 0x44
 8005c16:	687b      	ldr	r3, [r7, #4]
 8005c18:	681b      	ldr	r3, [r3, #0]
 8005c1a:	461a      	mov	r2, r3
 8005c1c:	6c7b      	ldr	r3, [r7, #68]	@ 0x44
 8005c1e:	61bb      	str	r3, [r7, #24]
 8005c20:	617a      	str	r2, [r7, #20]
   __ASM volatile ("strex %0, %2, %1" : "=&r" (result), "=Q" (*addr) : "r" (value) );
 8005c22:	6979      	ldr	r1, [r7, #20]
 8005c24:	69ba      	ldr	r2, [r7, #24]
 8005c26:	e841 2300 	strex	r3, r2, [r1]
 8005c2a:	613b      	str	r3, [r7, #16]
   return(result);
 8005c2c:	693b      	ldr	r3, [r7, #16]
 8005c2e:	2b00      	cmp	r3, #0
 8005c30:	d1e6      	bne.n	8005c00 <UART_EndRxTransfer+0x7a>
  }

  /* At end of Rx process, restore huart->RxState to Ready */
  huart->RxState = HAL_UART_STATE_READY;
 8005c32:	687b      	ldr	r3, [r7, #4]
 8005c34:	2220      	movs	r2, #32
 8005c36:	f8c3 208c 	str.w	r2, [r3, #140]	@ 0x8c
  huart->ReceptionType = HAL_UART_RECEPTION_STANDARD;
 8005c3a:	687b      	ldr	r3, [r7, #4]
 8005c3c:	2200      	movs	r2, #0
 8005c3e:	66da      	str	r2, [r3, #108]	@ 0x6c

  /* Reset RxIsr function pointer */
  huart->RxISR = NULL;
 8005c40:	687b      	ldr	r3, [r7, #4]
 8005c42:	2200      	movs	r2, #0
 8005c44:	675a      	str	r2, [r3, #116]	@ 0x74
}
 8005c46:	bf00      	nop
 8005c48:	3754      	adds	r7, #84	@ 0x54
 8005c4a:	46bd      	mov	sp, r7
 8005c4c:	f85d 7b04 	ldr.w	r7, [sp], #4
 8005c50:	4770      	bx	lr

08005c52 <__cvt>:
 8005c52:	e92d 47ff 	stmdb	sp!, {r0, r1, r2, r3, r4, r5, r6, r7, r8, r9, sl, lr}
 8005c56:	ec57 6b10 	vmov	r6, r7, d0
 8005c5a:	2f00      	cmp	r7, #0
 8005c5c:	460c      	mov	r4, r1
 8005c5e:	4619      	mov	r1, r3
 8005c60:	463b      	mov	r3, r7
 8005c62:	bfbb      	ittet	lt
 8005c64:	f107 4300 	addlt.w	r3, r7, #2147483648	@ 0x80000000
 8005c68:	461f      	movlt	r7, r3
 8005c6a:	2300      	movge	r3, #0
 8005c6c:	232d      	movlt	r3, #45	@ 0x2d
 8005c6e:	700b      	strb	r3, [r1, #0]
 8005c70:	9b0d      	ldr	r3, [sp, #52]	@ 0x34
 8005c72:	f8dd a030 	ldr.w	sl, [sp, #48]	@ 0x30
 8005c76:	4691      	mov	r9, r2
 8005c78:	f023 0820 	bic.w	r8, r3, #32
 8005c7c:	bfbc      	itt	lt
 8005c7e:	4632      	movlt	r2, r6
 8005c80:	4616      	movlt	r6, r2
 8005c82:	f1b8 0f46 	cmp.w	r8, #70	@ 0x46
 8005c86:	d005      	beq.n	8005c94 <__cvt+0x42>
 8005c88:	f1b8 0f45 	cmp.w	r8, #69	@ 0x45
 8005c8c:	d100      	bne.n	8005c90 <__cvt+0x3e>
 8005c8e:	3401      	adds	r4, #1
 8005c90:	2102      	movs	r1, #2
 8005c92:	e000      	b.n	8005c96 <__cvt+0x44>
 8005c94:	2103      	movs	r1, #3
 8005c96:	ab03      	add	r3, sp, #12
 8005c98:	9301      	str	r3, [sp, #4]
 8005c9a:	ab02      	add	r3, sp, #8
 8005c9c:	9300      	str	r3, [sp, #0]
 8005c9e:	ec47 6b10 	vmov	d0, r6, r7
 8005ca2:	4653      	mov	r3, sl
 8005ca4:	4622      	mov	r2, r4
 8005ca6:	f000 ff1b 	bl	8006ae0 <_dtoa_r>
 8005caa:	f1b8 0f47 	cmp.w	r8, #71	@ 0x47
 8005cae:	4605      	mov	r5, r0
 8005cb0:	d119      	bne.n	8005ce6 <__cvt+0x94>
 8005cb2:	f019 0f01 	tst.w	r9, #1
 8005cb6:	d00e      	beq.n	8005cd6 <__cvt+0x84>
 8005cb8:	eb00 0904 	add.w	r9, r0, r4
 8005cbc:	2200      	movs	r2, #0
 8005cbe:	2300      	movs	r3, #0
 8005cc0:	4630      	mov	r0, r6
 8005cc2:	4639      	mov	r1, r7
 8005cc4:	f7fa ff30 	bl	8000b28 <__aeabi_dcmpeq>
 8005cc8:	b108      	cbz	r0, 8005cce <__cvt+0x7c>
 8005cca:	f8cd 900c 	str.w	r9, [sp, #12]
 8005cce:	2230      	movs	r2, #48	@ 0x30
 8005cd0:	9b03      	ldr	r3, [sp, #12]
 8005cd2:	454b      	cmp	r3, r9
 8005cd4:	d31e      	bcc.n	8005d14 <__cvt+0xc2>
 8005cd6:	9b03      	ldr	r3, [sp, #12]
 8005cd8:	9a0e      	ldr	r2, [sp, #56]	@ 0x38
 8005cda:	1b5b      	subs	r3, r3, r5
 8005cdc:	4628      	mov	r0, r5
 8005cde:	6013      	str	r3, [r2, #0]
 8005ce0:	b004      	add	sp, #16
 8005ce2:	e8bd 87f0 	ldmia.w	sp!, {r4, r5, r6, r7, r8, r9, sl, pc}
 8005ce6:	f1b8 0f46 	cmp.w	r8, #70	@ 0x46
 8005cea:	eb00 0904 	add.w	r9, r0, r4
 8005cee:	d1e5      	bne.n	8005cbc <__cvt+0x6a>
 8005cf0:	7803      	ldrb	r3, [r0, #0]
 8005cf2:	2b30      	cmp	r3, #48	@ 0x30
 8005cf4:	d10a      	bne.n	8005d0c <__cvt+0xba>
 8005cf6:	2200      	movs	r2, #0
 8005cf8:	2300      	movs	r3, #0
 8005cfa:	4630      	mov	r0, r6
 8005cfc:	4639      	mov	r1, r7
 8005cfe:	f7fa ff13 	bl	8000b28 <__aeabi_dcmpeq>
 8005d02:	b918      	cbnz	r0, 8005d0c <__cvt+0xba>
 8005d04:	f1c4 0401 	rsb	r4, r4, #1
 8005d08:	f8ca 4000 	str.w	r4, [sl]
 8005d0c:	f8da 3000 	ldr.w	r3, [sl]
 8005d10:	4499      	add	r9, r3
 8005d12:	e7d3      	b.n	8005cbc <__cvt+0x6a>
 8005d14:	1c59      	adds	r1, r3, #1
 8005d16:	9103      	str	r1, [sp, #12]
 8005d18:	701a      	strb	r2, [r3, #0]
 8005d1a:	e7d9      	b.n	8005cd0 <__cvt+0x7e>

08005d1c <__exponent>:
 8005d1c:	b5f7      	push	{r0, r1, r2, r4, r5, r6, r7, lr}
 8005d1e:	2900      	cmp	r1, #0
 8005d20:	bfba      	itte	lt
 8005d22:	4249      	neglt	r1, r1
 8005d24:	232d      	movlt	r3, #45	@ 0x2d
 8005d26:	232b      	movge	r3, #43	@ 0x2b
 8005d28:	2909      	cmp	r1, #9
 8005d2a:	7002      	strb	r2, [r0, #0]
 8005d2c:	7043      	strb	r3, [r0, #1]
 8005d2e:	dd29      	ble.n	8005d84 <__exponent+0x68>
 8005d30:	f10d 0307 	add.w	r3, sp, #7
 8005d34:	461d      	mov	r5, r3
 8005d36:	270a      	movs	r7, #10
 8005d38:	461a      	mov	r2, r3
 8005d3a:	fbb1 f6f7 	udiv	r6, r1, r7
 8005d3e:	fb07 1416 	mls	r4, r7, r6, r1
 8005d42:	3430      	adds	r4, #48	@ 0x30
 8005d44:	f802 4c01 	strb.w	r4, [r2, #-1]
 8005d48:	460c      	mov	r4, r1
 8005d4a:	2c63      	cmp	r4, #99	@ 0x63
 8005d4c:	f103 33ff 	add.w	r3, r3, #4294967295
 8005d50:	4631      	mov	r1, r6
 8005d52:	dcf1      	bgt.n	8005d38 <__exponent+0x1c>
 8005d54:	3130      	adds	r1, #48	@ 0x30
 8005d56:	1e94      	subs	r4, r2, #2
 8005d58:	f803 1c01 	strb.w	r1, [r3, #-1]
 8005d5c:	1c41      	adds	r1, r0, #1
 8005d5e:	4623      	mov	r3, r4
 8005d60:	42ab      	cmp	r3, r5
 8005d62:	d30a      	bcc.n	8005d7a <__exponent+0x5e>
 8005d64:	f10d 0309 	add.w	r3, sp, #9
 8005d68:	1a9b      	subs	r3, r3, r2
 8005d6a:	42ac      	cmp	r4, r5
 8005d6c:	bf88      	it	hi
 8005d6e:	2300      	movhi	r3, #0
 8005d70:	3302      	adds	r3, #2
 8005d72:	4403      	add	r3, r0
 8005d74:	1a18      	subs	r0, r3, r0
 8005d76:	b003      	add	sp, #12
 8005d78:	bdf0      	pop	{r4, r5, r6, r7, pc}
 8005d7a:	f813 6b01 	ldrb.w	r6, [r3], #1
 8005d7e:	f801 6f01 	strb.w	r6, [r1, #1]!
 8005d82:	e7ed      	b.n	8005d60 <__exponent+0x44>
 8005d84:	2330      	movs	r3, #48	@ 0x30
 8005d86:	3130      	adds	r1, #48	@ 0x30
 8005d88:	7083      	strb	r3, [r0, #2]
 8005d8a:	70c1      	strb	r1, [r0, #3]
 8005d8c:	1d03      	adds	r3, r0, #4
 8005d8e:	e7f1      	b.n	8005d74 <__exponent+0x58>

08005d90 <_printf_float>:
 8005d90:	e92d 4ff0 	stmdb	sp!, {r4, r5, r6, r7, r8, r9, sl, fp, lr}
 8005d94:	b08d      	sub	sp, #52	@ 0x34
 8005d96:	460c      	mov	r4, r1
 8005d98:	f8dd 8058 	ldr.w	r8, [sp, #88]	@ 0x58
 8005d9c:	4616      	mov	r6, r2
 8005d9e:	461f      	mov	r7, r3
 8005da0:	4605      	mov	r5, r0
 8005da2:	f000 fd6f 	bl	8006884 <_localeconv_r>
 8005da6:	6803      	ldr	r3, [r0, #0]
 8005da8:	9304      	str	r3, [sp, #16]
 8005daa:	4618      	mov	r0, r3
 8005dac:	f7fa fa90 	bl	80002d0 <strlen>
 8005db0:	2300      	movs	r3, #0
 8005db2:	930a      	str	r3, [sp, #40]	@ 0x28
 8005db4:	f8d8 3000 	ldr.w	r3, [r8]
 8005db8:	9005      	str	r0, [sp, #20]
 8005dba:	3307      	adds	r3, #7
 8005dbc:	f023 0307 	bic.w	r3, r3, #7
 8005dc0:	f103 0208 	add.w	r2, r3, #8
 8005dc4:	f894 a018 	ldrb.w	sl, [r4, #24]
 8005dc8:	f8d4 b000 	ldr.w	fp, [r4]
 8005dcc:	f8c8 2000 	str.w	r2, [r8]
 8005dd0:	e9d3 8900 	ldrd	r8, r9, [r3]
 8005dd4:	f029 4300 	bic.w	r3, r9, #2147483648	@ 0x80000000
 8005dd8:	9307      	str	r3, [sp, #28]
 8005dda:	f8cd 8018 	str.w	r8, [sp, #24]
 8005dde:	e9c4 8912 	strd	r8, r9, [r4, #72]	@ 0x48
 8005de2:	e9dd 0106 	ldrd	r0, r1, [sp, #24]
 8005de6:	4b9c      	ldr	r3, [pc, #624]	@ (8006058 <_printf_float+0x2c8>)
 8005de8:	f04f 32ff 	mov.w	r2, #4294967295
 8005dec:	f7fa fece 	bl	8000b8c <__aeabi_dcmpun>
 8005df0:	bb70      	cbnz	r0, 8005e50 <_printf_float+0xc0>
 8005df2:	e9dd 0106 	ldrd	r0, r1, [sp, #24]
 8005df6:	4b98      	ldr	r3, [pc, #608]	@ (8006058 <_printf_float+0x2c8>)
 8005df8:	f04f 32ff 	mov.w	r2, #4294967295
 8005dfc:	f7fa fea8 	bl	8000b50 <__aeabi_dcmple>
 8005e00:	bb30      	cbnz	r0, 8005e50 <_printf_float+0xc0>
 8005e02:	2200      	movs	r2, #0
 8005e04:	2300      	movs	r3, #0
 8005e06:	4640      	mov	r0, r8
 8005e08:	4649      	mov	r1, r9
 8005e0a:	f7fa fe97 	bl	8000b3c <__aeabi_dcmplt>
 8005e0e:	b110      	cbz	r0, 8005e16 <_printf_float+0x86>
 8005e10:	232d      	movs	r3, #45	@ 0x2d
 8005e12:	f884 3043 	strb.w	r3, [r4, #67]	@ 0x43
 8005e16:	4a91      	ldr	r2, [pc, #580]	@ (800605c <_printf_float+0x2cc>)
 8005e18:	4b91      	ldr	r3, [pc, #580]	@ (8006060 <_printf_float+0x2d0>)
 8005e1a:	f1ba 0f47 	cmp.w	sl, #71	@ 0x47
 8005e1e:	bf8c      	ite	hi
 8005e20:	4690      	movhi	r8, r2
 8005e22:	4698      	movls	r8, r3
 8005e24:	2303      	movs	r3, #3
 8005e26:	6123      	str	r3, [r4, #16]
 8005e28:	f02b 0304 	bic.w	r3, fp, #4
 8005e2c:	6023      	str	r3, [r4, #0]
 8005e2e:	f04f 0900 	mov.w	r9, #0
 8005e32:	9700      	str	r7, [sp, #0]
 8005e34:	4633      	mov	r3, r6
 8005e36:	aa0b      	add	r2, sp, #44	@ 0x2c
 8005e38:	4621      	mov	r1, r4
 8005e3a:	4628      	mov	r0, r5
 8005e3c:	f000 f9d2 	bl	80061e4 <_printf_common>
 8005e40:	3001      	adds	r0, #1
 8005e42:	f040 808d 	bne.w	8005f60 <_printf_float+0x1d0>
 8005e46:	f04f 30ff 	mov.w	r0, #4294967295
 8005e4a:	b00d      	add	sp, #52	@ 0x34
 8005e4c:	e8bd 8ff0 	ldmia.w	sp!, {r4, r5, r6, r7, r8, r9, sl, fp, pc}
 8005e50:	4642      	mov	r2, r8
 8005e52:	464b      	mov	r3, r9
 8005e54:	4640      	mov	r0, r8
 8005e56:	4649      	mov	r1, r9
 8005e58:	f7fa fe98 	bl	8000b8c <__aeabi_dcmpun>
 8005e5c:	b140      	cbz	r0, 8005e70 <_printf_float+0xe0>
 8005e5e:	464b      	mov	r3, r9
 8005e60:	2b00      	cmp	r3, #0
 8005e62:	bfbc      	itt	lt
 8005e64:	232d      	movlt	r3, #45	@ 0x2d
 8005e66:	f884 3043 	strblt.w	r3, [r4, #67]	@ 0x43
 8005e6a:	4a7e      	ldr	r2, [pc, #504]	@ (8006064 <_printf_float+0x2d4>)
 8005e6c:	4b7e      	ldr	r3, [pc, #504]	@ (8006068 <_printf_float+0x2d8>)
 8005e6e:	e7d4      	b.n	8005e1a <_printf_float+0x8a>
 8005e70:	6863      	ldr	r3, [r4, #4]
 8005e72:	f00a 02df 	and.w	r2, sl, #223	@ 0xdf
 8005e76:	9206      	str	r2, [sp, #24]
 8005e78:	1c5a      	adds	r2, r3, #1
 8005e7a:	d13b      	bne.n	8005ef4 <_printf_float+0x164>
 8005e7c:	2306      	movs	r3, #6
 8005e7e:	6063      	str	r3, [r4, #4]
 8005e80:	f44b 6280 	orr.w	r2, fp, #1024	@ 0x400
 8005e84:	2300      	movs	r3, #0
 8005e86:	6022      	str	r2, [r4, #0]
 8005e88:	9303      	str	r3, [sp, #12]
 8005e8a:	ab0a      	add	r3, sp, #40	@ 0x28
 8005e8c:	e9cd a301 	strd	sl, r3, [sp, #4]
 8005e90:	ab09      	add	r3, sp, #36	@ 0x24
 8005e92:	9300      	str	r3, [sp, #0]
 8005e94:	6861      	ldr	r1, [r4, #4]
 8005e96:	ec49 8b10 	vmov	d0, r8, r9
 8005e9a:	f10d 0323 	add.w	r3, sp, #35	@ 0x23
 8005e9e:	4628      	mov	r0, r5
 8005ea0:	f7ff fed7 	bl	8005c52 <__cvt>
 8005ea4:	9b06      	ldr	r3, [sp, #24]
 8005ea6:	9909      	ldr	r1, [sp, #36]	@ 0x24
 8005ea8:	2b47      	cmp	r3, #71	@ 0x47
 8005eaa:	4680      	mov	r8, r0
 8005eac:	d129      	bne.n	8005f02 <_printf_float+0x172>
 8005eae:	1cc8      	adds	r0, r1, #3
 8005eb0:	db02      	blt.n	8005eb8 <_printf_float+0x128>
 8005eb2:	6863      	ldr	r3, [r4, #4]
 8005eb4:	4299      	cmp	r1, r3
 8005eb6:	dd41      	ble.n	8005f3c <_printf_float+0x1ac>
 8005eb8:	f1aa 0a02 	sub.w	sl, sl, #2
 8005ebc:	fa5f fa8a 	uxtb.w	sl, sl
 8005ec0:	3901      	subs	r1, #1
 8005ec2:	4652      	mov	r2, sl
 8005ec4:	f104 0050 	add.w	r0, r4, #80	@ 0x50
 8005ec8:	9109      	str	r1, [sp, #36]	@ 0x24
 8005eca:	f7ff ff27 	bl	8005d1c <__exponent>
 8005ece:	9a0a      	ldr	r2, [sp, #40]	@ 0x28
 8005ed0:	1813      	adds	r3, r2, r0
 8005ed2:	2a01      	cmp	r2, #1
 8005ed4:	4681      	mov	r9, r0
 8005ed6:	6123      	str	r3, [r4, #16]
 8005ed8:	dc02      	bgt.n	8005ee0 <_printf_float+0x150>
 8005eda:	6822      	ldr	r2, [r4, #0]
 8005edc:	07d2      	lsls	r2, r2, #31
 8005ede:	d501      	bpl.n	8005ee4 <_printf_float+0x154>
 8005ee0:	3301      	adds	r3, #1
 8005ee2:	6123      	str	r3, [r4, #16]
 8005ee4:	f89d 3023 	ldrb.w	r3, [sp, #35]	@ 0x23
 8005ee8:	2b00      	cmp	r3, #0
 8005eea:	d0a2      	beq.n	8005e32 <_printf_float+0xa2>
 8005eec:	232d      	movs	r3, #45	@ 0x2d
 8005eee:	f884 3043 	strb.w	r3, [r4, #67]	@ 0x43
 8005ef2:	e79e      	b.n	8005e32 <_printf_float+0xa2>
 8005ef4:	9a06      	ldr	r2, [sp, #24]
 8005ef6:	2a47      	cmp	r2, #71	@ 0x47
 8005ef8:	d1c2      	bne.n	8005e80 <_printf_float+0xf0>
 8005efa:	2b00      	cmp	r3, #0
 8005efc:	d1c0      	bne.n	8005e80 <_printf_float+0xf0>
 8005efe:	2301      	movs	r3, #1
 8005f00:	e7bd      	b.n	8005e7e <_printf_float+0xee>
 8005f02:	f1ba 0f65 	cmp.w	sl, #101	@ 0x65
 8005f06:	d9db      	bls.n	8005ec0 <_printf_float+0x130>
 8005f08:	f1ba 0f66 	cmp.w	sl, #102	@ 0x66
 8005f0c:	d118      	bne.n	8005f40 <_printf_float+0x1b0>
 8005f0e:	2900      	cmp	r1, #0
 8005f10:	6863      	ldr	r3, [r4, #4]
 8005f12:	dd0b      	ble.n	8005f2c <_printf_float+0x19c>
 8005f14:	6121      	str	r1, [r4, #16]
 8005f16:	b913      	cbnz	r3, 8005f1e <_printf_float+0x18e>
 8005f18:	6822      	ldr	r2, [r4, #0]
 8005f1a:	07d0      	lsls	r0, r2, #31
 8005f1c:	d502      	bpl.n	8005f24 <_printf_float+0x194>
 8005f1e:	3301      	adds	r3, #1
 8005f20:	440b      	add	r3, r1
 8005f22:	6123      	str	r3, [r4, #16]
 8005f24:	65a1      	str	r1, [r4, #88]	@ 0x58
 8005f26:	f04f 0900 	mov.w	r9, #0
 8005f2a:	e7db      	b.n	8005ee4 <_printf_float+0x154>
 8005f2c:	b913      	cbnz	r3, 8005f34 <_printf_float+0x1a4>
 8005f2e:	6822      	ldr	r2, [r4, #0]
 8005f30:	07d2      	lsls	r2, r2, #31
 8005f32:	d501      	bpl.n	8005f38 <_printf_float+0x1a8>
 8005f34:	3302      	adds	r3, #2
 8005f36:	e7f4      	b.n	8005f22 <_printf_float+0x192>
 8005f38:	2301      	movs	r3, #1
 8005f3a:	e7f2      	b.n	8005f22 <_printf_float+0x192>
 8005f3c:	f04f 0a67 	mov.w	sl, #103	@ 0x67
 8005f40:	9b0a      	ldr	r3, [sp, #40]	@ 0x28
 8005f42:	4299      	cmp	r1, r3
 8005f44:	db05      	blt.n	8005f52 <_printf_float+0x1c2>
 8005f46:	6823      	ldr	r3, [r4, #0]
 8005f48:	6121      	str	r1, [r4, #16]
 8005f4a:	07d8      	lsls	r0, r3, #31
 8005f4c:	d5ea      	bpl.n	8005f24 <_printf_float+0x194>
 8005f4e:	1c4b      	adds	r3, r1, #1
 8005f50:	e7e7      	b.n	8005f22 <_printf_float+0x192>
 8005f52:	2900      	cmp	r1, #0
 8005f54:	bfd4      	ite	le
 8005f56:	f1c1 0202 	rsble	r2, r1, #2
 8005f5a:	2201      	movgt	r2, #1
 8005f5c:	4413      	add	r3, r2
 8005f5e:	e7e0      	b.n	8005f22 <_printf_float+0x192>
 8005f60:	6823      	ldr	r3, [r4, #0]
 8005f62:	055a      	lsls	r2, r3, #21
 8005f64:	d407      	bmi.n	8005f76 <_printf_float+0x1e6>
 8005f66:	6923      	ldr	r3, [r4, #16]
 8005f68:	4642      	mov	r2, r8
 8005f6a:	4631      	mov	r1, r6
 8005f6c:	4628      	mov	r0, r5
 8005f6e:	47b8      	blx	r7
 8005f70:	3001      	adds	r0, #1
 8005f72:	d12b      	bne.n	8005fcc <_printf_float+0x23c>
 8005f74:	e767      	b.n	8005e46 <_printf_float+0xb6>
 8005f76:	f1ba 0f65 	cmp.w	sl, #101	@ 0x65
 8005f7a:	f240 80dd 	bls.w	8006138 <_printf_float+0x3a8>
 8005f7e:	e9d4 0112 	ldrd	r0, r1, [r4, #72]	@ 0x48
 8005f82:	2200      	movs	r2, #0
 8005f84:	2300      	movs	r3, #0
 8005f86:	f7fa fdcf 	bl	8000b28 <__aeabi_dcmpeq>
 8005f8a:	2800      	cmp	r0, #0
 8005f8c:	d033      	beq.n	8005ff6 <_printf_float+0x266>
 8005f8e:	4a37      	ldr	r2, [pc, #220]	@ (800606c <_printf_float+0x2dc>)
 8005f90:	2301      	movs	r3, #1
 8005f92:	4631      	mov	r1, r6
 8005f94:	4628      	mov	r0, r5
 8005f96:	47b8      	blx	r7
 8005f98:	3001      	adds	r0, #1
 8005f9a:	f43f af54 	beq.w	8005e46 <_printf_float+0xb6>
 8005f9e:	e9dd 3809 	ldrd	r3, r8, [sp, #36]	@ 0x24
 8005fa2:	4543      	cmp	r3, r8
 8005fa4:	db02      	blt.n	8005fac <_printf_float+0x21c>
 8005fa6:	6823      	ldr	r3, [r4, #0]
 8005fa8:	07d8      	lsls	r0, r3, #31
 8005faa:	d50f      	bpl.n	8005fcc <_printf_float+0x23c>
 8005fac:	e9dd 2304 	ldrd	r2, r3, [sp, #16]
 8005fb0:	4631      	mov	r1, r6
 8005fb2:	4628      	mov	r0, r5
 8005fb4:	47b8      	blx	r7
 8005fb6:	3001      	adds	r0, #1
 8005fb8:	f43f af45 	beq.w	8005e46 <_printf_float+0xb6>
 8005fbc:	f04f 0900 	mov.w	r9, #0
 8005fc0:	f108 38ff 	add.w	r8, r8, #4294967295
 8005fc4:	f104 0a1a 	add.w	sl, r4, #26
 8005fc8:	45c8      	cmp	r8, r9
 8005fca:	dc09      	bgt.n	8005fe0 <_printf_float+0x250>
 8005fcc:	6823      	ldr	r3, [r4, #0]
 8005fce:	079b      	lsls	r3, r3, #30
 8005fd0:	f100 8103 	bmi.w	80061da <_printf_float+0x44a>
 8005fd4:	68e0      	ldr	r0, [r4, #12]
 8005fd6:	9b0b      	ldr	r3, [sp, #44]	@ 0x2c
 8005fd8:	4298      	cmp	r0, r3
 8005fda:	bfb8      	it	lt
 8005fdc:	4618      	movlt	r0, r3
 8005fde:	e734      	b.n	8005e4a <_printf_float+0xba>
 8005fe0:	2301      	movs	r3, #1
 8005fe2:	4652      	mov	r2, sl
 8005fe4:	4631      	mov	r1, r6
 8005fe6:	4628      	mov	r0, r5
 8005fe8:	47b8      	blx	r7
 8005fea:	3001      	adds	r0, #1
 8005fec:	f43f af2b 	beq.w	8005e46 <_printf_float+0xb6>
 8005ff0:	f109 0901 	add.w	r9, r9, #1
 8005ff4:	e7e8      	b.n	8005fc8 <_printf_float+0x238>
 8005ff6:	9b09      	ldr	r3, [sp, #36]	@ 0x24
 8005ff8:	2b00      	cmp	r3, #0
 8005ffa:	dc39      	bgt.n	8006070 <_printf_float+0x2e0>
 8005ffc:	4a1b      	ldr	r2, [pc, #108]	@ (800606c <_printf_float+0x2dc>)
 8005ffe:	2301      	movs	r3, #1
 8006000:	4631      	mov	r1, r6
 8006002:	4628      	mov	r0, r5
 8006004:	47b8      	blx	r7
 8006006:	3001      	adds	r0, #1
 8006008:	f43f af1d 	beq.w	8005e46 <_printf_float+0xb6>
 800600c:	e9dd 3909 	ldrd	r3, r9, [sp, #36]	@ 0x24
 8006010:	ea59 0303 	orrs.w	r3, r9, r3
 8006014:	d102      	bne.n	800601c <_printf_float+0x28c>
 8006016:	6823      	ldr	r3, [r4, #0]
 8006018:	07d9      	lsls	r1, r3, #31
 800601a:	d5d7      	bpl.n	8005fcc <_printf_float+0x23c>
 800601c:	e9dd 2304 	ldrd	r2, r3, [sp, #16]
 8006020:	4631      	mov	r1, r6
 8006022:	4628      	mov	r0, r5
 8006024:	47b8      	blx	r7
 8006026:	3001      	adds	r0, #1
 8006028:	f43f af0d 	beq.w	8005e46 <_printf_float+0xb6>
 800602c:	f04f 0a00 	mov.w	sl, #0
 8006030:	f104 0b1a 	add.w	fp, r4, #26
 8006034:	9b09      	ldr	r3, [sp, #36]	@ 0x24
 8006036:	425b      	negs	r3, r3
 8006038:	4553      	cmp	r3, sl
 800603a:	dc01      	bgt.n	8006040 <_printf_float+0x2b0>
 800603c:	464b      	mov	r3, r9
 800603e:	e793      	b.n	8005f68 <_printf_float+0x1d8>
 8006040:	2301      	movs	r3, #1
 8006042:	465a      	mov	r2, fp
 8006044:	4631      	mov	r1, r6
 8006046:	4628      	mov	r0, r5
 8006048:	47b8      	blx	r7
 800604a:	3001      	adds	r0, #1
 800604c:	f43f aefb 	beq.w	8005e46 <_printf_float+0xb6>
 8006050:	f10a 0a01 	add.w	sl, sl, #1
 8006054:	e7ee      	b.n	8006034 <_printf_float+0x2a4>
 8006056:	bf00      	nop
 8006058:	7fefffff 	.word	0x7fefffff
 800605c:	08009964 	.word	0x08009964
 8006060:	08009960 	.word	0x08009960
 8006064:	0800996c 	.word	0x0800996c
 8006068:	08009968 	.word	0x08009968
 800606c:	08009970 	.word	0x08009970
 8006070:	6da3      	ldr	r3, [r4, #88]	@ 0x58
 8006072:	f8dd a028 	ldr.w	sl, [sp, #40]	@ 0x28
 8006076:	4553      	cmp	r3, sl
 8006078:	bfa8      	it	ge
 800607a:	4653      	movge	r3, sl
 800607c:	2b00      	cmp	r3, #0
 800607e:	4699      	mov	r9, r3
 8006080:	dc36      	bgt.n	80060f0 <_printf_float+0x360>
 8006082:	f04f 0b00 	mov.w	fp, #0
 8006086:	ea29 79e9 	bic.w	r9, r9, r9, asr #31
 800608a:	f104 021a 	add.w	r2, r4, #26
 800608e:	6da3      	ldr	r3, [r4, #88]	@ 0x58
 8006090:	9306      	str	r3, [sp, #24]
 8006092:	eba3 0309 	sub.w	r3, r3, r9
 8006096:	455b      	cmp	r3, fp
 8006098:	dc31      	bgt.n	80060fe <_printf_float+0x36e>
 800609a:	9b09      	ldr	r3, [sp, #36]	@ 0x24
 800609c:	459a      	cmp	sl, r3
 800609e:	dc3a      	bgt.n	8006116 <_printf_float+0x386>
 80060a0:	6823      	ldr	r3, [r4, #0]
 80060a2:	07da      	lsls	r2, r3, #31
 80060a4:	d437      	bmi.n	8006116 <_printf_float+0x386>
 80060a6:	9b09      	ldr	r3, [sp, #36]	@ 0x24
 80060a8:	ebaa 0903 	sub.w	r9, sl, r3
 80060ac:	9b06      	ldr	r3, [sp, #24]
 80060ae:	ebaa 0303 	sub.w	r3, sl, r3
 80060b2:	4599      	cmp	r9, r3
 80060b4:	bfa8      	it	ge
 80060b6:	4699      	movge	r9, r3
 80060b8:	f1b9 0f00 	cmp.w	r9, #0
 80060bc:	dc33      	bgt.n	8006126 <_printf_float+0x396>
 80060be:	f04f 0800 	mov.w	r8, #0
 80060c2:	ea29 79e9 	bic.w	r9, r9, r9, asr #31
 80060c6:	f104 0b1a 	add.w	fp, r4, #26
 80060ca:	9b09      	ldr	r3, [sp, #36]	@ 0x24
 80060cc:	ebaa 0303 	sub.w	r3, sl, r3
 80060d0:	eba3 0309 	sub.w	r3, r3, r9
 80060d4:	4543      	cmp	r3, r8
 80060d6:	f77f af79 	ble.w	8005fcc <_printf_float+0x23c>
 80060da:	2301      	movs	r3, #1
 80060dc:	465a      	mov	r2, fp
 80060de:	4631      	mov	r1, r6
 80060e0:	4628      	mov	r0, r5
 80060e2:	47b8      	blx	r7
 80060e4:	3001      	adds	r0, #1
 80060e6:	f43f aeae 	beq.w	8005e46 <_printf_float+0xb6>
 80060ea:	f108 0801 	add.w	r8, r8, #1
 80060ee:	e7ec      	b.n	80060ca <_printf_float+0x33a>
 80060f0:	4642      	mov	r2, r8
 80060f2:	4631      	mov	r1, r6
 80060f4:	4628      	mov	r0, r5
 80060f6:	47b8      	blx	r7
 80060f8:	3001      	adds	r0, #1
 80060fa:	d1c2      	bne.n	8006082 <_printf_float+0x2f2>
 80060fc:	e6a3      	b.n	8005e46 <_printf_float+0xb6>
 80060fe:	2301      	movs	r3, #1
 8006100:	4631      	mov	r1, r6
 8006102:	4628      	mov	r0, r5
 8006104:	9206      	str	r2, [sp, #24]
 8006106:	47b8      	blx	r7
 8006108:	3001      	adds	r0, #1
 800610a:	f43f ae9c 	beq.w	8005e46 <_printf_float+0xb6>
 800610e:	9a06      	ldr	r2, [sp, #24]
 8006110:	f10b 0b01 	add.w	fp, fp, #1
 8006114:	e7bb      	b.n	800608e <_printf_float+0x2fe>
 8006116:	e9dd 2304 	ldrd	r2, r3, [sp, #16]
 800611a:	4631      	mov	r1, r6
 800611c:	4628      	mov	r0, r5
 800611e:	47b8      	blx	r7
 8006120:	3001      	adds	r0, #1
 8006122:	d1c0      	bne.n	80060a6 <_printf_float+0x316>
 8006124:	e68f      	b.n	8005e46 <_printf_float+0xb6>
 8006126:	9a06      	ldr	r2, [sp, #24]
 8006128:	464b      	mov	r3, r9
 800612a:	4442      	add	r2, r8
 800612c:	4631      	mov	r1, r6
 800612e:	4628      	mov	r0, r5
 8006130:	47b8      	blx	r7
 8006132:	3001      	adds	r0, #1
 8006134:	d1c3      	bne.n	80060be <_printf_float+0x32e>
 8006136:	e686      	b.n	8005e46 <_printf_float+0xb6>
 8006138:	f8dd a028 	ldr.w	sl, [sp, #40]	@ 0x28
 800613c:	f1ba 0f01 	cmp.w	sl, #1
 8006140:	dc01      	bgt.n	8006146 <_printf_float+0x3b6>
 8006142:	07db      	lsls	r3, r3, #31
 8006144:	d536      	bpl.n	80061b4 <_printf_float+0x424>
 8006146:	2301      	movs	r3, #1
 8006148:	4642      	mov	r2, r8
 800614a:	4631      	mov	r1, r6
 800614c:	4628      	mov	r0, r5
 800614e:	47b8      	blx	r7
 8006150:	3001      	adds	r0, #1
 8006152:	f43f ae78 	beq.w	8005e46 <_printf_float+0xb6>
 8006156:	e9dd 2304 	ldrd	r2, r3, [sp, #16]
 800615a:	4631      	mov	r1, r6
 800615c:	4628      	mov	r0, r5
 800615e:	47b8      	blx	r7
 8006160:	3001      	adds	r0, #1
 8006162:	f43f ae70 	beq.w	8005e46 <_printf_float+0xb6>
 8006166:	e9d4 0112 	ldrd	r0, r1, [r4, #72]	@ 0x48
 800616a:	2200      	movs	r2, #0
 800616c:	2300      	movs	r3, #0
 800616e:	f10a 3aff 	add.w	sl, sl, #4294967295
 8006172:	f7fa fcd9 	bl	8000b28 <__aeabi_dcmpeq>
 8006176:	b9c0      	cbnz	r0, 80061aa <_printf_float+0x41a>
 8006178:	4653      	mov	r3, sl
 800617a:	f108 0201 	add.w	r2, r8, #1
 800617e:	4631      	mov	r1, r6
 8006180:	4628      	mov	r0, r5
 8006182:	47b8      	blx	r7
 8006184:	3001      	adds	r0, #1
 8006186:	d10c      	bne.n	80061a2 <_printf_float+0x412>
 8006188:	e65d      	b.n	8005e46 <_printf_float+0xb6>
 800618a:	2301      	movs	r3, #1
 800618c:	465a      	mov	r2, fp
 800618e:	4631      	mov	r1, r6
 8006190:	4628      	mov	r0, r5
 8006192:	47b8      	blx	r7
 8006194:	3001      	adds	r0, #1
 8006196:	f43f ae56 	beq.w	8005e46 <_printf_float+0xb6>
 800619a:	f108 0801 	add.w	r8, r8, #1
 800619e:	45d0      	cmp	r8, sl
 80061a0:	dbf3      	blt.n	800618a <_printf_float+0x3fa>
 80061a2:	464b      	mov	r3, r9
 80061a4:	f104 0250 	add.w	r2, r4, #80	@ 0x50
 80061a8:	e6df      	b.n	8005f6a <_printf_float+0x1da>
 80061aa:	f04f 0800 	mov.w	r8, #0
 80061ae:	f104 0b1a 	add.w	fp, r4, #26
 80061b2:	e7f4      	b.n	800619e <_printf_float+0x40e>
 80061b4:	2301      	movs	r3, #1
 80061b6:	4642      	mov	r2, r8
 80061b8:	e7e1      	b.n	800617e <_printf_float+0x3ee>
 80061ba:	2301      	movs	r3, #1
 80061bc:	464a      	mov	r2, r9
 80061be:	4631      	mov	r1, r6
 80061c0:	4628      	mov	r0, r5
 80061c2:	47b8      	blx	r7
 80061c4:	3001      	adds	r0, #1
 80061c6:	f43f ae3e 	beq.w	8005e46 <_printf_float+0xb6>
 80061ca:	f108 0801 	add.w	r8, r8, #1
 80061ce:	68e3      	ldr	r3, [r4, #12]
 80061d0:	990b      	ldr	r1, [sp, #44]	@ 0x2c
 80061d2:	1a5b      	subs	r3, r3, r1
 80061d4:	4543      	cmp	r3, r8
 80061d6:	dcf0      	bgt.n	80061ba <_printf_float+0x42a>
 80061d8:	e6fc      	b.n	8005fd4 <_printf_float+0x244>
 80061da:	f04f 0800 	mov.w	r8, #0
 80061de:	f104 0919 	add.w	r9, r4, #25
 80061e2:	e7f4      	b.n	80061ce <_printf_float+0x43e>

080061e4 <_printf_common>:
 80061e4:	e92d 47f0 	stmdb	sp!, {r4, r5, r6, r7, r8, r9, sl, lr}
 80061e8:	4616      	mov	r6, r2
 80061ea:	4698      	mov	r8, r3
 80061ec:	688a      	ldr	r2, [r1, #8]
 80061ee:	690b      	ldr	r3, [r1, #16]
 80061f0:	f8dd 9020 	ldr.w	r9, [sp, #32]
 80061f4:	4293      	cmp	r3, r2
 80061f6:	bfb8      	it	lt
 80061f8:	4613      	movlt	r3, r2
 80061fa:	6033      	str	r3, [r6, #0]
 80061fc:	f891 2043 	ldrb.w	r2, [r1, #67]	@ 0x43
 8006200:	4607      	mov	r7, r0
 8006202:	460c      	mov	r4, r1
 8006204:	b10a      	cbz	r2, 800620a <_printf_common+0x26>
 8006206:	3301      	adds	r3, #1
 8006208:	6033      	str	r3, [r6, #0]
 800620a:	6823      	ldr	r3, [r4, #0]
 800620c:	0699      	lsls	r1, r3, #26
 800620e:	bf42      	ittt	mi
 8006210:	6833      	ldrmi	r3, [r6, #0]
 8006212:	3302      	addmi	r3, #2
 8006214:	6033      	strmi	r3, [r6, #0]
 8006216:	6825      	ldr	r5, [r4, #0]
 8006218:	f015 0506 	ands.w	r5, r5, #6
 800621c:	d106      	bne.n	800622c <_printf_common+0x48>
 800621e:	f104 0a19 	add.w	sl, r4, #25
 8006222:	68e3      	ldr	r3, [r4, #12]
 8006224:	6832      	ldr	r2, [r6, #0]
 8006226:	1a9b      	subs	r3, r3, r2
 8006228:	42ab      	cmp	r3, r5
 800622a:	dc26      	bgt.n	800627a <_printf_common+0x96>
 800622c:	f894 3043 	ldrb.w	r3, [r4, #67]	@ 0x43
 8006230:	6822      	ldr	r2, [r4, #0]
 8006232:	3b00      	subs	r3, #0
 8006234:	bf18      	it	ne
 8006236:	2301      	movne	r3, #1
 8006238:	0692      	lsls	r2, r2, #26
 800623a:	d42b      	bmi.n	8006294 <_printf_common+0xb0>
 800623c:	f104 0243 	add.w	r2, r4, #67	@ 0x43
 8006240:	4641      	mov	r1, r8
 8006242:	4638      	mov	r0, r7
 8006244:	47c8      	blx	r9
 8006246:	3001      	adds	r0, #1
 8006248:	d01e      	beq.n	8006288 <_printf_common+0xa4>
 800624a:	6823      	ldr	r3, [r4, #0]
 800624c:	6922      	ldr	r2, [r4, #16]
 800624e:	f003 0306 	and.w	r3, r3, #6
 8006252:	2b04      	cmp	r3, #4
 8006254:	bf02      	ittt	eq
 8006256:	68e5      	ldreq	r5, [r4, #12]
 8006258:	6833      	ldreq	r3, [r6, #0]
 800625a:	1aed      	subeq	r5, r5, r3
 800625c:	68a3      	ldr	r3, [r4, #8]
 800625e:	bf0c      	ite	eq
 8006260:	ea25 75e5 	biceq.w	r5, r5, r5, asr #31
 8006264:	2500      	movne	r5, #0
 8006266:	4293      	cmp	r3, r2
 8006268:	bfc4      	itt	gt
 800626a:	1a9b      	subgt	r3, r3, r2
 800626c:	18ed      	addgt	r5, r5, r3
 800626e:	2600      	movs	r6, #0
 8006270:	341a      	adds	r4, #26
 8006272:	42b5      	cmp	r5, r6
 8006274:	d11a      	bne.n	80062ac <_printf_common+0xc8>
 8006276:	2000      	movs	r0, #0
 8006278:	e008      	b.n	800628c <_printf_common+0xa8>
 800627a:	2301      	movs	r3, #1
 800627c:	4652      	mov	r2, sl
 800627e:	4641      	mov	r1, r8
 8006280:	4638      	mov	r0, r7
 8006282:	47c8      	blx	r9
 8006284:	3001      	adds	r0, #1
 8006286:	d103      	bne.n	8006290 <_printf_common+0xac>
 8006288:	f04f 30ff 	mov.w	r0, #4294967295
 800628c:	e8bd 87f0 	ldmia.w	sp!, {r4, r5, r6, r7, r8, r9, sl, pc}
 8006290:	3501      	adds	r5, #1
 8006292:	e7c6      	b.n	8006222 <_printf_common+0x3e>
 8006294:	18e1      	adds	r1, r4, r3
 8006296:	1c5a      	adds	r2, r3, #1
 8006298:	2030      	movs	r0, #48	@ 0x30
 800629a:	f881 0043 	strb.w	r0, [r1, #67]	@ 0x43
 800629e:	4422      	add	r2, r4
 80062a0:	f894 1045 	ldrb.w	r1, [r4, #69]	@ 0x45
 80062a4:	f882 1043 	strb.w	r1, [r2, #67]	@ 0x43
 80062a8:	3302      	adds	r3, #2
 80062aa:	e7c7      	b.n	800623c <_printf_common+0x58>
 80062ac:	2301      	movs	r3, #1
 80062ae:	4622      	mov	r2, r4
 80062b0:	4641      	mov	r1, r8
 80062b2:	4638      	mov	r0, r7
 80062b4:	47c8      	blx	r9
 80062b6:	3001      	adds	r0, #1
 80062b8:	d0e6      	beq.n	8006288 <_printf_common+0xa4>
 80062ba:	3601      	adds	r6, #1
 80062bc:	e7d9      	b.n	8006272 <_printf_common+0x8e>
	...

080062c0 <_printf_i>:
 80062c0:	e92d 47ff 	stmdb	sp!, {r0, r1, r2, r3, r4, r5, r6, r7, r8, r9, sl, lr}
 80062c4:	7e0f      	ldrb	r7, [r1, #24]
 80062c6:	9e0c      	ldr	r6, [sp, #48]	@ 0x30
 80062c8:	2f78      	cmp	r7, #120	@ 0x78
 80062ca:	4691      	mov	r9, r2
 80062cc:	4680      	mov	r8, r0
 80062ce:	460c      	mov	r4, r1
 80062d0:	469a      	mov	sl, r3
 80062d2:	f101 0243 	add.w	r2, r1, #67	@ 0x43
 80062d6:	d807      	bhi.n	80062e8 <_printf_i+0x28>
 80062d8:	2f62      	cmp	r7, #98	@ 0x62
 80062da:	d80a      	bhi.n	80062f2 <_printf_i+0x32>
 80062dc:	2f00      	cmp	r7, #0
 80062de:	f000 80d1 	beq.w	8006484 <_printf_i+0x1c4>
 80062e2:	2f58      	cmp	r7, #88	@ 0x58
 80062e4:	f000 80b8 	beq.w	8006458 <_printf_i+0x198>
 80062e8:	f104 0642 	add.w	r6, r4, #66	@ 0x42
 80062ec:	f884 7042 	strb.w	r7, [r4, #66]	@ 0x42
 80062f0:	e03a      	b.n	8006368 <_printf_i+0xa8>
 80062f2:	f1a7 0363 	sub.w	r3, r7, #99	@ 0x63
 80062f6:	2b15      	cmp	r3, #21
 80062f8:	d8f6      	bhi.n	80062e8 <_printf_i+0x28>
 80062fa:	a101      	add	r1, pc, #4	@ (adr r1, 8006300 <_printf_i+0x40>)
 80062fc:	f851 f023 	ldr.w	pc, [r1, r3, lsl #2]
 8006300:	08006359 	.word	0x08006359
 8006304:	0800636d 	.word	0x0800636d
 8006308:	080062e9 	.word	0x080062e9
 800630c:	080062e9 	.word	0x080062e9
 8006310:	080062e9 	.word	0x080062e9
 8006314:	080062e9 	.word	0x080062e9
 8006318:	0800636d 	.word	0x0800636d
 800631c:	080062e9 	.word	0x080062e9
 8006320:	080062e9 	.word	0x080062e9
 8006324:	080062e9 	.word	0x080062e9
 8006328:	080062e9 	.word	0x080062e9
 800632c:	0800646b 	.word	0x0800646b
 8006330:	08006397 	.word	0x08006397
 8006334:	08006425 	.word	0x08006425
 8006338:	080062e9 	.word	0x080062e9
 800633c:	080062e9 	.word	0x080062e9
 8006340:	0800648d 	.word	0x0800648d
 8006344:	080062e9 	.word	0x080062e9
 8006348:	08006397 	.word	0x08006397
 800634c:	080062e9 	.word	0x080062e9
 8006350:	080062e9 	.word	0x080062e9
 8006354:	0800642d 	.word	0x0800642d
 8006358:	6833      	ldr	r3, [r6, #0]
 800635a:	1d1a      	adds	r2, r3, #4
 800635c:	681b      	ldr	r3, [r3, #0]
 800635e:	6032      	str	r2, [r6, #0]
 8006360:	f104 0642 	add.w	r6, r4, #66	@ 0x42
 8006364:	f884 3042 	strb.w	r3, [r4, #66]	@ 0x42
 8006368:	2301      	movs	r3, #1
 800636a:	e09c      	b.n	80064a6 <_printf_i+0x1e6>
 800636c:	6833      	ldr	r3, [r6, #0]
 800636e:	6820      	ldr	r0, [r4, #0]
 8006370:	1d19      	adds	r1, r3, #4
 8006372:	6031      	str	r1, [r6, #0]
 8006374:	0606      	lsls	r6, r0, #24
 8006376:	d501      	bpl.n	800637c <_printf_i+0xbc>
 8006378:	681d      	ldr	r5, [r3, #0]
 800637a:	e003      	b.n	8006384 <_printf_i+0xc4>
 800637c:	0645      	lsls	r5, r0, #25
 800637e:	d5fb      	bpl.n	8006378 <_printf_i+0xb8>
 8006380:	f9b3 5000 	ldrsh.w	r5, [r3]
 8006384:	2d00      	cmp	r5, #0
 8006386:	da03      	bge.n	8006390 <_printf_i+0xd0>
 8006388:	232d      	movs	r3, #45	@ 0x2d
 800638a:	426d      	negs	r5, r5
 800638c:	f884 3043 	strb.w	r3, [r4, #67]	@ 0x43
 8006390:	4858      	ldr	r0, [pc, #352]	@ (80064f4 <_printf_i+0x234>)
 8006392:	230a      	movs	r3, #10
 8006394:	e011      	b.n	80063ba <_printf_i+0xfa>
 8006396:	6821      	ldr	r1, [r4, #0]
 8006398:	6833      	ldr	r3, [r6, #0]
 800639a:	0608      	lsls	r0, r1, #24
 800639c:	f853 5b04 	ldr.w	r5, [r3], #4
 80063a0:	d402      	bmi.n	80063a8 <_printf_i+0xe8>
 80063a2:	0649      	lsls	r1, r1, #25
 80063a4:	bf48      	it	mi
 80063a6:	b2ad      	uxthmi	r5, r5
 80063a8:	2f6f      	cmp	r7, #111	@ 0x6f
 80063aa:	4852      	ldr	r0, [pc, #328]	@ (80064f4 <_printf_i+0x234>)
 80063ac:	6033      	str	r3, [r6, #0]
 80063ae:	bf14      	ite	ne
 80063b0:	230a      	movne	r3, #10
 80063b2:	2308      	moveq	r3, #8
 80063b4:	2100      	movs	r1, #0
 80063b6:	f884 1043 	strb.w	r1, [r4, #67]	@ 0x43
 80063ba:	6866      	ldr	r6, [r4, #4]
 80063bc:	60a6      	str	r6, [r4, #8]
 80063be:	2e00      	cmp	r6, #0
 80063c0:	db05      	blt.n	80063ce <_printf_i+0x10e>
 80063c2:	6821      	ldr	r1, [r4, #0]
 80063c4:	432e      	orrs	r6, r5
 80063c6:	f021 0104 	bic.w	r1, r1, #4
 80063ca:	6021      	str	r1, [r4, #0]
 80063cc:	d04b      	beq.n	8006466 <_printf_i+0x1a6>
 80063ce:	4616      	mov	r6, r2
 80063d0:	fbb5 f1f3 	udiv	r1, r5, r3
 80063d4:	fb03 5711 	mls	r7, r3, r1, r5
 80063d8:	5dc7      	ldrb	r7, [r0, r7]
 80063da:	f806 7d01 	strb.w	r7, [r6, #-1]!
 80063de:	462f      	mov	r7, r5
 80063e0:	42bb      	cmp	r3, r7
 80063e2:	460d      	mov	r5, r1
 80063e4:	d9f4      	bls.n	80063d0 <_printf_i+0x110>
 80063e6:	2b08      	cmp	r3, #8
 80063e8:	d10b      	bne.n	8006402 <_printf_i+0x142>
 80063ea:	6823      	ldr	r3, [r4, #0]
 80063ec:	07df      	lsls	r7, r3, #31
 80063ee:	d508      	bpl.n	8006402 <_printf_i+0x142>
 80063f0:	6923      	ldr	r3, [r4, #16]
 80063f2:	6861      	ldr	r1, [r4, #4]
 80063f4:	4299      	cmp	r1, r3
 80063f6:	bfde      	ittt	le
 80063f8:	2330      	movle	r3, #48	@ 0x30
 80063fa:	f806 3c01 	strble.w	r3, [r6, #-1]
 80063fe:	f106 36ff 	addle.w	r6, r6, #4294967295
 8006402:	1b92      	subs	r2, r2, r6
 8006404:	6122      	str	r2, [r4, #16]
 8006406:	f8cd a000 	str.w	sl, [sp]
 800640a:	464b      	mov	r3, r9
 800640c:	aa03      	add	r2, sp, #12
 800640e:	4621      	mov	r1, r4
 8006410:	4640      	mov	r0, r8
 8006412:	f7ff fee7 	bl	80061e4 <_printf_common>
 8006416:	3001      	adds	r0, #1
 8006418:	d14a      	bne.n	80064b0 <_printf_i+0x1f0>
 800641a:	f04f 30ff 	mov.w	r0, #4294967295
 800641e:	b004      	add	sp, #16
 8006420:	e8bd 87f0 	ldmia.w	sp!, {r4, r5, r6, r7, r8, r9, sl, pc}
 8006424:	6823      	ldr	r3, [r4, #0]
 8006426:	f043 0320 	orr.w	r3, r3, #32
 800642a:	6023      	str	r3, [r4, #0]
 800642c:	4832      	ldr	r0, [pc, #200]	@ (80064f8 <_printf_i+0x238>)
 800642e:	2778      	movs	r7, #120	@ 0x78
 8006430:	f884 7045 	strb.w	r7, [r4, #69]	@ 0x45
 8006434:	6823      	ldr	r3, [r4, #0]
 8006436:	6831      	ldr	r1, [r6, #0]
 8006438:	061f      	lsls	r7, r3, #24
 800643a:	f851 5b04 	ldr.w	r5, [r1], #4
 800643e:	d402      	bmi.n	8006446 <_printf_i+0x186>
 8006440:	065f      	lsls	r7, r3, #25
 8006442:	bf48      	it	mi
 8006444:	b2ad      	uxthmi	r5, r5
 8006446:	6031      	str	r1, [r6, #0]
 8006448:	07d9      	lsls	r1, r3, #31
 800644a:	bf44      	itt	mi
 800644c:	f043 0320 	orrmi.w	r3, r3, #32
 8006450:	6023      	strmi	r3, [r4, #0]
 8006452:	b11d      	cbz	r5, 800645c <_printf_i+0x19c>
 8006454:	2310      	movs	r3, #16
 8006456:	e7ad      	b.n	80063b4 <_printf_i+0xf4>
 8006458:	4826      	ldr	r0, [pc, #152]	@ (80064f4 <_printf_i+0x234>)
 800645a:	e7e9      	b.n	8006430 <_printf_i+0x170>
 800645c:	6823      	ldr	r3, [r4, #0]
 800645e:	f023 0320 	bic.w	r3, r3, #32
 8006462:	6023      	str	r3, [r4, #0]
 8006464:	e7f6      	b.n	8006454 <_printf_i+0x194>
 8006466:	4616      	mov	r6, r2
 8006468:	e7bd      	b.n	80063e6 <_printf_i+0x126>
 800646a:	6833      	ldr	r3, [r6, #0]
 800646c:	6825      	ldr	r5, [r4, #0]
 800646e:	6961      	ldr	r1, [r4, #20]
 8006470:	1d18      	adds	r0, r3, #4
 8006472:	6030      	str	r0, [r6, #0]
 8006474:	062e      	lsls	r6, r5, #24
 8006476:	681b      	ldr	r3, [r3, #0]
 8006478:	d501      	bpl.n	800647e <_printf_i+0x1be>
 800647a:	6019      	str	r1, [r3, #0]
 800647c:	e002      	b.n	8006484 <_printf_i+0x1c4>
 800647e:	0668      	lsls	r0, r5, #25
 8006480:	d5fb      	bpl.n	800647a <_printf_i+0x1ba>
 8006482:	8019      	strh	r1, [r3, #0]
 8006484:	2300      	movs	r3, #0
 8006486:	6123      	str	r3, [r4, #16]
 8006488:	4616      	mov	r6, r2
 800648a:	e7bc      	b.n	8006406 <_printf_i+0x146>
 800648c:	6833      	ldr	r3, [r6, #0]
 800648e:	1d1a      	adds	r2, r3, #4
 8006490:	6032      	str	r2, [r6, #0]
 8006492:	681e      	ldr	r6, [r3, #0]
 8006494:	6862      	ldr	r2, [r4, #4]
 8006496:	2100      	movs	r1, #0
 8006498:	4630      	mov	r0, r6
 800649a:	f7f9 fec9 	bl	8000230 <memchr>
 800649e:	b108      	cbz	r0, 80064a4 <_printf_i+0x1e4>
 80064a0:	1b80      	subs	r0, r0, r6
 80064a2:	6060      	str	r0, [r4, #4]
 80064a4:	6863      	ldr	r3, [r4, #4]
 80064a6:	6123      	str	r3, [r4, #16]
 80064a8:	2300      	movs	r3, #0
 80064aa:	f884 3043 	strb.w	r3, [r4, #67]	@ 0x43
 80064ae:	e7aa      	b.n	8006406 <_printf_i+0x146>
 80064b0:	6923      	ldr	r3, [r4, #16]
 80064b2:	4632      	mov	r2, r6
 80064b4:	4649      	mov	r1, r9
 80064b6:	4640      	mov	r0, r8
 80064b8:	47d0      	blx	sl
 80064ba:	3001      	adds	r0, #1
 80064bc:	d0ad      	beq.n	800641a <_printf_i+0x15a>
 80064be:	6823      	ldr	r3, [r4, #0]
 80064c0:	079b      	lsls	r3, r3, #30
 80064c2:	d413      	bmi.n	80064ec <_printf_i+0x22c>
 80064c4:	68e0      	ldr	r0, [r4, #12]
 80064c6:	9b03      	ldr	r3, [sp, #12]
 80064c8:	4298      	cmp	r0, r3
 80064ca:	bfb8      	it	lt
 80064cc:	4618      	movlt	r0, r3
 80064ce:	e7a6      	b.n	800641e <_printf_i+0x15e>
 80064d0:	2301      	movs	r3, #1
 80064d2:	4632      	mov	r2, r6
 80064d4:	4649      	mov	r1, r9
 80064d6:	4640      	mov	r0, r8
 80064d8:	47d0      	blx	sl
 80064da:	3001      	adds	r0, #1
 80064dc:	d09d      	beq.n	800641a <_printf_i+0x15a>
 80064de:	3501      	adds	r5, #1
 80064e0:	68e3      	ldr	r3, [r4, #12]
 80064e2:	9903      	ldr	r1, [sp, #12]
 80064e4:	1a5b      	subs	r3, r3, r1
 80064e6:	42ab      	cmp	r3, r5
 80064e8:	dcf2      	bgt.n	80064d0 <_printf_i+0x210>
 80064ea:	e7eb      	b.n	80064c4 <_printf_i+0x204>
 80064ec:	2500      	movs	r5, #0
 80064ee:	f104 0619 	add.w	r6, r4, #25
 80064f2:	e7f5      	b.n	80064e0 <_printf_i+0x220>
 80064f4:	08009972 	.word	0x08009972
 80064f8:	08009983 	.word	0x08009983

080064fc <std>:
 80064fc:	2300      	movs	r3, #0
 80064fe:	b510      	push	{r4, lr}
 8006500:	4604      	mov	r4, r0
 8006502:	e9c0 3300 	strd	r3, r3, [r0]
 8006506:	e9c0 3304 	strd	r3, r3, [r0, #16]
 800650a:	6083      	str	r3, [r0, #8]
 800650c:	8181      	strh	r1, [r0, #12]
 800650e:	6643      	str	r3, [r0, #100]	@ 0x64
 8006510:	81c2      	strh	r2, [r0, #14]
 8006512:	6183      	str	r3, [r0, #24]
 8006514:	4619      	mov	r1, r3
 8006516:	2208      	movs	r2, #8
 8006518:	305c      	adds	r0, #92	@ 0x5c
 800651a:	f000 f9ab 	bl	8006874 <memset>
 800651e:	4b0d      	ldr	r3, [pc, #52]	@ (8006554 <std+0x58>)
 8006520:	6263      	str	r3, [r4, #36]	@ 0x24
 8006522:	4b0d      	ldr	r3, [pc, #52]	@ (8006558 <std+0x5c>)
 8006524:	62a3      	str	r3, [r4, #40]	@ 0x28
 8006526:	4b0d      	ldr	r3, [pc, #52]	@ (800655c <std+0x60>)
 8006528:	62e3      	str	r3, [r4, #44]	@ 0x2c
 800652a:	4b0d      	ldr	r3, [pc, #52]	@ (8006560 <std+0x64>)
 800652c:	6323      	str	r3, [r4, #48]	@ 0x30
 800652e:	4b0d      	ldr	r3, [pc, #52]	@ (8006564 <std+0x68>)
 8006530:	6224      	str	r4, [r4, #32]
 8006532:	429c      	cmp	r4, r3
 8006534:	d006      	beq.n	8006544 <std+0x48>
 8006536:	f103 0268 	add.w	r2, r3, #104	@ 0x68
 800653a:	4294      	cmp	r4, r2
 800653c:	d002      	beq.n	8006544 <std+0x48>
 800653e:	33d0      	adds	r3, #208	@ 0xd0
 8006540:	429c      	cmp	r4, r3
 8006542:	d105      	bne.n	8006550 <std+0x54>
 8006544:	f104 0058 	add.w	r0, r4, #88	@ 0x58
 8006548:	e8bd 4010 	ldmia.w	sp!, {r4, lr}
 800654c:	f000 ba0e 	b.w	800696c <__retarget_lock_init_recursive>
 8006550:	bd10      	pop	{r4, pc}
 8006552:	bf00      	nop
 8006554:	080066c5 	.word	0x080066c5
 8006558:	080066e7 	.word	0x080066e7
 800655c:	0800671f 	.word	0x0800671f
 8006560:	08006743 	.word	0x08006743
 8006564:	200003dc 	.word	0x200003dc

08006568 <stdio_exit_handler>:
 8006568:	4a02      	ldr	r2, [pc, #8]	@ (8006574 <stdio_exit_handler+0xc>)
 800656a:	4903      	ldr	r1, [pc, #12]	@ (8006578 <stdio_exit_handler+0x10>)
 800656c:	4803      	ldr	r0, [pc, #12]	@ (800657c <stdio_exit_handler+0x14>)
 800656e:	f000 b869 	b.w	8006644 <_fwalk_sglue>
 8006572:	bf00      	nop
 8006574:	20000080 	.word	0x20000080
 8006578:	080085b1 	.word	0x080085b1
 800657c:	20000090 	.word	0x20000090

08006580 <cleanup_stdio>:
 8006580:	6841      	ldr	r1, [r0, #4]
 8006582:	4b0c      	ldr	r3, [pc, #48]	@ (80065b4 <cleanup_stdio+0x34>)
 8006584:	4299      	cmp	r1, r3
 8006586:	b510      	push	{r4, lr}
 8006588:	4604      	mov	r4, r0
 800658a:	d001      	beq.n	8006590 <cleanup_stdio+0x10>
 800658c:	f002 f810 	bl	80085b0 <_fflush_r>
 8006590:	68a1      	ldr	r1, [r4, #8]
 8006592:	4b09      	ldr	r3, [pc, #36]	@ (80065b8 <cleanup_stdio+0x38>)
 8006594:	4299      	cmp	r1, r3
 8006596:	d002      	beq.n	800659e <cleanup_stdio+0x1e>
 8006598:	4620      	mov	r0, r4
 800659a:	f002 f809 	bl	80085b0 <_fflush_r>
 800659e:	68e1      	ldr	r1, [r4, #12]
 80065a0:	4b06      	ldr	r3, [pc, #24]	@ (80065bc <cleanup_stdio+0x3c>)
 80065a2:	4299      	cmp	r1, r3
 80065a4:	d004      	beq.n	80065b0 <cleanup_stdio+0x30>
 80065a6:	4620      	mov	r0, r4
 80065a8:	e8bd 4010 	ldmia.w	sp!, {r4, lr}
 80065ac:	f002 b800 	b.w	80085b0 <_fflush_r>
 80065b0:	bd10      	pop	{r4, pc}
 80065b2:	bf00      	nop
 80065b4:	200003dc 	.word	0x200003dc
 80065b8:	20000444 	.word	0x20000444
 80065bc:	200004ac 	.word	0x200004ac

080065c0 <global_stdio_init.part.0>:
 80065c0:	b510      	push	{r4, lr}
 80065c2:	4b0b      	ldr	r3, [pc, #44]	@ (80065f0 <global_stdio_init.part.0+0x30>)
 80065c4:	4c0b      	ldr	r4, [pc, #44]	@ (80065f4 <global_stdio_init.part.0+0x34>)
 80065c6:	4a0c      	ldr	r2, [pc, #48]	@ (80065f8 <global_stdio_init.part.0+0x38>)
 80065c8:	601a      	str	r2, [r3, #0]
 80065ca:	4620      	mov	r0, r4
 80065cc:	2200      	movs	r2, #0
 80065ce:	2104      	movs	r1, #4
 80065d0:	f7ff ff94 	bl	80064fc <std>
 80065d4:	f104 0068 	add.w	r0, r4, #104	@ 0x68
 80065d8:	2201      	movs	r2, #1
 80065da:	2109      	movs	r1, #9
 80065dc:	f7ff ff8e 	bl	80064fc <std>
 80065e0:	f104 00d0 	add.w	r0, r4, #208	@ 0xd0
 80065e4:	2202      	movs	r2, #2
 80065e6:	e8bd 4010 	ldmia.w	sp!, {r4, lr}
 80065ea:	2112      	movs	r1, #18
 80065ec:	f7ff bf86 	b.w	80064fc <std>
 80065f0:	20000514 	.word	0x20000514
 80065f4:	200003dc 	.word	0x200003dc
 80065f8:	08006569 	.word	0x08006569

080065fc <__sfp_lock_acquire>:
 80065fc:	4801      	ldr	r0, [pc, #4]	@ (8006604 <__sfp_lock_acquire+0x8>)
 80065fe:	f000 b9b6 	b.w	800696e <__retarget_lock_acquire_recursive>
 8006602:	bf00      	nop
 8006604:	2000051d 	.word	0x2000051d

08006608 <__sfp_lock_release>:
 8006608:	4801      	ldr	r0, [pc, #4]	@ (8006610 <__sfp_lock_release+0x8>)
 800660a:	f000 b9b1 	b.w	8006970 <__retarget_lock_release_recursive>
 800660e:	bf00      	nop
 8006610:	2000051d 	.word	0x2000051d

08006614 <__sinit>:
 8006614:	b510      	push	{r4, lr}
 8006616:	4604      	mov	r4, r0
 8006618:	f7ff fff0 	bl	80065fc <__sfp_lock_acquire>
 800661c:	6a23      	ldr	r3, [r4, #32]
 800661e:	b11b      	cbz	r3, 8006628 <__sinit+0x14>
 8006620:	e8bd 4010 	ldmia.w	sp!, {r4, lr}
 8006624:	f7ff bff0 	b.w	8006608 <__sfp_lock_release>
 8006628:	4b04      	ldr	r3, [pc, #16]	@ (800663c <__sinit+0x28>)
 800662a:	6223      	str	r3, [r4, #32]
 800662c:	4b04      	ldr	r3, [pc, #16]	@ (8006640 <__sinit+0x2c>)
 800662e:	681b      	ldr	r3, [r3, #0]
 8006630:	2b00      	cmp	r3, #0
 8006632:	d1f5      	bne.n	8006620 <__sinit+0xc>
 8006634:	f7ff ffc4 	bl	80065c0 <global_stdio_init.part.0>
 8006638:	e7f2      	b.n	8006620 <__sinit+0xc>
 800663a:	bf00      	nop
 800663c:	08006581 	.word	0x08006581
 8006640:	20000514 	.word	0x20000514

08006644 <_fwalk_sglue>:
 8006644:	e92d 43f8 	stmdb	sp!, {r3, r4, r5, r6, r7, r8, r9, lr}
 8006648:	4607      	mov	r7, r0
 800664a:	4688      	mov	r8, r1
 800664c:	4614      	mov	r4, r2
 800664e:	2600      	movs	r6, #0
 8006650:	e9d4 9501 	ldrd	r9, r5, [r4, #4]
 8006654:	f1b9 0901 	subs.w	r9, r9, #1
 8006658:	d505      	bpl.n	8006666 <_fwalk_sglue+0x22>
 800665a:	6824      	ldr	r4, [r4, #0]
 800665c:	2c00      	cmp	r4, #0
 800665e:	d1f7      	bne.n	8006650 <_fwalk_sglue+0xc>
 8006660:	4630      	mov	r0, r6
 8006662:	e8bd 83f8 	ldmia.w	sp!, {r3, r4, r5, r6, r7, r8, r9, pc}
 8006666:	89ab      	ldrh	r3, [r5, #12]
 8006668:	2b01      	cmp	r3, #1
 800666a:	d907      	bls.n	800667c <_fwalk_sglue+0x38>
 800666c:	f9b5 300e 	ldrsh.w	r3, [r5, #14]
 8006670:	3301      	adds	r3, #1
 8006672:	d003      	beq.n	800667c <_fwalk_sglue+0x38>
 8006674:	4629      	mov	r1, r5
 8006676:	4638      	mov	r0, r7
 8006678:	47c0      	blx	r8
 800667a:	4306      	orrs	r6, r0
 800667c:	3568      	adds	r5, #104	@ 0x68
 800667e:	e7e9      	b.n	8006654 <_fwalk_sglue+0x10>

08006680 <siprintf>:
 8006680:	b40e      	push	{r1, r2, r3}
 8006682:	b510      	push	{r4, lr}
 8006684:	b09d      	sub	sp, #116	@ 0x74
 8006686:	ab1f      	add	r3, sp, #124	@ 0x7c
 8006688:	9002      	str	r0, [sp, #8]
 800668a:	9006      	str	r0, [sp, #24]
 800668c:	f06f 4100 	mvn.w	r1, #2147483648	@ 0x80000000
 8006690:	480a      	ldr	r0, [pc, #40]	@ (80066bc <siprintf+0x3c>)
 8006692:	9107      	str	r1, [sp, #28]
 8006694:	9104      	str	r1, [sp, #16]
 8006696:	490a      	ldr	r1, [pc, #40]	@ (80066c0 <siprintf+0x40>)
 8006698:	f853 2b04 	ldr.w	r2, [r3], #4
 800669c:	9105      	str	r1, [sp, #20]
 800669e:	2400      	movs	r4, #0
 80066a0:	a902      	add	r1, sp, #8
 80066a2:	6800      	ldr	r0, [r0, #0]
 80066a4:	9301      	str	r3, [sp, #4]
 80066a6:	941b      	str	r4, [sp, #108]	@ 0x6c
 80066a8:	f001 fcc0 	bl	800802c <_svfiprintf_r>
 80066ac:	9b02      	ldr	r3, [sp, #8]
 80066ae:	701c      	strb	r4, [r3, #0]
 80066b0:	b01d      	add	sp, #116	@ 0x74
 80066b2:	e8bd 4010 	ldmia.w	sp!, {r4, lr}
 80066b6:	b003      	add	sp, #12
 80066b8:	4770      	bx	lr
 80066ba:	bf00      	nop
 80066bc:	2000008c 	.word	0x2000008c
 80066c0:	ffff0208 	.word	0xffff0208

080066c4 <__sread>:
 80066c4:	b510      	push	{r4, lr}
 80066c6:	460c      	mov	r4, r1
 80066c8:	f9b1 100e 	ldrsh.w	r1, [r1, #14]
 80066cc:	f000 f900 	bl	80068d0 <_read_r>
 80066d0:	2800      	cmp	r0, #0
 80066d2:	bfab      	itete	ge
 80066d4:	6d63      	ldrge	r3, [r4, #84]	@ 0x54
 80066d6:	89a3      	ldrhlt	r3, [r4, #12]
 80066d8:	181b      	addge	r3, r3, r0
 80066da:	f423 5380 	biclt.w	r3, r3, #4096	@ 0x1000
 80066de:	bfac      	ite	ge
 80066e0:	6563      	strge	r3, [r4, #84]	@ 0x54
 80066e2:	81a3      	strhlt	r3, [r4, #12]
 80066e4:	bd10      	pop	{r4, pc}

080066e6 <__swrite>:
 80066e6:	e92d 41f0 	stmdb	sp!, {r4, r5, r6, r7, r8, lr}
 80066ea:	461f      	mov	r7, r3
 80066ec:	898b      	ldrh	r3, [r1, #12]
 80066ee:	05db      	lsls	r3, r3, #23
 80066f0:	4605      	mov	r5, r0
 80066f2:	460c      	mov	r4, r1
 80066f4:	4616      	mov	r6, r2
 80066f6:	d505      	bpl.n	8006704 <__swrite+0x1e>
 80066f8:	f9b1 100e 	ldrsh.w	r1, [r1, #14]
 80066fc:	2302      	movs	r3, #2
 80066fe:	2200      	movs	r2, #0
 8006700:	f000 f8d4 	bl	80068ac <_lseek_r>
 8006704:	89a3      	ldrh	r3, [r4, #12]
 8006706:	f9b4 100e 	ldrsh.w	r1, [r4, #14]
 800670a:	f423 5380 	bic.w	r3, r3, #4096	@ 0x1000
 800670e:	81a3      	strh	r3, [r4, #12]
 8006710:	4632      	mov	r2, r6
 8006712:	463b      	mov	r3, r7
 8006714:	4628      	mov	r0, r5
 8006716:	e8bd 41f0 	ldmia.w	sp!, {r4, r5, r6, r7, r8, lr}
 800671a:	f000 b8eb 	b.w	80068f4 <_write_r>

0800671e <__sseek>:
 800671e:	b510      	push	{r4, lr}
 8006720:	460c      	mov	r4, r1
 8006722:	f9b1 100e 	ldrsh.w	r1, [r1, #14]
 8006726:	f000 f8c1 	bl	80068ac <_lseek_r>
 800672a:	1c43      	adds	r3, r0, #1
 800672c:	89a3      	ldrh	r3, [r4, #12]
 800672e:	bf15      	itete	ne
 8006730:	6560      	strne	r0, [r4, #84]	@ 0x54
 8006732:	f423 5380 	biceq.w	r3, r3, #4096	@ 0x1000
 8006736:	f443 5380 	orrne.w	r3, r3, #4096	@ 0x1000
 800673a:	81a3      	strheq	r3, [r4, #12]
 800673c:	bf18      	it	ne
 800673e:	81a3      	strhne	r3, [r4, #12]
 8006740:	bd10      	pop	{r4, pc}

08006742 <__sclose>:
 8006742:	f9b1 100e 	ldrsh.w	r1, [r1, #14]
 8006746:	f000 b8a1 	b.w	800688c <_close_r>

0800674a <__swbuf_r>:
 800674a:	b5f8      	push	{r3, r4, r5, r6, r7, lr}
 800674c:	460e      	mov	r6, r1
 800674e:	4614      	mov	r4, r2
 8006750:	4605      	mov	r5, r0
 8006752:	b118      	cbz	r0, 800675c <__swbuf_r+0x12>
 8006754:	6a03      	ldr	r3, [r0, #32]
 8006756:	b90b      	cbnz	r3, 800675c <__swbuf_r+0x12>
 8006758:	f7ff ff5c 	bl	8006614 <__sinit>
 800675c:	69a3      	ldr	r3, [r4, #24]
 800675e:	60a3      	str	r3, [r4, #8]
 8006760:	89a3      	ldrh	r3, [r4, #12]
 8006762:	071a      	lsls	r2, r3, #28
 8006764:	d501      	bpl.n	800676a <__swbuf_r+0x20>
 8006766:	6923      	ldr	r3, [r4, #16]
 8006768:	b943      	cbnz	r3, 800677c <__swbuf_r+0x32>
 800676a:	4621      	mov	r1, r4
 800676c:	4628      	mov	r0, r5
 800676e:	f000 f82b 	bl	80067c8 <__swsetup_r>
 8006772:	b118      	cbz	r0, 800677c <__swbuf_r+0x32>
 8006774:	f04f 37ff 	mov.w	r7, #4294967295
 8006778:	4638      	mov	r0, r7
 800677a:	bdf8      	pop	{r3, r4, r5, r6, r7, pc}
 800677c:	6823      	ldr	r3, [r4, #0]
 800677e:	6922      	ldr	r2, [r4, #16]
 8006780:	1a98      	subs	r0, r3, r2
 8006782:	6963      	ldr	r3, [r4, #20]
 8006784:	b2f6      	uxtb	r6, r6
 8006786:	4283      	cmp	r3, r0
 8006788:	4637      	mov	r7, r6
 800678a:	dc05      	bgt.n	8006798 <__swbuf_r+0x4e>
 800678c:	4621      	mov	r1, r4
 800678e:	4628      	mov	r0, r5
 8006790:	f001 ff0e 	bl	80085b0 <_fflush_r>
 8006794:	2800      	cmp	r0, #0
 8006796:	d1ed      	bne.n	8006774 <__swbuf_r+0x2a>
 8006798:	68a3      	ldr	r3, [r4, #8]
 800679a:	3b01      	subs	r3, #1
 800679c:	60a3      	str	r3, [r4, #8]
 800679e:	6823      	ldr	r3, [r4, #0]
 80067a0:	1c5a      	adds	r2, r3, #1
 80067a2:	6022      	str	r2, [r4, #0]
 80067a4:	701e      	strb	r6, [r3, #0]
 80067a6:	6962      	ldr	r2, [r4, #20]
 80067a8:	1c43      	adds	r3, r0, #1
 80067aa:	429a      	cmp	r2, r3
 80067ac:	d004      	beq.n	80067b8 <__swbuf_r+0x6e>
 80067ae:	89a3      	ldrh	r3, [r4, #12]
 80067b0:	07db      	lsls	r3, r3, #31
 80067b2:	d5e1      	bpl.n	8006778 <__swbuf_r+0x2e>
 80067b4:	2e0a      	cmp	r6, #10
 80067b6:	d1df      	bne.n	8006778 <__swbuf_r+0x2e>
 80067b8:	4621      	mov	r1, r4
 80067ba:	4628      	mov	r0, r5
 80067bc:	f001 fef8 	bl	80085b0 <_fflush_r>
 80067c0:	2800      	cmp	r0, #0
 80067c2:	d0d9      	beq.n	8006778 <__swbuf_r+0x2e>
 80067c4:	e7d6      	b.n	8006774 <__swbuf_r+0x2a>
	...

080067c8 <__swsetup_r>:
 80067c8:	b538      	push	{r3, r4, r5, lr}
 80067ca:	4b29      	ldr	r3, [pc, #164]	@ (8006870 <__swsetup_r+0xa8>)
 80067cc:	4605      	mov	r5, r0
 80067ce:	6818      	ldr	r0, [r3, #0]
 80067d0:	460c      	mov	r4, r1
 80067d2:	b118      	cbz	r0, 80067dc <__swsetup_r+0x14>
 80067d4:	6a03      	ldr	r3, [r0, #32]
 80067d6:	b90b      	cbnz	r3, 80067dc <__swsetup_r+0x14>
 80067d8:	f7ff ff1c 	bl	8006614 <__sinit>
 80067dc:	f9b4 300c 	ldrsh.w	r3, [r4, #12]
 80067e0:	0719      	lsls	r1, r3, #28
 80067e2:	d422      	bmi.n	800682a <__swsetup_r+0x62>
 80067e4:	06da      	lsls	r2, r3, #27
 80067e6:	d407      	bmi.n	80067f8 <__swsetup_r+0x30>
 80067e8:	2209      	movs	r2, #9
 80067ea:	602a      	str	r2, [r5, #0]
 80067ec:	f043 0340 	orr.w	r3, r3, #64	@ 0x40
 80067f0:	81a3      	strh	r3, [r4, #12]
 80067f2:	f04f 30ff 	mov.w	r0, #4294967295
 80067f6:	e033      	b.n	8006860 <__swsetup_r+0x98>
 80067f8:	0758      	lsls	r0, r3, #29
 80067fa:	d512      	bpl.n	8006822 <__swsetup_r+0x5a>
 80067fc:	6b61      	ldr	r1, [r4, #52]	@ 0x34
 80067fe:	b141      	cbz	r1, 8006812 <__swsetup_r+0x4a>
 8006800:	f104 0344 	add.w	r3, r4, #68	@ 0x44
 8006804:	4299      	cmp	r1, r3
 8006806:	d002      	beq.n	800680e <__swsetup_r+0x46>
 8006808:	4628      	mov	r0, r5
 800680a:	f000 ff39 	bl	8007680 <_free_r>
 800680e:	2300      	movs	r3, #0
 8006810:	6363      	str	r3, [r4, #52]	@ 0x34
 8006812:	89a3      	ldrh	r3, [r4, #12]
 8006814:	f023 0324 	bic.w	r3, r3, #36	@ 0x24
 8006818:	81a3      	strh	r3, [r4, #12]
 800681a:	2300      	movs	r3, #0
 800681c:	6063      	str	r3, [r4, #4]
 800681e:	6923      	ldr	r3, [r4, #16]
 8006820:	6023      	str	r3, [r4, #0]
 8006822:	89a3      	ldrh	r3, [r4, #12]
 8006824:	f043 0308 	orr.w	r3, r3, #8
 8006828:	81a3      	strh	r3, [r4, #12]
 800682a:	6923      	ldr	r3, [r4, #16]
 800682c:	b94b      	cbnz	r3, 8006842 <__swsetup_r+0x7a>
 800682e:	89a3      	ldrh	r3, [r4, #12]
 8006830:	f403 7320 	and.w	r3, r3, #640	@ 0x280
 8006834:	f5b3 7f00 	cmp.w	r3, #512	@ 0x200
 8006838:	d003      	beq.n	8006842 <__swsetup_r+0x7a>
 800683a:	4621      	mov	r1, r4
 800683c:	4628      	mov	r0, r5
 800683e:	f001 ff17 	bl	8008670 <__smakebuf_r>
 8006842:	f9b4 300c 	ldrsh.w	r3, [r4, #12]
 8006846:	f013 0201 	ands.w	r2, r3, #1
 800684a:	d00a      	beq.n	8006862 <__swsetup_r+0x9a>
 800684c:	2200      	movs	r2, #0
 800684e:	60a2      	str	r2, [r4, #8]
 8006850:	6962      	ldr	r2, [r4, #20]
 8006852:	4252      	negs	r2, r2
 8006854:	61a2      	str	r2, [r4, #24]
 8006856:	6922      	ldr	r2, [r4, #16]
 8006858:	b942      	cbnz	r2, 800686c <__swsetup_r+0xa4>
 800685a:	f013 0080 	ands.w	r0, r3, #128	@ 0x80
 800685e:	d1c5      	bne.n	80067ec <__swsetup_r+0x24>
 8006860:	bd38      	pop	{r3, r4, r5, pc}
 8006862:	0799      	lsls	r1, r3, #30
 8006864:	bf58      	it	pl
 8006866:	6962      	ldrpl	r2, [r4, #20]
 8006868:	60a2      	str	r2, [r4, #8]
 800686a:	e7f4      	b.n	8006856 <__swsetup_r+0x8e>
 800686c:	2000      	movs	r0, #0
 800686e:	e7f7      	b.n	8006860 <__swsetup_r+0x98>
 8006870:	2000008c 	.word	0x2000008c

08006874 <memset>:
 8006874:	4402      	add	r2, r0
 8006876:	4603      	mov	r3, r0
 8006878:	4293      	cmp	r3, r2
 800687a:	d100      	bne.n	800687e <memset+0xa>
 800687c:	4770      	bx	lr
 800687e:	f803 1b01 	strb.w	r1, [r3], #1
 8006882:	e7f9      	b.n	8006878 <memset+0x4>

08006884 <_localeconv_r>:
 8006884:	4800      	ldr	r0, [pc, #0]	@ (8006888 <_localeconv_r+0x4>)
 8006886:	4770      	bx	lr
 8006888:	200001cc 	.word	0x200001cc

0800688c <_close_r>:
 800688c:	b538      	push	{r3, r4, r5, lr}
 800688e:	4d06      	ldr	r5, [pc, #24]	@ (80068a8 <_close_r+0x1c>)
 8006890:	2300      	movs	r3, #0
 8006892:	4604      	mov	r4, r0
 8006894:	4608      	mov	r0, r1
 8006896:	602b      	str	r3, [r5, #0]
 8006898:	f7fb fb19 	bl	8001ece <_close>
 800689c:	1c43      	adds	r3, r0, #1
 800689e:	d102      	bne.n	80068a6 <_close_r+0x1a>
 80068a0:	682b      	ldr	r3, [r5, #0]
 80068a2:	b103      	cbz	r3, 80068a6 <_close_r+0x1a>
 80068a4:	6023      	str	r3, [r4, #0]
 80068a6:	bd38      	pop	{r3, r4, r5, pc}
 80068a8:	20000518 	.word	0x20000518

080068ac <_lseek_r>:
 80068ac:	b538      	push	{r3, r4, r5, lr}
 80068ae:	4d07      	ldr	r5, [pc, #28]	@ (80068cc <_lseek_r+0x20>)
 80068b0:	4604      	mov	r4, r0
 80068b2:	4608      	mov	r0, r1
 80068b4:	4611      	mov	r1, r2
 80068b6:	2200      	movs	r2, #0
 80068b8:	602a      	str	r2, [r5, #0]
 80068ba:	461a      	mov	r2, r3
 80068bc:	f7fb faef 	bl	8001e9e <_lseek>
 80068c0:	1c43      	adds	r3, r0, #1
 80068c2:	d102      	bne.n	80068ca <_lseek_r+0x1e>
 80068c4:	682b      	ldr	r3, [r5, #0]
 80068c6:	b103      	cbz	r3, 80068ca <_lseek_r+0x1e>
 80068c8:	6023      	str	r3, [r4, #0]
 80068ca:	bd38      	pop	{r3, r4, r5, pc}
 80068cc:	20000518 	.word	0x20000518

080068d0 <_read_r>:
 80068d0:	b538      	push	{r3, r4, r5, lr}
 80068d2:	4d07      	ldr	r5, [pc, #28]	@ (80068f0 <_read_r+0x20>)
 80068d4:	4604      	mov	r4, r0
 80068d6:	4608      	mov	r0, r1
 80068d8:	4611      	mov	r1, r2
 80068da:	2200      	movs	r2, #0
 80068dc:	602a      	str	r2, [r5, #0]
 80068de:	461a      	mov	r2, r3
 80068e0:	f7fb fac4 	bl	8001e6c <_read>
 80068e4:	1c43      	adds	r3, r0, #1
 80068e6:	d102      	bne.n	80068ee <_read_r+0x1e>
 80068e8:	682b      	ldr	r3, [r5, #0]
 80068ea:	b103      	cbz	r3, 80068ee <_read_r+0x1e>
 80068ec:	6023      	str	r3, [r4, #0]
 80068ee:	bd38      	pop	{r3, r4, r5, pc}
 80068f0:	20000518 	.word	0x20000518

080068f4 <_write_r>:
 80068f4:	b538      	push	{r3, r4, r5, lr}
 80068f6:	4d07      	ldr	r5, [pc, #28]	@ (8006914 <_write_r+0x20>)
 80068f8:	4604      	mov	r4, r0
 80068fa:	4608      	mov	r0, r1
 80068fc:	4611      	mov	r1, r2
 80068fe:	2200      	movs	r2, #0
 8006900:	602a      	str	r2, [r5, #0]
 8006902:	461a      	mov	r2, r3
 8006904:	f002 fbd6 	bl	80090b4 <_write>
 8006908:	1c43      	adds	r3, r0, #1
 800690a:	d102      	bne.n	8006912 <_write_r+0x1e>
 800690c:	682b      	ldr	r3, [r5, #0]
 800690e:	b103      	cbz	r3, 8006912 <_write_r+0x1e>
 8006910:	6023      	str	r3, [r4, #0]
 8006912:	bd38      	pop	{r3, r4, r5, pc}
 8006914:	20000518 	.word	0x20000518

08006918 <__errno>:
 8006918:	4b01      	ldr	r3, [pc, #4]	@ (8006920 <__errno+0x8>)
 800691a:	6818      	ldr	r0, [r3, #0]
 800691c:	4770      	bx	lr
 800691e:	bf00      	nop
 8006920:	2000008c 	.word	0x2000008c

08006924 <__libc_init_array>:
 8006924:	b570      	push	{r4, r5, r6, lr}
 8006926:	4d0d      	ldr	r5, [pc, #52]	@ (800695c <__libc_init_array+0x38>)
 8006928:	4c0d      	ldr	r4, [pc, #52]	@ (8006960 <__libc_init_array+0x3c>)
 800692a:	1b64      	subs	r4, r4, r5
 800692c:	10a4      	asrs	r4, r4, #2
 800692e:	2600      	movs	r6, #0
 8006930:	42a6      	cmp	r6, r4
 8006932:	d109      	bne.n	8006948 <__libc_init_array+0x24>
 8006934:	4d0b      	ldr	r5, [pc, #44]	@ (8006964 <__libc_init_array+0x40>)
 8006936:	4c0c      	ldr	r4, [pc, #48]	@ (8006968 <__libc_init_array+0x44>)
 8006938:	f002 fbc6 	bl	80090c8 <_init>
 800693c:	1b64      	subs	r4, r4, r5
 800693e:	10a4      	asrs	r4, r4, #2
 8006940:	2600      	movs	r6, #0
 8006942:	42a6      	cmp	r6, r4
 8006944:	d105      	bne.n	8006952 <__libc_init_array+0x2e>
 8006946:	bd70      	pop	{r4, r5, r6, pc}
 8006948:	f855 3b04 	ldr.w	r3, [r5], #4
 800694c:	4798      	blx	r3
 800694e:	3601      	adds	r6, #1
 8006950:	e7ee      	b.n	8006930 <__libc_init_array+0xc>
 8006952:	f855 3b04 	ldr.w	r3, [r5], #4
 8006956:	4798      	blx	r3
 8006958:	3601      	adds	r6, #1
 800695a:	e7f2      	b.n	8006942 <__libc_init_array+0x1e>
 800695c:	08009cf4 	.word	0x08009cf4
 8006960:	08009cf4 	.word	0x08009cf4
 8006964:	08009cf4 	.word	0x08009cf4
 8006968:	08009cf8 	.word	0x08009cf8

0800696c <__retarget_lock_init_recursive>:
 800696c:	4770      	bx	lr

0800696e <__retarget_lock_acquire_recursive>:
 800696e:	4770      	bx	lr

08006970 <__retarget_lock_release_recursive>:
 8006970:	4770      	bx	lr

08006972 <memcpy>:
 8006972:	440a      	add	r2, r1
 8006974:	4291      	cmp	r1, r2
 8006976:	f100 33ff 	add.w	r3, r0, #4294967295
 800697a:	d100      	bne.n	800697e <memcpy+0xc>
 800697c:	4770      	bx	lr
 800697e:	b510      	push	{r4, lr}
 8006980:	f811 4b01 	ldrb.w	r4, [r1], #1
 8006984:	f803 4f01 	strb.w	r4, [r3, #1]!
 8006988:	4291      	cmp	r1, r2
 800698a:	d1f9      	bne.n	8006980 <memcpy+0xe>
 800698c:	bd10      	pop	{r4, pc}
	...

08006990 <__assert_func>:
 8006990:	b51f      	push	{r0, r1, r2, r3, r4, lr}
 8006992:	4614      	mov	r4, r2
 8006994:	461a      	mov	r2, r3
 8006996:	4b09      	ldr	r3, [pc, #36]	@ (80069bc <__assert_func+0x2c>)
 8006998:	681b      	ldr	r3, [r3, #0]
 800699a:	4605      	mov	r5, r0
 800699c:	68d8      	ldr	r0, [r3, #12]
 800699e:	b14c      	cbz	r4, 80069b4 <__assert_func+0x24>
 80069a0:	4b07      	ldr	r3, [pc, #28]	@ (80069c0 <__assert_func+0x30>)
 80069a2:	9100      	str	r1, [sp, #0]
 80069a4:	e9cd 3401 	strd	r3, r4, [sp, #4]
 80069a8:	4906      	ldr	r1, [pc, #24]	@ (80069c4 <__assert_func+0x34>)
 80069aa:	462b      	mov	r3, r5
 80069ac:	f001 fe28 	bl	8008600 <fiprintf>
 80069b0:	f001 fee6 	bl	8008780 <abort>
 80069b4:	4b04      	ldr	r3, [pc, #16]	@ (80069c8 <__assert_func+0x38>)
 80069b6:	461c      	mov	r4, r3
 80069b8:	e7f3      	b.n	80069a2 <__assert_func+0x12>
 80069ba:	bf00      	nop
 80069bc:	2000008c 	.word	0x2000008c
 80069c0:	08009994 	.word	0x08009994
 80069c4:	080099a1 	.word	0x080099a1
 80069c8:	080099cf 	.word	0x080099cf

080069cc <quorem>:
 80069cc:	e92d 4ff7 	stmdb	sp!, {r0, r1, r2, r4, r5, r6, r7, r8, r9, sl, fp, lr}
 80069d0:	6903      	ldr	r3, [r0, #16]
 80069d2:	690c      	ldr	r4, [r1, #16]
 80069d4:	42a3      	cmp	r3, r4
 80069d6:	4607      	mov	r7, r0
 80069d8:	db7e      	blt.n	8006ad8 <quorem+0x10c>
 80069da:	3c01      	subs	r4, #1
 80069dc:	f101 0814 	add.w	r8, r1, #20
 80069e0:	00a3      	lsls	r3, r4, #2
 80069e2:	f100 0514 	add.w	r5, r0, #20
 80069e6:	9300      	str	r3, [sp, #0]
 80069e8:	eb05 0384 	add.w	r3, r5, r4, lsl #2
 80069ec:	9301      	str	r3, [sp, #4]
 80069ee:	f858 3024 	ldr.w	r3, [r8, r4, lsl #2]
 80069f2:	f855 2024 	ldr.w	r2, [r5, r4, lsl #2]
 80069f6:	3301      	adds	r3, #1
 80069f8:	429a      	cmp	r2, r3
 80069fa:	eb08 0984 	add.w	r9, r8, r4, lsl #2
 80069fe:	fbb2 f6f3 	udiv	r6, r2, r3
 8006a02:	d32e      	bcc.n	8006a62 <quorem+0x96>
 8006a04:	f04f 0a00 	mov.w	sl, #0
 8006a08:	46c4      	mov	ip, r8
 8006a0a:	46ae      	mov	lr, r5
 8006a0c:	46d3      	mov	fp, sl
 8006a0e:	f85c 3b04 	ldr.w	r3, [ip], #4
 8006a12:	b298      	uxth	r0, r3
 8006a14:	fb06 a000 	mla	r0, r6, r0, sl
 8006a18:	0c02      	lsrs	r2, r0, #16
 8006a1a:	0c1b      	lsrs	r3, r3, #16
 8006a1c:	fb06 2303 	mla	r3, r6, r3, r2
 8006a20:	f8de 2000 	ldr.w	r2, [lr]
 8006a24:	b280      	uxth	r0, r0
 8006a26:	b292      	uxth	r2, r2
 8006a28:	1a12      	subs	r2, r2, r0
 8006a2a:	445a      	add	r2, fp
 8006a2c:	f8de 0000 	ldr.w	r0, [lr]
 8006a30:	ea4f 4a13 	mov.w	sl, r3, lsr #16
 8006a34:	b29b      	uxth	r3, r3
 8006a36:	ebc3 4322 	rsb	r3, r3, r2, asr #16
 8006a3a:	eb03 4310 	add.w	r3, r3, r0, lsr #16
 8006a3e:	b292      	uxth	r2, r2
 8006a40:	ea42 4203 	orr.w	r2, r2, r3, lsl #16
 8006a44:	45e1      	cmp	r9, ip
 8006a46:	f84e 2b04 	str.w	r2, [lr], #4
 8006a4a:	ea4f 4b23 	mov.w	fp, r3, asr #16
 8006a4e:	d2de      	bcs.n	8006a0e <quorem+0x42>
 8006a50:	9b00      	ldr	r3, [sp, #0]
 8006a52:	58eb      	ldr	r3, [r5, r3]
 8006a54:	b92b      	cbnz	r3, 8006a62 <quorem+0x96>
 8006a56:	9b01      	ldr	r3, [sp, #4]
 8006a58:	3b04      	subs	r3, #4
 8006a5a:	429d      	cmp	r5, r3
 8006a5c:	461a      	mov	r2, r3
 8006a5e:	d32f      	bcc.n	8006ac0 <quorem+0xf4>
 8006a60:	613c      	str	r4, [r7, #16]
 8006a62:	4638      	mov	r0, r7
 8006a64:	f001 f97e 	bl	8007d64 <__mcmp>
 8006a68:	2800      	cmp	r0, #0
 8006a6a:	db25      	blt.n	8006ab8 <quorem+0xec>
 8006a6c:	4629      	mov	r1, r5
 8006a6e:	2000      	movs	r0, #0
 8006a70:	f858 2b04 	ldr.w	r2, [r8], #4
 8006a74:	f8d1 c000 	ldr.w	ip, [r1]
 8006a78:	fa1f fe82 	uxth.w	lr, r2
 8006a7c:	fa1f f38c 	uxth.w	r3, ip
 8006a80:	eba3 030e 	sub.w	r3, r3, lr
 8006a84:	4403      	add	r3, r0
 8006a86:	0c12      	lsrs	r2, r2, #16
 8006a88:	ebc2 4223 	rsb	r2, r2, r3, asr #16
 8006a8c:	eb02 421c 	add.w	r2, r2, ip, lsr #16
 8006a90:	b29b      	uxth	r3, r3
 8006a92:	ea43 4302 	orr.w	r3, r3, r2, lsl #16
 8006a96:	45c1      	cmp	r9, r8
 8006a98:	f841 3b04 	str.w	r3, [r1], #4
 8006a9c:	ea4f 4022 	mov.w	r0, r2, asr #16
 8006aa0:	d2e6      	bcs.n	8006a70 <quorem+0xa4>
 8006aa2:	f855 2024 	ldr.w	r2, [r5, r4, lsl #2]
 8006aa6:	eb05 0384 	add.w	r3, r5, r4, lsl #2
 8006aaa:	b922      	cbnz	r2, 8006ab6 <quorem+0xea>
 8006aac:	3b04      	subs	r3, #4
 8006aae:	429d      	cmp	r5, r3
 8006ab0:	461a      	mov	r2, r3
 8006ab2:	d30b      	bcc.n	8006acc <quorem+0x100>
 8006ab4:	613c      	str	r4, [r7, #16]
 8006ab6:	3601      	adds	r6, #1
 8006ab8:	4630      	mov	r0, r6
 8006aba:	b003      	add	sp, #12
 8006abc:	e8bd 8ff0 	ldmia.w	sp!, {r4, r5, r6, r7, r8, r9, sl, fp, pc}
 8006ac0:	6812      	ldr	r2, [r2, #0]
 8006ac2:	3b04      	subs	r3, #4
 8006ac4:	2a00      	cmp	r2, #0
 8006ac6:	d1cb      	bne.n	8006a60 <quorem+0x94>
 8006ac8:	3c01      	subs	r4, #1
 8006aca:	e7c6      	b.n	8006a5a <quorem+0x8e>
 8006acc:	6812      	ldr	r2, [r2, #0]
 8006ace:	3b04      	subs	r3, #4
 8006ad0:	2a00      	cmp	r2, #0
 8006ad2:	d1ef      	bne.n	8006ab4 <quorem+0xe8>
 8006ad4:	3c01      	subs	r4, #1
 8006ad6:	e7ea      	b.n	8006aae <quorem+0xe2>
 8006ad8:	2000      	movs	r0, #0
 8006ada:	e7ee      	b.n	8006aba <quorem+0xee>
 8006adc:	0000      	movs	r0, r0
	...

08006ae0 <_dtoa_r>:
 8006ae0:	e92d 4ff0 	stmdb	sp!, {r4, r5, r6, r7, r8, r9, sl, fp, lr}
 8006ae4:	69c7      	ldr	r7, [r0, #28]
 8006ae6:	b097      	sub	sp, #92	@ 0x5c
 8006ae8:	ed8d 0b04 	vstr	d0, [sp, #16]
 8006aec:	ec55 4b10 	vmov	r4, r5, d0
 8006af0:	9e20      	ldr	r6, [sp, #128]	@ 0x80
 8006af2:	9107      	str	r1, [sp, #28]
 8006af4:	4681      	mov	r9, r0
 8006af6:	920c      	str	r2, [sp, #48]	@ 0x30
 8006af8:	9311      	str	r3, [sp, #68]	@ 0x44
 8006afa:	b97f      	cbnz	r7, 8006b1c <_dtoa_r+0x3c>
 8006afc:	2010      	movs	r0, #16
 8006afe:	f000 fe09 	bl	8007714 <malloc>
 8006b02:	4602      	mov	r2, r0
 8006b04:	f8c9 001c 	str.w	r0, [r9, #28]
 8006b08:	b920      	cbnz	r0, 8006b14 <_dtoa_r+0x34>
 8006b0a:	4ba9      	ldr	r3, [pc, #676]	@ (8006db0 <_dtoa_r+0x2d0>)
 8006b0c:	21ef      	movs	r1, #239	@ 0xef
 8006b0e:	48a9      	ldr	r0, [pc, #676]	@ (8006db4 <_dtoa_r+0x2d4>)
 8006b10:	f7ff ff3e 	bl	8006990 <__assert_func>
 8006b14:	e9c0 7701 	strd	r7, r7, [r0, #4]
 8006b18:	6007      	str	r7, [r0, #0]
 8006b1a:	60c7      	str	r7, [r0, #12]
 8006b1c:	f8d9 301c 	ldr.w	r3, [r9, #28]
 8006b20:	6819      	ldr	r1, [r3, #0]
 8006b22:	b159      	cbz	r1, 8006b3c <_dtoa_r+0x5c>
 8006b24:	685a      	ldr	r2, [r3, #4]
 8006b26:	604a      	str	r2, [r1, #4]
 8006b28:	2301      	movs	r3, #1
 8006b2a:	4093      	lsls	r3, r2
 8006b2c:	608b      	str	r3, [r1, #8]
 8006b2e:	4648      	mov	r0, r9
 8006b30:	f000 fee6 	bl	8007900 <_Bfree>
 8006b34:	f8d9 301c 	ldr.w	r3, [r9, #28]
 8006b38:	2200      	movs	r2, #0
 8006b3a:	601a      	str	r2, [r3, #0]
 8006b3c:	1e2b      	subs	r3, r5, #0
 8006b3e:	bfb9      	ittee	lt
 8006b40:	f023 4300 	biclt.w	r3, r3, #2147483648	@ 0x80000000
 8006b44:	9305      	strlt	r3, [sp, #20]
 8006b46:	2300      	movge	r3, #0
 8006b48:	6033      	strge	r3, [r6, #0]
 8006b4a:	9f05      	ldr	r7, [sp, #20]
 8006b4c:	4b9a      	ldr	r3, [pc, #616]	@ (8006db8 <_dtoa_r+0x2d8>)
 8006b4e:	bfbc      	itt	lt
 8006b50:	2201      	movlt	r2, #1
 8006b52:	6032      	strlt	r2, [r6, #0]
 8006b54:	43bb      	bics	r3, r7
 8006b56:	d112      	bne.n	8006b7e <_dtoa_r+0x9e>
 8006b58:	9a11      	ldr	r2, [sp, #68]	@ 0x44
 8006b5a:	f242 730f 	movw	r3, #9999	@ 0x270f
 8006b5e:	6013      	str	r3, [r2, #0]
 8006b60:	f3c7 0313 	ubfx	r3, r7, #0, #20
 8006b64:	4323      	orrs	r3, r4
 8006b66:	f000 855a 	beq.w	800761e <_dtoa_r+0xb3e>
 8006b6a:	9b21      	ldr	r3, [sp, #132]	@ 0x84
 8006b6c:	f8df a25c 	ldr.w	sl, [pc, #604]	@ 8006dcc <_dtoa_r+0x2ec>
 8006b70:	2b00      	cmp	r3, #0
 8006b72:	f000 855c 	beq.w	800762e <_dtoa_r+0xb4e>
 8006b76:	f10a 0303 	add.w	r3, sl, #3
 8006b7a:	f000 bd56 	b.w	800762a <_dtoa_r+0xb4a>
 8006b7e:	ed9d 7b04 	vldr	d7, [sp, #16]
 8006b82:	2200      	movs	r2, #0
 8006b84:	ec51 0b17 	vmov	r0, r1, d7
 8006b88:	2300      	movs	r3, #0
 8006b8a:	ed8d 7b0a 	vstr	d7, [sp, #40]	@ 0x28
 8006b8e:	f7f9 ffcb 	bl	8000b28 <__aeabi_dcmpeq>
 8006b92:	4680      	mov	r8, r0
 8006b94:	b158      	cbz	r0, 8006bae <_dtoa_r+0xce>
 8006b96:	9a11      	ldr	r2, [sp, #68]	@ 0x44
 8006b98:	2301      	movs	r3, #1
 8006b9a:	6013      	str	r3, [r2, #0]
 8006b9c:	9b21      	ldr	r3, [sp, #132]	@ 0x84
 8006b9e:	b113      	cbz	r3, 8006ba6 <_dtoa_r+0xc6>
 8006ba0:	9a21      	ldr	r2, [sp, #132]	@ 0x84
 8006ba2:	4b86      	ldr	r3, [pc, #536]	@ (8006dbc <_dtoa_r+0x2dc>)
 8006ba4:	6013      	str	r3, [r2, #0]
 8006ba6:	f8df a228 	ldr.w	sl, [pc, #552]	@ 8006dd0 <_dtoa_r+0x2f0>
 8006baa:	f000 bd40 	b.w	800762e <_dtoa_r+0xb4e>
 8006bae:	ed9d 0b0a 	vldr	d0, [sp, #40]	@ 0x28
 8006bb2:	aa14      	add	r2, sp, #80	@ 0x50
 8006bb4:	a915      	add	r1, sp, #84	@ 0x54
 8006bb6:	4648      	mov	r0, r9
 8006bb8:	f001 f984 	bl	8007ec4 <__d2b>
 8006bbc:	f3c7 560a 	ubfx	r6, r7, #20, #11
 8006bc0:	9002      	str	r0, [sp, #8]
 8006bc2:	2e00      	cmp	r6, #0
 8006bc4:	d078      	beq.n	8006cb8 <_dtoa_r+0x1d8>
 8006bc6:	9b0b      	ldr	r3, [sp, #44]	@ 0x2c
 8006bc8:	f8cd 8048 	str.w	r8, [sp, #72]	@ 0x48
 8006bcc:	f3c3 0313 	ubfx	r3, r3, #0, #20
 8006bd0:	e9dd 010a 	ldrd	r0, r1, [sp, #40]	@ 0x28
 8006bd4:	f043 537f 	orr.w	r3, r3, #1069547520	@ 0x3fc00000
 8006bd8:	f443 1340 	orr.w	r3, r3, #3145728	@ 0x300000
 8006bdc:	f2a6 36ff 	subw	r6, r6, #1023	@ 0x3ff
 8006be0:	4619      	mov	r1, r3
 8006be2:	2200      	movs	r2, #0
 8006be4:	4b76      	ldr	r3, [pc, #472]	@ (8006dc0 <_dtoa_r+0x2e0>)
 8006be6:	f7f9 fb7f 	bl	80002e8 <__aeabi_dsub>
 8006bea:	a36b      	add	r3, pc, #428	@ (adr r3, 8006d98 <_dtoa_r+0x2b8>)
 8006bec:	e9d3 2300 	ldrd	r2, r3, [r3]
 8006bf0:	f7f9 fd32 	bl	8000658 <__aeabi_dmul>
 8006bf4:	a36a      	add	r3, pc, #424	@ (adr r3, 8006da0 <_dtoa_r+0x2c0>)
 8006bf6:	e9d3 2300 	ldrd	r2, r3, [r3]
 8006bfa:	f7f9 fb77 	bl	80002ec <__adddf3>
 8006bfe:	4604      	mov	r4, r0
 8006c00:	4630      	mov	r0, r6
 8006c02:	460d      	mov	r5, r1
 8006c04:	f7f9 fcbe 	bl	8000584 <__aeabi_i2d>
 8006c08:	a367      	add	r3, pc, #412	@ (adr r3, 8006da8 <_dtoa_r+0x2c8>)
 8006c0a:	e9d3 2300 	ldrd	r2, r3, [r3]
 8006c0e:	f7f9 fd23 	bl	8000658 <__aeabi_dmul>
 8006c12:	4602      	mov	r2, r0
 8006c14:	460b      	mov	r3, r1
 8006c16:	4620      	mov	r0, r4
 8006c18:	4629      	mov	r1, r5
 8006c1a:	f7f9 fb67 	bl	80002ec <__adddf3>
 8006c1e:	4604      	mov	r4, r0
 8006c20:	460d      	mov	r5, r1
 8006c22:	f7f9 ffc9 	bl	8000bb8 <__aeabi_d2iz>
 8006c26:	2200      	movs	r2, #0
 8006c28:	4607      	mov	r7, r0
 8006c2a:	2300      	movs	r3, #0
 8006c2c:	4620      	mov	r0, r4
 8006c2e:	4629      	mov	r1, r5
 8006c30:	f7f9 ff84 	bl	8000b3c <__aeabi_dcmplt>
 8006c34:	b140      	cbz	r0, 8006c48 <_dtoa_r+0x168>
 8006c36:	4638      	mov	r0, r7
 8006c38:	f7f9 fca4 	bl	8000584 <__aeabi_i2d>
 8006c3c:	4622      	mov	r2, r4
 8006c3e:	462b      	mov	r3, r5
 8006c40:	f7f9 ff72 	bl	8000b28 <__aeabi_dcmpeq>
 8006c44:	b900      	cbnz	r0, 8006c48 <_dtoa_r+0x168>
 8006c46:	3f01      	subs	r7, #1
 8006c48:	2f16      	cmp	r7, #22
 8006c4a:	d852      	bhi.n	8006cf2 <_dtoa_r+0x212>
 8006c4c:	4b5d      	ldr	r3, [pc, #372]	@ (8006dc4 <_dtoa_r+0x2e4>)
 8006c4e:	eb03 03c7 	add.w	r3, r3, r7, lsl #3
 8006c52:	e9d3 2300 	ldrd	r2, r3, [r3]
 8006c56:	e9dd 010a 	ldrd	r0, r1, [sp, #40]	@ 0x28
 8006c5a:	f7f9 ff6f 	bl	8000b3c <__aeabi_dcmplt>
 8006c5e:	2800      	cmp	r0, #0
 8006c60:	d049      	beq.n	8006cf6 <_dtoa_r+0x216>
 8006c62:	3f01      	subs	r7, #1
 8006c64:	2300      	movs	r3, #0
 8006c66:	9310      	str	r3, [sp, #64]	@ 0x40
 8006c68:	9b14      	ldr	r3, [sp, #80]	@ 0x50
 8006c6a:	1b9b      	subs	r3, r3, r6
 8006c6c:	1e5a      	subs	r2, r3, #1
 8006c6e:	bf45      	ittet	mi
 8006c70:	f1c3 0301 	rsbmi	r3, r3, #1
 8006c74:	9300      	strmi	r3, [sp, #0]
 8006c76:	2300      	movpl	r3, #0
 8006c78:	2300      	movmi	r3, #0
 8006c7a:	9206      	str	r2, [sp, #24]
 8006c7c:	bf54      	ite	pl
 8006c7e:	9300      	strpl	r3, [sp, #0]
 8006c80:	9306      	strmi	r3, [sp, #24]
 8006c82:	2f00      	cmp	r7, #0
 8006c84:	db39      	blt.n	8006cfa <_dtoa_r+0x21a>
 8006c86:	9b06      	ldr	r3, [sp, #24]
 8006c88:	970d      	str	r7, [sp, #52]	@ 0x34
 8006c8a:	443b      	add	r3, r7
 8006c8c:	9306      	str	r3, [sp, #24]
 8006c8e:	2300      	movs	r3, #0
 8006c90:	9308      	str	r3, [sp, #32]
 8006c92:	9b07      	ldr	r3, [sp, #28]
 8006c94:	2b09      	cmp	r3, #9
 8006c96:	d863      	bhi.n	8006d60 <_dtoa_r+0x280>
 8006c98:	2b05      	cmp	r3, #5
 8006c9a:	bfc4      	itt	gt
 8006c9c:	3b04      	subgt	r3, #4
 8006c9e:	9307      	strgt	r3, [sp, #28]
 8006ca0:	9b07      	ldr	r3, [sp, #28]
 8006ca2:	f1a3 0302 	sub.w	r3, r3, #2
 8006ca6:	bfcc      	ite	gt
 8006ca8:	2400      	movgt	r4, #0
 8006caa:	2401      	movle	r4, #1
 8006cac:	2b03      	cmp	r3, #3
 8006cae:	d863      	bhi.n	8006d78 <_dtoa_r+0x298>
 8006cb0:	e8df f003 	tbb	[pc, r3]
 8006cb4:	2b375452 	.word	0x2b375452
 8006cb8:	e9dd 6314 	ldrd	r6, r3, [sp, #80]	@ 0x50
 8006cbc:	441e      	add	r6, r3
 8006cbe:	f206 4332 	addw	r3, r6, #1074	@ 0x432
 8006cc2:	2b20      	cmp	r3, #32
 8006cc4:	bfc1      	itttt	gt
 8006cc6:	f1c3 0340 	rsbgt	r3, r3, #64	@ 0x40
 8006cca:	409f      	lslgt	r7, r3
 8006ccc:	f206 4312 	addwgt	r3, r6, #1042	@ 0x412
 8006cd0:	fa24 f303 	lsrgt.w	r3, r4, r3
 8006cd4:	bfd6      	itet	le
 8006cd6:	f1c3 0320 	rsble	r3, r3, #32
 8006cda:	ea47 0003 	orrgt.w	r0, r7, r3
 8006cde:	fa04 f003 	lslle.w	r0, r4, r3
 8006ce2:	f7f9 fc3f 	bl	8000564 <__aeabi_ui2d>
 8006ce6:	2201      	movs	r2, #1
 8006ce8:	f1a1 73f8 	sub.w	r3, r1, #32505856	@ 0x1f00000
 8006cec:	3e01      	subs	r6, #1
 8006cee:	9212      	str	r2, [sp, #72]	@ 0x48
 8006cf0:	e776      	b.n	8006be0 <_dtoa_r+0x100>
 8006cf2:	2301      	movs	r3, #1
 8006cf4:	e7b7      	b.n	8006c66 <_dtoa_r+0x186>
 8006cf6:	9010      	str	r0, [sp, #64]	@ 0x40
 8006cf8:	e7b6      	b.n	8006c68 <_dtoa_r+0x188>
 8006cfa:	9b00      	ldr	r3, [sp, #0]
 8006cfc:	1bdb      	subs	r3, r3, r7
 8006cfe:	9300      	str	r3, [sp, #0]
 8006d00:	427b      	negs	r3, r7
 8006d02:	9308      	str	r3, [sp, #32]
 8006d04:	2300      	movs	r3, #0
 8006d06:	930d      	str	r3, [sp, #52]	@ 0x34
 8006d08:	e7c3      	b.n	8006c92 <_dtoa_r+0x1b2>
 8006d0a:	2301      	movs	r3, #1
 8006d0c:	9309      	str	r3, [sp, #36]	@ 0x24
 8006d0e:	9b0c      	ldr	r3, [sp, #48]	@ 0x30
 8006d10:	eb07 0b03 	add.w	fp, r7, r3
 8006d14:	f10b 0301 	add.w	r3, fp, #1
 8006d18:	2b01      	cmp	r3, #1
 8006d1a:	9303      	str	r3, [sp, #12]
 8006d1c:	bfb8      	it	lt
 8006d1e:	2301      	movlt	r3, #1
 8006d20:	e006      	b.n	8006d30 <_dtoa_r+0x250>
 8006d22:	2301      	movs	r3, #1
 8006d24:	9309      	str	r3, [sp, #36]	@ 0x24
 8006d26:	9b0c      	ldr	r3, [sp, #48]	@ 0x30
 8006d28:	2b00      	cmp	r3, #0
 8006d2a:	dd28      	ble.n	8006d7e <_dtoa_r+0x29e>
 8006d2c:	469b      	mov	fp, r3
 8006d2e:	9303      	str	r3, [sp, #12]
 8006d30:	f8d9 001c 	ldr.w	r0, [r9, #28]
 8006d34:	2100      	movs	r1, #0
 8006d36:	2204      	movs	r2, #4
 8006d38:	f102 0514 	add.w	r5, r2, #20
 8006d3c:	429d      	cmp	r5, r3
 8006d3e:	d926      	bls.n	8006d8e <_dtoa_r+0x2ae>
 8006d40:	6041      	str	r1, [r0, #4]
 8006d42:	4648      	mov	r0, r9
 8006d44:	f000 fd9c 	bl	8007880 <_Balloc>
 8006d48:	4682      	mov	sl, r0
 8006d4a:	2800      	cmp	r0, #0
 8006d4c:	d142      	bne.n	8006dd4 <_dtoa_r+0x2f4>
 8006d4e:	4b1e      	ldr	r3, [pc, #120]	@ (8006dc8 <_dtoa_r+0x2e8>)
 8006d50:	4602      	mov	r2, r0
 8006d52:	f240 11af 	movw	r1, #431	@ 0x1af
 8006d56:	e6da      	b.n	8006b0e <_dtoa_r+0x2e>
 8006d58:	2300      	movs	r3, #0
 8006d5a:	e7e3      	b.n	8006d24 <_dtoa_r+0x244>
 8006d5c:	2300      	movs	r3, #0
 8006d5e:	e7d5      	b.n	8006d0c <_dtoa_r+0x22c>
 8006d60:	2401      	movs	r4, #1
 8006d62:	2300      	movs	r3, #0
 8006d64:	9307      	str	r3, [sp, #28]
 8006d66:	9409      	str	r4, [sp, #36]	@ 0x24
 8006d68:	f04f 3bff 	mov.w	fp, #4294967295
 8006d6c:	2200      	movs	r2, #0
 8006d6e:	f8cd b00c 	str.w	fp, [sp, #12]
 8006d72:	2312      	movs	r3, #18
 8006d74:	920c      	str	r2, [sp, #48]	@ 0x30
 8006d76:	e7db      	b.n	8006d30 <_dtoa_r+0x250>
 8006d78:	2301      	movs	r3, #1
 8006d7a:	9309      	str	r3, [sp, #36]	@ 0x24
 8006d7c:	e7f4      	b.n	8006d68 <_dtoa_r+0x288>
 8006d7e:	f04f 0b01 	mov.w	fp, #1
 8006d82:	f8cd b00c 	str.w	fp, [sp, #12]
 8006d86:	465b      	mov	r3, fp
 8006d88:	f8cd b030 	str.w	fp, [sp, #48]	@ 0x30
 8006d8c:	e7d0      	b.n	8006d30 <_dtoa_r+0x250>
 8006d8e:	3101      	adds	r1, #1
 8006d90:	0052      	lsls	r2, r2, #1
 8006d92:	e7d1      	b.n	8006d38 <_dtoa_r+0x258>
 8006d94:	f3af 8000 	nop.w
 8006d98:	636f4361 	.word	0x636f4361
 8006d9c:	3fd287a7 	.word	0x3fd287a7
 8006da0:	8b60c8b3 	.word	0x8b60c8b3
 8006da4:	3fc68a28 	.word	0x3fc68a28
 8006da8:	509f79fb 	.word	0x509f79fb
 8006dac:	3fd34413 	.word	0x3fd34413
 8006db0:	080099dd 	.word	0x080099dd
 8006db4:	080099f4 	.word	0x080099f4
 8006db8:	7ff00000 	.word	0x7ff00000
 8006dbc:	08009971 	.word	0x08009971
 8006dc0:	3ff80000 	.word	0x3ff80000
 8006dc4:	08009b08 	.word	0x08009b08
 8006dc8:	08009a4c 	.word	0x08009a4c
 8006dcc:	080099d9 	.word	0x080099d9
 8006dd0:	08009970 	.word	0x08009970
 8006dd4:	f8d9 301c 	ldr.w	r3, [r9, #28]
 8006dd8:	6018      	str	r0, [r3, #0]
 8006dda:	9b03      	ldr	r3, [sp, #12]
 8006ddc:	2b0e      	cmp	r3, #14
 8006dde:	f200 80a1 	bhi.w	8006f24 <_dtoa_r+0x444>
 8006de2:	2c00      	cmp	r4, #0
 8006de4:	f000 809e 	beq.w	8006f24 <_dtoa_r+0x444>
 8006de8:	2f00      	cmp	r7, #0
 8006dea:	dd33      	ble.n	8006e54 <_dtoa_r+0x374>
 8006dec:	4b9c      	ldr	r3, [pc, #624]	@ (8007060 <_dtoa_r+0x580>)
 8006dee:	f007 020f 	and.w	r2, r7, #15
 8006df2:	eb03 03c2 	add.w	r3, r3, r2, lsl #3
 8006df6:	ed93 7b00 	vldr	d7, [r3]
 8006dfa:	05f8      	lsls	r0, r7, #23
 8006dfc:	ed8d 7b0e 	vstr	d7, [sp, #56]	@ 0x38
 8006e00:	ea4f 1427 	mov.w	r4, r7, asr #4
 8006e04:	d516      	bpl.n	8006e34 <_dtoa_r+0x354>
 8006e06:	4b97      	ldr	r3, [pc, #604]	@ (8007064 <_dtoa_r+0x584>)
 8006e08:	e9dd 010a 	ldrd	r0, r1, [sp, #40]	@ 0x28
 8006e0c:	e9d3 2308 	ldrd	r2, r3, [r3, #32]
 8006e10:	f7f9 fd4c 	bl	80008ac <__aeabi_ddiv>
 8006e14:	e9cd 0104 	strd	r0, r1, [sp, #16]
 8006e18:	f004 040f 	and.w	r4, r4, #15
 8006e1c:	2603      	movs	r6, #3
 8006e1e:	4d91      	ldr	r5, [pc, #580]	@ (8007064 <_dtoa_r+0x584>)
 8006e20:	b954      	cbnz	r4, 8006e38 <_dtoa_r+0x358>
 8006e22:	e9dd 230e 	ldrd	r2, r3, [sp, #56]	@ 0x38
 8006e26:	e9dd 0104 	ldrd	r0, r1, [sp, #16]
 8006e2a:	f7f9 fd3f 	bl	80008ac <__aeabi_ddiv>
 8006e2e:	e9cd 0104 	strd	r0, r1, [sp, #16]
 8006e32:	e028      	b.n	8006e86 <_dtoa_r+0x3a6>
 8006e34:	2602      	movs	r6, #2
 8006e36:	e7f2      	b.n	8006e1e <_dtoa_r+0x33e>
 8006e38:	07e1      	lsls	r1, r4, #31
 8006e3a:	d508      	bpl.n	8006e4e <_dtoa_r+0x36e>
 8006e3c:	e9dd 010e 	ldrd	r0, r1, [sp, #56]	@ 0x38
 8006e40:	e9d5 2300 	ldrd	r2, r3, [r5]
 8006e44:	f7f9 fc08 	bl	8000658 <__aeabi_dmul>
 8006e48:	e9cd 010e 	strd	r0, r1, [sp, #56]	@ 0x38
 8006e4c:	3601      	adds	r6, #1
 8006e4e:	1064      	asrs	r4, r4, #1
 8006e50:	3508      	adds	r5, #8
 8006e52:	e7e5      	b.n	8006e20 <_dtoa_r+0x340>
 8006e54:	f000 80af 	beq.w	8006fb6 <_dtoa_r+0x4d6>
 8006e58:	427c      	negs	r4, r7
 8006e5a:	4b81      	ldr	r3, [pc, #516]	@ (8007060 <_dtoa_r+0x580>)
 8006e5c:	4d81      	ldr	r5, [pc, #516]	@ (8007064 <_dtoa_r+0x584>)
 8006e5e:	f004 020f 	and.w	r2, r4, #15
 8006e62:	eb03 03c2 	add.w	r3, r3, r2, lsl #3
 8006e66:	e9d3 2300 	ldrd	r2, r3, [r3]
 8006e6a:	e9dd 010a 	ldrd	r0, r1, [sp, #40]	@ 0x28
 8006e6e:	f7f9 fbf3 	bl	8000658 <__aeabi_dmul>
 8006e72:	e9cd 0104 	strd	r0, r1, [sp, #16]
 8006e76:	1124      	asrs	r4, r4, #4
 8006e78:	2300      	movs	r3, #0
 8006e7a:	2602      	movs	r6, #2
 8006e7c:	2c00      	cmp	r4, #0
 8006e7e:	f040 808f 	bne.w	8006fa0 <_dtoa_r+0x4c0>
 8006e82:	2b00      	cmp	r3, #0
 8006e84:	d1d3      	bne.n	8006e2e <_dtoa_r+0x34e>
 8006e86:	9b10      	ldr	r3, [sp, #64]	@ 0x40
 8006e88:	e9dd 4504 	ldrd	r4, r5, [sp, #16]
 8006e8c:	2b00      	cmp	r3, #0
 8006e8e:	f000 8094 	beq.w	8006fba <_dtoa_r+0x4da>
 8006e92:	4b75      	ldr	r3, [pc, #468]	@ (8007068 <_dtoa_r+0x588>)
 8006e94:	2200      	movs	r2, #0
 8006e96:	4620      	mov	r0, r4
 8006e98:	4629      	mov	r1, r5
 8006e9a:	f7f9 fe4f 	bl	8000b3c <__aeabi_dcmplt>
 8006e9e:	2800      	cmp	r0, #0
 8006ea0:	f000 808b 	beq.w	8006fba <_dtoa_r+0x4da>
 8006ea4:	9b03      	ldr	r3, [sp, #12]
 8006ea6:	2b00      	cmp	r3, #0
 8006ea8:	f000 8087 	beq.w	8006fba <_dtoa_r+0x4da>
 8006eac:	f1bb 0f00 	cmp.w	fp, #0
 8006eb0:	dd34      	ble.n	8006f1c <_dtoa_r+0x43c>
 8006eb2:	4620      	mov	r0, r4
 8006eb4:	4b6d      	ldr	r3, [pc, #436]	@ (800706c <_dtoa_r+0x58c>)
 8006eb6:	2200      	movs	r2, #0
 8006eb8:	4629      	mov	r1, r5
 8006eba:	f7f9 fbcd 	bl	8000658 <__aeabi_dmul>
 8006ebe:	e9cd 0104 	strd	r0, r1, [sp, #16]
 8006ec2:	f107 38ff 	add.w	r8, r7, #4294967295
 8006ec6:	3601      	adds	r6, #1
 8006ec8:	465c      	mov	r4, fp
 8006eca:	4630      	mov	r0, r6
 8006ecc:	f7f9 fb5a 	bl	8000584 <__aeabi_i2d>
 8006ed0:	e9dd 2304 	ldrd	r2, r3, [sp, #16]
 8006ed4:	f7f9 fbc0 	bl	8000658 <__aeabi_dmul>
 8006ed8:	4b65      	ldr	r3, [pc, #404]	@ (8007070 <_dtoa_r+0x590>)
 8006eda:	2200      	movs	r2, #0
 8006edc:	f7f9 fa06 	bl	80002ec <__adddf3>
 8006ee0:	4605      	mov	r5, r0
 8006ee2:	f1a1 7650 	sub.w	r6, r1, #54525952	@ 0x3400000
 8006ee6:	2c00      	cmp	r4, #0
 8006ee8:	d16a      	bne.n	8006fc0 <_dtoa_r+0x4e0>
 8006eea:	e9dd 0104 	ldrd	r0, r1, [sp, #16]
 8006eee:	4b61      	ldr	r3, [pc, #388]	@ (8007074 <_dtoa_r+0x594>)
 8006ef0:	2200      	movs	r2, #0
 8006ef2:	f7f9 f9f9 	bl	80002e8 <__aeabi_dsub>
 8006ef6:	4602      	mov	r2, r0
 8006ef8:	460b      	mov	r3, r1
 8006efa:	e9cd 2304 	strd	r2, r3, [sp, #16]
 8006efe:	462a      	mov	r2, r5
 8006f00:	4633      	mov	r3, r6
 8006f02:	f7f9 fe39 	bl	8000b78 <__aeabi_dcmpgt>
 8006f06:	2800      	cmp	r0, #0
 8006f08:	f040 8298 	bne.w	800743c <_dtoa_r+0x95c>
 8006f0c:	e9dd 0104 	ldrd	r0, r1, [sp, #16]
 8006f10:	462a      	mov	r2, r5
 8006f12:	f106 4300 	add.w	r3, r6, #2147483648	@ 0x80000000
 8006f16:	f7f9 fe11 	bl	8000b3c <__aeabi_dcmplt>
 8006f1a:	bb38      	cbnz	r0, 8006f6c <_dtoa_r+0x48c>
 8006f1c:	e9dd 340a 	ldrd	r3, r4, [sp, #40]	@ 0x28
 8006f20:	e9cd 3404 	strd	r3, r4, [sp, #16]
 8006f24:	9b15      	ldr	r3, [sp, #84]	@ 0x54
 8006f26:	2b00      	cmp	r3, #0
 8006f28:	f2c0 8157 	blt.w	80071da <_dtoa_r+0x6fa>
 8006f2c:	2f0e      	cmp	r7, #14
 8006f2e:	f300 8154 	bgt.w	80071da <_dtoa_r+0x6fa>
 8006f32:	4b4b      	ldr	r3, [pc, #300]	@ (8007060 <_dtoa_r+0x580>)
 8006f34:	eb03 03c7 	add.w	r3, r3, r7, lsl #3
 8006f38:	ed93 7b00 	vldr	d7, [r3]
 8006f3c:	9b0c      	ldr	r3, [sp, #48]	@ 0x30
 8006f3e:	2b00      	cmp	r3, #0
 8006f40:	ed8d 7b00 	vstr	d7, [sp]
 8006f44:	f280 80e5 	bge.w	8007112 <_dtoa_r+0x632>
 8006f48:	9b03      	ldr	r3, [sp, #12]
 8006f4a:	2b00      	cmp	r3, #0
 8006f4c:	f300 80e1 	bgt.w	8007112 <_dtoa_r+0x632>
 8006f50:	d10c      	bne.n	8006f6c <_dtoa_r+0x48c>
 8006f52:	4b48      	ldr	r3, [pc, #288]	@ (8007074 <_dtoa_r+0x594>)
 8006f54:	2200      	movs	r2, #0
 8006f56:	ec51 0b17 	vmov	r0, r1, d7
 8006f5a:	f7f9 fb7d 	bl	8000658 <__aeabi_dmul>
 8006f5e:	e9dd 2304 	ldrd	r2, r3, [sp, #16]
 8006f62:	f7f9 fdff 	bl	8000b64 <__aeabi_dcmpge>
 8006f66:	2800      	cmp	r0, #0
 8006f68:	f000 8266 	beq.w	8007438 <_dtoa_r+0x958>
 8006f6c:	2400      	movs	r4, #0
 8006f6e:	4625      	mov	r5, r4
 8006f70:	9b0c      	ldr	r3, [sp, #48]	@ 0x30
 8006f72:	4656      	mov	r6, sl
 8006f74:	ea6f 0803 	mvn.w	r8, r3
 8006f78:	2700      	movs	r7, #0
 8006f7a:	4621      	mov	r1, r4
 8006f7c:	4648      	mov	r0, r9
 8006f7e:	f000 fcbf 	bl	8007900 <_Bfree>
 8006f82:	2d00      	cmp	r5, #0
 8006f84:	f000 80bd 	beq.w	8007102 <_dtoa_r+0x622>
 8006f88:	b12f      	cbz	r7, 8006f96 <_dtoa_r+0x4b6>
 8006f8a:	42af      	cmp	r7, r5
 8006f8c:	d003      	beq.n	8006f96 <_dtoa_r+0x4b6>
 8006f8e:	4639      	mov	r1, r7
 8006f90:	4648      	mov	r0, r9
 8006f92:	f000 fcb5 	bl	8007900 <_Bfree>
 8006f96:	4629      	mov	r1, r5
 8006f98:	4648      	mov	r0, r9
 8006f9a:	f000 fcb1 	bl	8007900 <_Bfree>
 8006f9e:	e0b0      	b.n	8007102 <_dtoa_r+0x622>
 8006fa0:	07e2      	lsls	r2, r4, #31
 8006fa2:	d505      	bpl.n	8006fb0 <_dtoa_r+0x4d0>
 8006fa4:	e9d5 2300 	ldrd	r2, r3, [r5]
 8006fa8:	f7f9 fb56 	bl	8000658 <__aeabi_dmul>
 8006fac:	3601      	adds	r6, #1
 8006fae:	2301      	movs	r3, #1
 8006fb0:	1064      	asrs	r4, r4, #1
 8006fb2:	3508      	adds	r5, #8
 8006fb4:	e762      	b.n	8006e7c <_dtoa_r+0x39c>
 8006fb6:	2602      	movs	r6, #2
 8006fb8:	e765      	b.n	8006e86 <_dtoa_r+0x3a6>
 8006fba:	9c03      	ldr	r4, [sp, #12]
 8006fbc:	46b8      	mov	r8, r7
 8006fbe:	e784      	b.n	8006eca <_dtoa_r+0x3ea>
 8006fc0:	4b27      	ldr	r3, [pc, #156]	@ (8007060 <_dtoa_r+0x580>)
 8006fc2:	9909      	ldr	r1, [sp, #36]	@ 0x24
 8006fc4:	eb03 03c4 	add.w	r3, r3, r4, lsl #3
 8006fc8:	e953 2302 	ldrd	r2, r3, [r3, #-8]
 8006fcc:	4454      	add	r4, sl
 8006fce:	2900      	cmp	r1, #0
 8006fd0:	d054      	beq.n	800707c <_dtoa_r+0x59c>
 8006fd2:	4929      	ldr	r1, [pc, #164]	@ (8007078 <_dtoa_r+0x598>)
 8006fd4:	2000      	movs	r0, #0
 8006fd6:	f7f9 fc69 	bl	80008ac <__aeabi_ddiv>
 8006fda:	4633      	mov	r3, r6
 8006fdc:	462a      	mov	r2, r5
 8006fde:	f7f9 f983 	bl	80002e8 <__aeabi_dsub>
 8006fe2:	e9cd 010e 	strd	r0, r1, [sp, #56]	@ 0x38
 8006fe6:	4656      	mov	r6, sl
 8006fe8:	e9dd 0104 	ldrd	r0, r1, [sp, #16]
 8006fec:	f7f9 fde4 	bl	8000bb8 <__aeabi_d2iz>
 8006ff0:	4605      	mov	r5, r0
 8006ff2:	f7f9 fac7 	bl	8000584 <__aeabi_i2d>
 8006ff6:	4602      	mov	r2, r0
 8006ff8:	460b      	mov	r3, r1
 8006ffa:	e9dd 0104 	ldrd	r0, r1, [sp, #16]
 8006ffe:	f7f9 f973 	bl	80002e8 <__aeabi_dsub>
 8007002:	3530      	adds	r5, #48	@ 0x30
 8007004:	4602      	mov	r2, r0
 8007006:	460b      	mov	r3, r1
 8007008:	e9cd 2304 	strd	r2, r3, [sp, #16]
 800700c:	f806 5b01 	strb.w	r5, [r6], #1
 8007010:	e9dd 230e 	ldrd	r2, r3, [sp, #56]	@ 0x38
 8007014:	f7f9 fd92 	bl	8000b3c <__aeabi_dcmplt>
 8007018:	2800      	cmp	r0, #0
 800701a:	d172      	bne.n	8007102 <_dtoa_r+0x622>
 800701c:	e9dd 2304 	ldrd	r2, r3, [sp, #16]
 8007020:	4911      	ldr	r1, [pc, #68]	@ (8007068 <_dtoa_r+0x588>)
 8007022:	2000      	movs	r0, #0
 8007024:	f7f9 f960 	bl	80002e8 <__aeabi_dsub>
 8007028:	e9dd 230e 	ldrd	r2, r3, [sp, #56]	@ 0x38
 800702c:	f7f9 fd86 	bl	8000b3c <__aeabi_dcmplt>
 8007030:	2800      	cmp	r0, #0
 8007032:	f040 80b4 	bne.w	800719e <_dtoa_r+0x6be>
 8007036:	42a6      	cmp	r6, r4
 8007038:	f43f af70 	beq.w	8006f1c <_dtoa_r+0x43c>
 800703c:	e9dd 010e 	ldrd	r0, r1, [sp, #56]	@ 0x38
 8007040:	4b0a      	ldr	r3, [pc, #40]	@ (800706c <_dtoa_r+0x58c>)
 8007042:	2200      	movs	r2, #0
 8007044:	f7f9 fb08 	bl	8000658 <__aeabi_dmul>
 8007048:	4b08      	ldr	r3, [pc, #32]	@ (800706c <_dtoa_r+0x58c>)
 800704a:	e9cd 010e 	strd	r0, r1, [sp, #56]	@ 0x38
 800704e:	2200      	movs	r2, #0
 8007050:	e9dd 0104 	ldrd	r0, r1, [sp, #16]
 8007054:	f7f9 fb00 	bl	8000658 <__aeabi_dmul>
 8007058:	e9cd 0104 	strd	r0, r1, [sp, #16]
 800705c:	e7c4      	b.n	8006fe8 <_dtoa_r+0x508>
 800705e:	bf00      	nop
 8007060:	08009b08 	.word	0x08009b08
 8007064:	08009ae0 	.word	0x08009ae0
 8007068:	3ff00000 	.word	0x3ff00000
 800706c:	40240000 	.word	0x40240000
 8007070:	401c0000 	.word	0x401c0000
 8007074:	40140000 	.word	0x40140000
 8007078:	3fe00000 	.word	0x3fe00000
 800707c:	4631      	mov	r1, r6
 800707e:	4628      	mov	r0, r5
 8007080:	f7f9 faea 	bl	8000658 <__aeabi_dmul>
 8007084:	e9cd 010e 	strd	r0, r1, [sp, #56]	@ 0x38
 8007088:	9413      	str	r4, [sp, #76]	@ 0x4c
 800708a:	4656      	mov	r6, sl
 800708c:	e9dd 0104 	ldrd	r0, r1, [sp, #16]
 8007090:	f7f9 fd92 	bl	8000bb8 <__aeabi_d2iz>
 8007094:	4605      	mov	r5, r0
 8007096:	f7f9 fa75 	bl	8000584 <__aeabi_i2d>
 800709a:	4602      	mov	r2, r0
 800709c:	460b      	mov	r3, r1
 800709e:	e9dd 0104 	ldrd	r0, r1, [sp, #16]
 80070a2:	f7f9 f921 	bl	80002e8 <__aeabi_dsub>
 80070a6:	3530      	adds	r5, #48	@ 0x30
 80070a8:	f806 5b01 	strb.w	r5, [r6], #1
 80070ac:	4602      	mov	r2, r0
 80070ae:	460b      	mov	r3, r1
 80070b0:	42a6      	cmp	r6, r4
 80070b2:	e9cd 2304 	strd	r2, r3, [sp, #16]
 80070b6:	f04f 0200 	mov.w	r2, #0
 80070ba:	d124      	bne.n	8007106 <_dtoa_r+0x626>
 80070bc:	4baf      	ldr	r3, [pc, #700]	@ (800737c <_dtoa_r+0x89c>)
 80070be:	e9dd 010e 	ldrd	r0, r1, [sp, #56]	@ 0x38
 80070c2:	f7f9 f913 	bl	80002ec <__adddf3>
 80070c6:	4602      	mov	r2, r0
 80070c8:	460b      	mov	r3, r1
 80070ca:	e9dd 0104 	ldrd	r0, r1, [sp, #16]
 80070ce:	f7f9 fd53 	bl	8000b78 <__aeabi_dcmpgt>
 80070d2:	2800      	cmp	r0, #0
 80070d4:	d163      	bne.n	800719e <_dtoa_r+0x6be>
 80070d6:	e9dd 230e 	ldrd	r2, r3, [sp, #56]	@ 0x38
 80070da:	49a8      	ldr	r1, [pc, #672]	@ (800737c <_dtoa_r+0x89c>)
 80070dc:	2000      	movs	r0, #0
 80070de:	f7f9 f903 	bl	80002e8 <__aeabi_dsub>
 80070e2:	4602      	mov	r2, r0
 80070e4:	460b      	mov	r3, r1
 80070e6:	e9dd 0104 	ldrd	r0, r1, [sp, #16]
 80070ea:	f7f9 fd27 	bl	8000b3c <__aeabi_dcmplt>
 80070ee:	2800      	cmp	r0, #0
 80070f0:	f43f af14 	beq.w	8006f1c <_dtoa_r+0x43c>
 80070f4:	9e13      	ldr	r6, [sp, #76]	@ 0x4c
 80070f6:	1e73      	subs	r3, r6, #1
 80070f8:	9313      	str	r3, [sp, #76]	@ 0x4c
 80070fa:	f816 3c01 	ldrb.w	r3, [r6, #-1]
 80070fe:	2b30      	cmp	r3, #48	@ 0x30
 8007100:	d0f8      	beq.n	80070f4 <_dtoa_r+0x614>
 8007102:	4647      	mov	r7, r8
 8007104:	e03b      	b.n	800717e <_dtoa_r+0x69e>
 8007106:	4b9e      	ldr	r3, [pc, #632]	@ (8007380 <_dtoa_r+0x8a0>)
 8007108:	f7f9 faa6 	bl	8000658 <__aeabi_dmul>
 800710c:	e9cd 0104 	strd	r0, r1, [sp, #16]
 8007110:	e7bc      	b.n	800708c <_dtoa_r+0x5ac>
 8007112:	e9dd 4504 	ldrd	r4, r5, [sp, #16]
 8007116:	4656      	mov	r6, sl
 8007118:	e9dd 2300 	ldrd	r2, r3, [sp]
 800711c:	4620      	mov	r0, r4
 800711e:	4629      	mov	r1, r5
 8007120:	f7f9 fbc4 	bl	80008ac <__aeabi_ddiv>
 8007124:	f7f9 fd48 	bl	8000bb8 <__aeabi_d2iz>
 8007128:	4680      	mov	r8, r0
 800712a:	f7f9 fa2b 	bl	8000584 <__aeabi_i2d>
 800712e:	e9dd 2300 	ldrd	r2, r3, [sp]
 8007132:	f7f9 fa91 	bl	8000658 <__aeabi_dmul>
 8007136:	4602      	mov	r2, r0
 8007138:	460b      	mov	r3, r1
 800713a:	4620      	mov	r0, r4
 800713c:	4629      	mov	r1, r5
 800713e:	f108 0430 	add.w	r4, r8, #48	@ 0x30
 8007142:	f7f9 f8d1 	bl	80002e8 <__aeabi_dsub>
 8007146:	f806 4b01 	strb.w	r4, [r6], #1
 800714a:	9d03      	ldr	r5, [sp, #12]
 800714c:	eba6 040a 	sub.w	r4, r6, sl
 8007150:	42a5      	cmp	r5, r4
 8007152:	4602      	mov	r2, r0
 8007154:	460b      	mov	r3, r1
 8007156:	d133      	bne.n	80071c0 <_dtoa_r+0x6e0>
 8007158:	f7f9 f8c8 	bl	80002ec <__adddf3>
 800715c:	e9dd 2300 	ldrd	r2, r3, [sp]
 8007160:	4604      	mov	r4, r0
 8007162:	460d      	mov	r5, r1
 8007164:	f7f9 fd08 	bl	8000b78 <__aeabi_dcmpgt>
 8007168:	b9c0      	cbnz	r0, 800719c <_dtoa_r+0x6bc>
 800716a:	e9dd 2300 	ldrd	r2, r3, [sp]
 800716e:	4620      	mov	r0, r4
 8007170:	4629      	mov	r1, r5
 8007172:	f7f9 fcd9 	bl	8000b28 <__aeabi_dcmpeq>
 8007176:	b110      	cbz	r0, 800717e <_dtoa_r+0x69e>
 8007178:	f018 0f01 	tst.w	r8, #1
 800717c:	d10e      	bne.n	800719c <_dtoa_r+0x6bc>
 800717e:	9902      	ldr	r1, [sp, #8]
 8007180:	4648      	mov	r0, r9
 8007182:	f000 fbbd 	bl	8007900 <_Bfree>
 8007186:	2300      	movs	r3, #0
 8007188:	7033      	strb	r3, [r6, #0]
 800718a:	9b11      	ldr	r3, [sp, #68]	@ 0x44
 800718c:	3701      	adds	r7, #1
 800718e:	601f      	str	r7, [r3, #0]
 8007190:	9b21      	ldr	r3, [sp, #132]	@ 0x84
 8007192:	2b00      	cmp	r3, #0
 8007194:	f000 824b 	beq.w	800762e <_dtoa_r+0xb4e>
 8007198:	601e      	str	r6, [r3, #0]
 800719a:	e248      	b.n	800762e <_dtoa_r+0xb4e>
 800719c:	46b8      	mov	r8, r7
 800719e:	4633      	mov	r3, r6
 80071a0:	461e      	mov	r6, r3
 80071a2:	f813 2d01 	ldrb.w	r2, [r3, #-1]!
 80071a6:	2a39      	cmp	r2, #57	@ 0x39
 80071a8:	d106      	bne.n	80071b8 <_dtoa_r+0x6d8>
 80071aa:	459a      	cmp	sl, r3
 80071ac:	d1f8      	bne.n	80071a0 <_dtoa_r+0x6c0>
 80071ae:	2230      	movs	r2, #48	@ 0x30
 80071b0:	f108 0801 	add.w	r8, r8, #1
 80071b4:	f88a 2000 	strb.w	r2, [sl]
 80071b8:	781a      	ldrb	r2, [r3, #0]
 80071ba:	3201      	adds	r2, #1
 80071bc:	701a      	strb	r2, [r3, #0]
 80071be:	e7a0      	b.n	8007102 <_dtoa_r+0x622>
 80071c0:	4b6f      	ldr	r3, [pc, #444]	@ (8007380 <_dtoa_r+0x8a0>)
 80071c2:	2200      	movs	r2, #0
 80071c4:	f7f9 fa48 	bl	8000658 <__aeabi_dmul>
 80071c8:	2200      	movs	r2, #0
 80071ca:	2300      	movs	r3, #0
 80071cc:	4604      	mov	r4, r0
 80071ce:	460d      	mov	r5, r1
 80071d0:	f7f9 fcaa 	bl	8000b28 <__aeabi_dcmpeq>
 80071d4:	2800      	cmp	r0, #0
 80071d6:	d09f      	beq.n	8007118 <_dtoa_r+0x638>
 80071d8:	e7d1      	b.n	800717e <_dtoa_r+0x69e>
 80071da:	9a09      	ldr	r2, [sp, #36]	@ 0x24
 80071dc:	2a00      	cmp	r2, #0
 80071de:	f000 80ea 	beq.w	80073b6 <_dtoa_r+0x8d6>
 80071e2:	9a07      	ldr	r2, [sp, #28]
 80071e4:	2a01      	cmp	r2, #1
 80071e6:	f300 80cd 	bgt.w	8007384 <_dtoa_r+0x8a4>
 80071ea:	9a12      	ldr	r2, [sp, #72]	@ 0x48
 80071ec:	2a00      	cmp	r2, #0
 80071ee:	f000 80c1 	beq.w	8007374 <_dtoa_r+0x894>
 80071f2:	f203 4333 	addw	r3, r3, #1075	@ 0x433
 80071f6:	9c08      	ldr	r4, [sp, #32]
 80071f8:	9e00      	ldr	r6, [sp, #0]
 80071fa:	9a00      	ldr	r2, [sp, #0]
 80071fc:	441a      	add	r2, r3
 80071fe:	9200      	str	r2, [sp, #0]
 8007200:	9a06      	ldr	r2, [sp, #24]
 8007202:	2101      	movs	r1, #1
 8007204:	441a      	add	r2, r3
 8007206:	4648      	mov	r0, r9
 8007208:	9206      	str	r2, [sp, #24]
 800720a:	f000 fc2d 	bl	8007a68 <__i2b>
 800720e:	4605      	mov	r5, r0
 8007210:	b166      	cbz	r6, 800722c <_dtoa_r+0x74c>
 8007212:	9b06      	ldr	r3, [sp, #24]
 8007214:	2b00      	cmp	r3, #0
 8007216:	dd09      	ble.n	800722c <_dtoa_r+0x74c>
 8007218:	42b3      	cmp	r3, r6
 800721a:	9a00      	ldr	r2, [sp, #0]
 800721c:	bfa8      	it	ge
 800721e:	4633      	movge	r3, r6
 8007220:	1ad2      	subs	r2, r2, r3
 8007222:	9200      	str	r2, [sp, #0]
 8007224:	9a06      	ldr	r2, [sp, #24]
 8007226:	1af6      	subs	r6, r6, r3
 8007228:	1ad3      	subs	r3, r2, r3
 800722a:	9306      	str	r3, [sp, #24]
 800722c:	9b08      	ldr	r3, [sp, #32]
 800722e:	b30b      	cbz	r3, 8007274 <_dtoa_r+0x794>
 8007230:	9b09      	ldr	r3, [sp, #36]	@ 0x24
 8007232:	2b00      	cmp	r3, #0
 8007234:	f000 80c6 	beq.w	80073c4 <_dtoa_r+0x8e4>
 8007238:	2c00      	cmp	r4, #0
 800723a:	f000 80c0 	beq.w	80073be <_dtoa_r+0x8de>
 800723e:	4629      	mov	r1, r5
 8007240:	4622      	mov	r2, r4
 8007242:	4648      	mov	r0, r9
 8007244:	f000 fcc8 	bl	8007bd8 <__pow5mult>
 8007248:	9a02      	ldr	r2, [sp, #8]
 800724a:	4601      	mov	r1, r0
 800724c:	4605      	mov	r5, r0
 800724e:	4648      	mov	r0, r9
 8007250:	f000 fc20 	bl	8007a94 <__multiply>
 8007254:	9902      	ldr	r1, [sp, #8]
 8007256:	4680      	mov	r8, r0
 8007258:	4648      	mov	r0, r9
 800725a:	f000 fb51 	bl	8007900 <_Bfree>
 800725e:	9b08      	ldr	r3, [sp, #32]
 8007260:	1b1b      	subs	r3, r3, r4
 8007262:	9308      	str	r3, [sp, #32]
 8007264:	f000 80b1 	beq.w	80073ca <_dtoa_r+0x8ea>
 8007268:	9a08      	ldr	r2, [sp, #32]
 800726a:	4641      	mov	r1, r8
 800726c:	4648      	mov	r0, r9
 800726e:	f000 fcb3 	bl	8007bd8 <__pow5mult>
 8007272:	9002      	str	r0, [sp, #8]
 8007274:	2101      	movs	r1, #1
 8007276:	4648      	mov	r0, r9
 8007278:	f000 fbf6 	bl	8007a68 <__i2b>
 800727c:	9b0d      	ldr	r3, [sp, #52]	@ 0x34
 800727e:	4604      	mov	r4, r0
 8007280:	2b00      	cmp	r3, #0
 8007282:	f000 81d8 	beq.w	8007636 <_dtoa_r+0xb56>
 8007286:	461a      	mov	r2, r3
 8007288:	4601      	mov	r1, r0
 800728a:	4648      	mov	r0, r9
 800728c:	f000 fca4 	bl	8007bd8 <__pow5mult>
 8007290:	9b07      	ldr	r3, [sp, #28]
 8007292:	2b01      	cmp	r3, #1
 8007294:	4604      	mov	r4, r0
 8007296:	f300 809f 	bgt.w	80073d8 <_dtoa_r+0x8f8>
 800729a:	9b04      	ldr	r3, [sp, #16]
 800729c:	2b00      	cmp	r3, #0
 800729e:	f040 8097 	bne.w	80073d0 <_dtoa_r+0x8f0>
 80072a2:	9b05      	ldr	r3, [sp, #20]
 80072a4:	f3c3 0313 	ubfx	r3, r3, #0, #20
 80072a8:	2b00      	cmp	r3, #0
 80072aa:	f040 8093 	bne.w	80073d4 <_dtoa_r+0x8f4>
 80072ae:	9b05      	ldr	r3, [sp, #20]
 80072b0:	f023 4300 	bic.w	r3, r3, #2147483648	@ 0x80000000
 80072b4:	0d1b      	lsrs	r3, r3, #20
 80072b6:	051b      	lsls	r3, r3, #20
 80072b8:	b133      	cbz	r3, 80072c8 <_dtoa_r+0x7e8>
 80072ba:	9b00      	ldr	r3, [sp, #0]
 80072bc:	3301      	adds	r3, #1
 80072be:	9300      	str	r3, [sp, #0]
 80072c0:	9b06      	ldr	r3, [sp, #24]
 80072c2:	3301      	adds	r3, #1
 80072c4:	9306      	str	r3, [sp, #24]
 80072c6:	2301      	movs	r3, #1
 80072c8:	9308      	str	r3, [sp, #32]
 80072ca:	9b0d      	ldr	r3, [sp, #52]	@ 0x34
 80072cc:	2b00      	cmp	r3, #0
 80072ce:	f000 81b8 	beq.w	8007642 <_dtoa_r+0xb62>
 80072d2:	6923      	ldr	r3, [r4, #16]
 80072d4:	eb04 0383 	add.w	r3, r4, r3, lsl #2
 80072d8:	6918      	ldr	r0, [r3, #16]
 80072da:	f000 fb79 	bl	80079d0 <__hi0bits>
 80072de:	f1c0 0020 	rsb	r0, r0, #32
 80072e2:	9b06      	ldr	r3, [sp, #24]
 80072e4:	4418      	add	r0, r3
 80072e6:	f010 001f 	ands.w	r0, r0, #31
 80072ea:	f000 8082 	beq.w	80073f2 <_dtoa_r+0x912>
 80072ee:	f1c0 0320 	rsb	r3, r0, #32
 80072f2:	2b04      	cmp	r3, #4
 80072f4:	dd73      	ble.n	80073de <_dtoa_r+0x8fe>
 80072f6:	9b00      	ldr	r3, [sp, #0]
 80072f8:	f1c0 001c 	rsb	r0, r0, #28
 80072fc:	4403      	add	r3, r0
 80072fe:	9300      	str	r3, [sp, #0]
 8007300:	9b06      	ldr	r3, [sp, #24]
 8007302:	4403      	add	r3, r0
 8007304:	4406      	add	r6, r0
 8007306:	9306      	str	r3, [sp, #24]
 8007308:	9b00      	ldr	r3, [sp, #0]
 800730a:	2b00      	cmp	r3, #0
 800730c:	dd05      	ble.n	800731a <_dtoa_r+0x83a>
 800730e:	9902      	ldr	r1, [sp, #8]
 8007310:	461a      	mov	r2, r3
 8007312:	4648      	mov	r0, r9
 8007314:	f000 fcba 	bl	8007c8c <__lshift>
 8007318:	9002      	str	r0, [sp, #8]
 800731a:	9b06      	ldr	r3, [sp, #24]
 800731c:	2b00      	cmp	r3, #0
 800731e:	dd05      	ble.n	800732c <_dtoa_r+0x84c>
 8007320:	4621      	mov	r1, r4
 8007322:	461a      	mov	r2, r3
 8007324:	4648      	mov	r0, r9
 8007326:	f000 fcb1 	bl	8007c8c <__lshift>
 800732a:	4604      	mov	r4, r0
 800732c:	9b10      	ldr	r3, [sp, #64]	@ 0x40
 800732e:	2b00      	cmp	r3, #0
 8007330:	d061      	beq.n	80073f6 <_dtoa_r+0x916>
 8007332:	9802      	ldr	r0, [sp, #8]
 8007334:	4621      	mov	r1, r4
 8007336:	f000 fd15 	bl	8007d64 <__mcmp>
 800733a:	2800      	cmp	r0, #0
 800733c:	da5b      	bge.n	80073f6 <_dtoa_r+0x916>
 800733e:	2300      	movs	r3, #0
 8007340:	9902      	ldr	r1, [sp, #8]
 8007342:	220a      	movs	r2, #10
 8007344:	4648      	mov	r0, r9
 8007346:	f000 fafd 	bl	8007944 <__multadd>
 800734a:	9b09      	ldr	r3, [sp, #36]	@ 0x24
 800734c:	9002      	str	r0, [sp, #8]
 800734e:	f107 38ff 	add.w	r8, r7, #4294967295
 8007352:	2b00      	cmp	r3, #0
 8007354:	f000 8177 	beq.w	8007646 <_dtoa_r+0xb66>
 8007358:	4629      	mov	r1, r5
 800735a:	2300      	movs	r3, #0
 800735c:	220a      	movs	r2, #10
 800735e:	4648      	mov	r0, r9
 8007360:	f000 faf0 	bl	8007944 <__multadd>
 8007364:	f1bb 0f00 	cmp.w	fp, #0
 8007368:	4605      	mov	r5, r0
 800736a:	dc6f      	bgt.n	800744c <_dtoa_r+0x96c>
 800736c:	9b07      	ldr	r3, [sp, #28]
 800736e:	2b02      	cmp	r3, #2
 8007370:	dc49      	bgt.n	8007406 <_dtoa_r+0x926>
 8007372:	e06b      	b.n	800744c <_dtoa_r+0x96c>
 8007374:	9b14      	ldr	r3, [sp, #80]	@ 0x50
 8007376:	f1c3 0336 	rsb	r3, r3, #54	@ 0x36
 800737a:	e73c      	b.n	80071f6 <_dtoa_r+0x716>
 800737c:	3fe00000 	.word	0x3fe00000
 8007380:	40240000 	.word	0x40240000
 8007384:	9b03      	ldr	r3, [sp, #12]
 8007386:	1e5c      	subs	r4, r3, #1
 8007388:	9b08      	ldr	r3, [sp, #32]
 800738a:	42a3      	cmp	r3, r4
 800738c:	db09      	blt.n	80073a2 <_dtoa_r+0x8c2>
 800738e:	1b1c      	subs	r4, r3, r4
 8007390:	9b03      	ldr	r3, [sp, #12]
 8007392:	2b00      	cmp	r3, #0
 8007394:	f6bf af30 	bge.w	80071f8 <_dtoa_r+0x718>
 8007398:	9b00      	ldr	r3, [sp, #0]
 800739a:	9a03      	ldr	r2, [sp, #12]
 800739c:	1a9e      	subs	r6, r3, r2
 800739e:	2300      	movs	r3, #0
 80073a0:	e72b      	b.n	80071fa <_dtoa_r+0x71a>
 80073a2:	9b08      	ldr	r3, [sp, #32]
 80073a4:	9a0d      	ldr	r2, [sp, #52]	@ 0x34
 80073a6:	9408      	str	r4, [sp, #32]
 80073a8:	1ae3      	subs	r3, r4, r3
 80073aa:	441a      	add	r2, r3
 80073ac:	9e00      	ldr	r6, [sp, #0]
 80073ae:	9b03      	ldr	r3, [sp, #12]
 80073b0:	920d      	str	r2, [sp, #52]	@ 0x34
 80073b2:	2400      	movs	r4, #0
 80073b4:	e721      	b.n	80071fa <_dtoa_r+0x71a>
 80073b6:	9c08      	ldr	r4, [sp, #32]
 80073b8:	9e00      	ldr	r6, [sp, #0]
 80073ba:	9d09      	ldr	r5, [sp, #36]	@ 0x24
 80073bc:	e728      	b.n	8007210 <_dtoa_r+0x730>
 80073be:	f8dd 8008 	ldr.w	r8, [sp, #8]
 80073c2:	e751      	b.n	8007268 <_dtoa_r+0x788>
 80073c4:	9a08      	ldr	r2, [sp, #32]
 80073c6:	9902      	ldr	r1, [sp, #8]
 80073c8:	e750      	b.n	800726c <_dtoa_r+0x78c>
 80073ca:	f8cd 8008 	str.w	r8, [sp, #8]
 80073ce:	e751      	b.n	8007274 <_dtoa_r+0x794>
 80073d0:	2300      	movs	r3, #0
 80073d2:	e779      	b.n	80072c8 <_dtoa_r+0x7e8>
 80073d4:	9b04      	ldr	r3, [sp, #16]
 80073d6:	e777      	b.n	80072c8 <_dtoa_r+0x7e8>
 80073d8:	2300      	movs	r3, #0
 80073da:	9308      	str	r3, [sp, #32]
 80073dc:	e779      	b.n	80072d2 <_dtoa_r+0x7f2>
 80073de:	d093      	beq.n	8007308 <_dtoa_r+0x828>
 80073e0:	9a00      	ldr	r2, [sp, #0]
 80073e2:	331c      	adds	r3, #28
 80073e4:	441a      	add	r2, r3
 80073e6:	9200      	str	r2, [sp, #0]
 80073e8:	9a06      	ldr	r2, [sp, #24]
 80073ea:	441a      	add	r2, r3
 80073ec:	441e      	add	r6, r3
 80073ee:	9206      	str	r2, [sp, #24]
 80073f0:	e78a      	b.n	8007308 <_dtoa_r+0x828>
 80073f2:	4603      	mov	r3, r0
 80073f4:	e7f4      	b.n	80073e0 <_dtoa_r+0x900>
 80073f6:	9b03      	ldr	r3, [sp, #12]
 80073f8:	2b00      	cmp	r3, #0
 80073fa:	46b8      	mov	r8, r7
 80073fc:	dc20      	bgt.n	8007440 <_dtoa_r+0x960>
 80073fe:	469b      	mov	fp, r3
 8007400:	9b07      	ldr	r3, [sp, #28]
 8007402:	2b02      	cmp	r3, #2
 8007404:	dd1e      	ble.n	8007444 <_dtoa_r+0x964>
 8007406:	f1bb 0f00 	cmp.w	fp, #0
 800740a:	f47f adb1 	bne.w	8006f70 <_dtoa_r+0x490>
 800740e:	4621      	mov	r1, r4
 8007410:	465b      	mov	r3, fp
 8007412:	2205      	movs	r2, #5
 8007414:	4648      	mov	r0, r9
 8007416:	f000 fa95 	bl	8007944 <__multadd>
 800741a:	4601      	mov	r1, r0
 800741c:	4604      	mov	r4, r0
 800741e:	9802      	ldr	r0, [sp, #8]
 8007420:	f000 fca0 	bl	8007d64 <__mcmp>
 8007424:	2800      	cmp	r0, #0
 8007426:	f77f ada3 	ble.w	8006f70 <_dtoa_r+0x490>
 800742a:	4656      	mov	r6, sl
 800742c:	2331      	movs	r3, #49	@ 0x31
 800742e:	f806 3b01 	strb.w	r3, [r6], #1
 8007432:	f108 0801 	add.w	r8, r8, #1
 8007436:	e59f      	b.n	8006f78 <_dtoa_r+0x498>
 8007438:	9c03      	ldr	r4, [sp, #12]
 800743a:	46b8      	mov	r8, r7
 800743c:	4625      	mov	r5, r4
 800743e:	e7f4      	b.n	800742a <_dtoa_r+0x94a>
 8007440:	f8dd b00c 	ldr.w	fp, [sp, #12]
 8007444:	9b09      	ldr	r3, [sp, #36]	@ 0x24
 8007446:	2b00      	cmp	r3, #0
 8007448:	f000 8101 	beq.w	800764e <_dtoa_r+0xb6e>
 800744c:	2e00      	cmp	r6, #0
 800744e:	dd05      	ble.n	800745c <_dtoa_r+0x97c>
 8007450:	4629      	mov	r1, r5
 8007452:	4632      	mov	r2, r6
 8007454:	4648      	mov	r0, r9
 8007456:	f000 fc19 	bl	8007c8c <__lshift>
 800745a:	4605      	mov	r5, r0
 800745c:	9b08      	ldr	r3, [sp, #32]
 800745e:	2b00      	cmp	r3, #0
 8007460:	d05c      	beq.n	800751c <_dtoa_r+0xa3c>
 8007462:	6869      	ldr	r1, [r5, #4]
 8007464:	4648      	mov	r0, r9
 8007466:	f000 fa0b 	bl	8007880 <_Balloc>
 800746a:	4606      	mov	r6, r0
 800746c:	b928      	cbnz	r0, 800747a <_dtoa_r+0x99a>
 800746e:	4b82      	ldr	r3, [pc, #520]	@ (8007678 <_dtoa_r+0xb98>)
 8007470:	4602      	mov	r2, r0
 8007472:	f240 21ef 	movw	r1, #751	@ 0x2ef
 8007476:	f7ff bb4a 	b.w	8006b0e <_dtoa_r+0x2e>
 800747a:	692a      	ldr	r2, [r5, #16]
 800747c:	3202      	adds	r2, #2
 800747e:	0092      	lsls	r2, r2, #2
 8007480:	f105 010c 	add.w	r1, r5, #12
 8007484:	300c      	adds	r0, #12
 8007486:	f7ff fa74 	bl	8006972 <memcpy>
 800748a:	2201      	movs	r2, #1
 800748c:	4631      	mov	r1, r6
 800748e:	4648      	mov	r0, r9
 8007490:	f000 fbfc 	bl	8007c8c <__lshift>
 8007494:	f10a 0301 	add.w	r3, sl, #1
 8007498:	9300      	str	r3, [sp, #0]
 800749a:	eb0a 030b 	add.w	r3, sl, fp
 800749e:	9308      	str	r3, [sp, #32]
 80074a0:	9b04      	ldr	r3, [sp, #16]
 80074a2:	f003 0301 	and.w	r3, r3, #1
 80074a6:	462f      	mov	r7, r5
 80074a8:	9306      	str	r3, [sp, #24]
 80074aa:	4605      	mov	r5, r0
 80074ac:	9b00      	ldr	r3, [sp, #0]
 80074ae:	9802      	ldr	r0, [sp, #8]
 80074b0:	4621      	mov	r1, r4
 80074b2:	f103 3bff 	add.w	fp, r3, #4294967295
 80074b6:	f7ff fa89 	bl	80069cc <quorem>
 80074ba:	4603      	mov	r3, r0
 80074bc:	3330      	adds	r3, #48	@ 0x30
 80074be:	9003      	str	r0, [sp, #12]
 80074c0:	4639      	mov	r1, r7
 80074c2:	9802      	ldr	r0, [sp, #8]
 80074c4:	9309      	str	r3, [sp, #36]	@ 0x24
 80074c6:	f000 fc4d 	bl	8007d64 <__mcmp>
 80074ca:	462a      	mov	r2, r5
 80074cc:	9004      	str	r0, [sp, #16]
 80074ce:	4621      	mov	r1, r4
 80074d0:	4648      	mov	r0, r9
 80074d2:	f000 fc63 	bl	8007d9c <__mdiff>
 80074d6:	68c2      	ldr	r2, [r0, #12]
 80074d8:	9b09      	ldr	r3, [sp, #36]	@ 0x24
 80074da:	4606      	mov	r6, r0
 80074dc:	bb02      	cbnz	r2, 8007520 <_dtoa_r+0xa40>
 80074de:	4601      	mov	r1, r0
 80074e0:	9802      	ldr	r0, [sp, #8]
 80074e2:	f000 fc3f 	bl	8007d64 <__mcmp>
 80074e6:	9b09      	ldr	r3, [sp, #36]	@ 0x24
 80074e8:	4602      	mov	r2, r0
 80074ea:	4631      	mov	r1, r6
 80074ec:	4648      	mov	r0, r9
 80074ee:	920c      	str	r2, [sp, #48]	@ 0x30
 80074f0:	9309      	str	r3, [sp, #36]	@ 0x24
 80074f2:	f000 fa05 	bl	8007900 <_Bfree>
 80074f6:	9b07      	ldr	r3, [sp, #28]
 80074f8:	9a0c      	ldr	r2, [sp, #48]	@ 0x30
 80074fa:	9e00      	ldr	r6, [sp, #0]
 80074fc:	ea42 0103 	orr.w	r1, r2, r3
 8007500:	9b06      	ldr	r3, [sp, #24]
 8007502:	4319      	orrs	r1, r3
 8007504:	9b09      	ldr	r3, [sp, #36]	@ 0x24
 8007506:	d10d      	bne.n	8007524 <_dtoa_r+0xa44>
 8007508:	2b39      	cmp	r3, #57	@ 0x39
 800750a:	d027      	beq.n	800755c <_dtoa_r+0xa7c>
 800750c:	9a04      	ldr	r2, [sp, #16]
 800750e:	2a00      	cmp	r2, #0
 8007510:	dd01      	ble.n	8007516 <_dtoa_r+0xa36>
 8007512:	9b03      	ldr	r3, [sp, #12]
 8007514:	3331      	adds	r3, #49	@ 0x31
 8007516:	f88b 3000 	strb.w	r3, [fp]
 800751a:	e52e      	b.n	8006f7a <_dtoa_r+0x49a>
 800751c:	4628      	mov	r0, r5
 800751e:	e7b9      	b.n	8007494 <_dtoa_r+0x9b4>
 8007520:	2201      	movs	r2, #1
 8007522:	e7e2      	b.n	80074ea <_dtoa_r+0xa0a>
 8007524:	9904      	ldr	r1, [sp, #16]
 8007526:	2900      	cmp	r1, #0
 8007528:	db04      	blt.n	8007534 <_dtoa_r+0xa54>
 800752a:	9807      	ldr	r0, [sp, #28]
 800752c:	4301      	orrs	r1, r0
 800752e:	9806      	ldr	r0, [sp, #24]
 8007530:	4301      	orrs	r1, r0
 8007532:	d120      	bne.n	8007576 <_dtoa_r+0xa96>
 8007534:	2a00      	cmp	r2, #0
 8007536:	ddee      	ble.n	8007516 <_dtoa_r+0xa36>
 8007538:	9902      	ldr	r1, [sp, #8]
 800753a:	9300      	str	r3, [sp, #0]
 800753c:	2201      	movs	r2, #1
 800753e:	4648      	mov	r0, r9
 8007540:	f000 fba4 	bl	8007c8c <__lshift>
 8007544:	4621      	mov	r1, r4
 8007546:	9002      	str	r0, [sp, #8]
 8007548:	f000 fc0c 	bl	8007d64 <__mcmp>
 800754c:	2800      	cmp	r0, #0
 800754e:	9b00      	ldr	r3, [sp, #0]
 8007550:	dc02      	bgt.n	8007558 <_dtoa_r+0xa78>
 8007552:	d1e0      	bne.n	8007516 <_dtoa_r+0xa36>
 8007554:	07da      	lsls	r2, r3, #31
 8007556:	d5de      	bpl.n	8007516 <_dtoa_r+0xa36>
 8007558:	2b39      	cmp	r3, #57	@ 0x39
 800755a:	d1da      	bne.n	8007512 <_dtoa_r+0xa32>
 800755c:	2339      	movs	r3, #57	@ 0x39
 800755e:	f88b 3000 	strb.w	r3, [fp]
 8007562:	4633      	mov	r3, r6
 8007564:	461e      	mov	r6, r3
 8007566:	3b01      	subs	r3, #1
 8007568:	f816 2c01 	ldrb.w	r2, [r6, #-1]
 800756c:	2a39      	cmp	r2, #57	@ 0x39
 800756e:	d04e      	beq.n	800760e <_dtoa_r+0xb2e>
 8007570:	3201      	adds	r2, #1
 8007572:	701a      	strb	r2, [r3, #0]
 8007574:	e501      	b.n	8006f7a <_dtoa_r+0x49a>
 8007576:	2a00      	cmp	r2, #0
 8007578:	dd03      	ble.n	8007582 <_dtoa_r+0xaa2>
 800757a:	2b39      	cmp	r3, #57	@ 0x39
 800757c:	d0ee      	beq.n	800755c <_dtoa_r+0xa7c>
 800757e:	3301      	adds	r3, #1
 8007580:	e7c9      	b.n	8007516 <_dtoa_r+0xa36>
 8007582:	9a00      	ldr	r2, [sp, #0]
 8007584:	9908      	ldr	r1, [sp, #32]
 8007586:	f802 3c01 	strb.w	r3, [r2, #-1]
 800758a:	428a      	cmp	r2, r1
 800758c:	d028      	beq.n	80075e0 <_dtoa_r+0xb00>
 800758e:	9902      	ldr	r1, [sp, #8]
 8007590:	2300      	movs	r3, #0
 8007592:	220a      	movs	r2, #10
 8007594:	4648      	mov	r0, r9
 8007596:	f000 f9d5 	bl	8007944 <__multadd>
 800759a:	42af      	cmp	r7, r5
 800759c:	9002      	str	r0, [sp, #8]
 800759e:	f04f 0300 	mov.w	r3, #0
 80075a2:	f04f 020a 	mov.w	r2, #10
 80075a6:	4639      	mov	r1, r7
 80075a8:	4648      	mov	r0, r9
 80075aa:	d107      	bne.n	80075bc <_dtoa_r+0xadc>
 80075ac:	f000 f9ca 	bl	8007944 <__multadd>
 80075b0:	4607      	mov	r7, r0
 80075b2:	4605      	mov	r5, r0
 80075b4:	9b00      	ldr	r3, [sp, #0]
 80075b6:	3301      	adds	r3, #1
 80075b8:	9300      	str	r3, [sp, #0]
 80075ba:	e777      	b.n	80074ac <_dtoa_r+0x9cc>
 80075bc:	f000 f9c2 	bl	8007944 <__multadd>
 80075c0:	4629      	mov	r1, r5
 80075c2:	4607      	mov	r7, r0
 80075c4:	2300      	movs	r3, #0
 80075c6:	220a      	movs	r2, #10
 80075c8:	4648      	mov	r0, r9
 80075ca:	f000 f9bb 	bl	8007944 <__multadd>
 80075ce:	4605      	mov	r5, r0
 80075d0:	e7f0      	b.n	80075b4 <_dtoa_r+0xad4>
 80075d2:	f1bb 0f00 	cmp.w	fp, #0
 80075d6:	bfcc      	ite	gt
 80075d8:	465e      	movgt	r6, fp
 80075da:	2601      	movle	r6, #1
 80075dc:	4456      	add	r6, sl
 80075de:	2700      	movs	r7, #0
 80075e0:	9902      	ldr	r1, [sp, #8]
 80075e2:	9300      	str	r3, [sp, #0]
 80075e4:	2201      	movs	r2, #1
 80075e6:	4648      	mov	r0, r9
 80075e8:	f000 fb50 	bl	8007c8c <__lshift>
 80075ec:	4621      	mov	r1, r4
 80075ee:	9002      	str	r0, [sp, #8]
 80075f0:	f000 fbb8 	bl	8007d64 <__mcmp>
 80075f4:	2800      	cmp	r0, #0
 80075f6:	dcb4      	bgt.n	8007562 <_dtoa_r+0xa82>
 80075f8:	d102      	bne.n	8007600 <_dtoa_r+0xb20>
 80075fa:	9b00      	ldr	r3, [sp, #0]
 80075fc:	07db      	lsls	r3, r3, #31
 80075fe:	d4b0      	bmi.n	8007562 <_dtoa_r+0xa82>
 8007600:	4633      	mov	r3, r6
 8007602:	461e      	mov	r6, r3
 8007604:	f813 2d01 	ldrb.w	r2, [r3, #-1]!
 8007608:	2a30      	cmp	r2, #48	@ 0x30
 800760a:	d0fa      	beq.n	8007602 <_dtoa_r+0xb22>
 800760c:	e4b5      	b.n	8006f7a <_dtoa_r+0x49a>
 800760e:	459a      	cmp	sl, r3
 8007610:	d1a8      	bne.n	8007564 <_dtoa_r+0xa84>
 8007612:	2331      	movs	r3, #49	@ 0x31
 8007614:	f108 0801 	add.w	r8, r8, #1
 8007618:	f88a 3000 	strb.w	r3, [sl]
 800761c:	e4ad      	b.n	8006f7a <_dtoa_r+0x49a>
 800761e:	9b21      	ldr	r3, [sp, #132]	@ 0x84
 8007620:	f8df a058 	ldr.w	sl, [pc, #88]	@ 800767c <_dtoa_r+0xb9c>
 8007624:	b11b      	cbz	r3, 800762e <_dtoa_r+0xb4e>
 8007626:	f10a 0308 	add.w	r3, sl, #8
 800762a:	9a21      	ldr	r2, [sp, #132]	@ 0x84
 800762c:	6013      	str	r3, [r2, #0]
 800762e:	4650      	mov	r0, sl
 8007630:	b017      	add	sp, #92	@ 0x5c
 8007632:	e8bd 8ff0 	ldmia.w	sp!, {r4, r5, r6, r7, r8, r9, sl, fp, pc}
 8007636:	9b07      	ldr	r3, [sp, #28]
 8007638:	2b01      	cmp	r3, #1
 800763a:	f77f ae2e 	ble.w	800729a <_dtoa_r+0x7ba>
 800763e:	9b0d      	ldr	r3, [sp, #52]	@ 0x34
 8007640:	9308      	str	r3, [sp, #32]
 8007642:	2001      	movs	r0, #1
 8007644:	e64d      	b.n	80072e2 <_dtoa_r+0x802>
 8007646:	f1bb 0f00 	cmp.w	fp, #0
 800764a:	f77f aed9 	ble.w	8007400 <_dtoa_r+0x920>
 800764e:	4656      	mov	r6, sl
 8007650:	9802      	ldr	r0, [sp, #8]
 8007652:	4621      	mov	r1, r4
 8007654:	f7ff f9ba 	bl	80069cc <quorem>
 8007658:	f100 0330 	add.w	r3, r0, #48	@ 0x30
 800765c:	f806 3b01 	strb.w	r3, [r6], #1
 8007660:	eba6 020a 	sub.w	r2, r6, sl
 8007664:	4593      	cmp	fp, r2
 8007666:	ddb4      	ble.n	80075d2 <_dtoa_r+0xaf2>
 8007668:	9902      	ldr	r1, [sp, #8]
 800766a:	2300      	movs	r3, #0
 800766c:	220a      	movs	r2, #10
 800766e:	4648      	mov	r0, r9
 8007670:	f000 f968 	bl	8007944 <__multadd>
 8007674:	9002      	str	r0, [sp, #8]
 8007676:	e7eb      	b.n	8007650 <_dtoa_r+0xb70>
 8007678:	08009a4c 	.word	0x08009a4c
 800767c:	080099d0 	.word	0x080099d0

08007680 <_free_r>:
 8007680:	b538      	push	{r3, r4, r5, lr}
 8007682:	4605      	mov	r5, r0
 8007684:	2900      	cmp	r1, #0
 8007686:	d041      	beq.n	800770c <_free_r+0x8c>
 8007688:	f851 3c04 	ldr.w	r3, [r1, #-4]
 800768c:	1f0c      	subs	r4, r1, #4
 800768e:	2b00      	cmp	r3, #0
 8007690:	bfb8      	it	lt
 8007692:	18e4      	addlt	r4, r4, r3
 8007694:	f000 f8e8 	bl	8007868 <__malloc_lock>
 8007698:	4a1d      	ldr	r2, [pc, #116]	@ (8007710 <_free_r+0x90>)
 800769a:	6813      	ldr	r3, [r2, #0]
 800769c:	b933      	cbnz	r3, 80076ac <_free_r+0x2c>
 800769e:	6063      	str	r3, [r4, #4]
 80076a0:	6014      	str	r4, [r2, #0]
 80076a2:	4628      	mov	r0, r5
 80076a4:	e8bd 4038 	ldmia.w	sp!, {r3, r4, r5, lr}
 80076a8:	f000 b8e4 	b.w	8007874 <__malloc_unlock>
 80076ac:	42a3      	cmp	r3, r4
 80076ae:	d908      	bls.n	80076c2 <_free_r+0x42>
 80076b0:	6820      	ldr	r0, [r4, #0]
 80076b2:	1821      	adds	r1, r4, r0
 80076b4:	428b      	cmp	r3, r1
 80076b6:	bf01      	itttt	eq
 80076b8:	6819      	ldreq	r1, [r3, #0]
 80076ba:	685b      	ldreq	r3, [r3, #4]
 80076bc:	1809      	addeq	r1, r1, r0
 80076be:	6021      	streq	r1, [r4, #0]
 80076c0:	e7ed      	b.n	800769e <_free_r+0x1e>
 80076c2:	461a      	mov	r2, r3
 80076c4:	685b      	ldr	r3, [r3, #4]
 80076c6:	b10b      	cbz	r3, 80076cc <_free_r+0x4c>
 80076c8:	42a3      	cmp	r3, r4
 80076ca:	d9fa      	bls.n	80076c2 <_free_r+0x42>
 80076cc:	6811      	ldr	r1, [r2, #0]
 80076ce:	1850      	adds	r0, r2, r1
 80076d0:	42a0      	cmp	r0, r4
 80076d2:	d10b      	bne.n	80076ec <_free_r+0x6c>
 80076d4:	6820      	ldr	r0, [r4, #0]
 80076d6:	4401      	add	r1, r0
 80076d8:	1850      	adds	r0, r2, r1
 80076da:	4283      	cmp	r3, r0
 80076dc:	6011      	str	r1, [r2, #0]
 80076de:	d1e0      	bne.n	80076a2 <_free_r+0x22>
 80076e0:	6818      	ldr	r0, [r3, #0]
 80076e2:	685b      	ldr	r3, [r3, #4]
 80076e4:	6053      	str	r3, [r2, #4]
 80076e6:	4408      	add	r0, r1
 80076e8:	6010      	str	r0, [r2, #0]
 80076ea:	e7da      	b.n	80076a2 <_free_r+0x22>
 80076ec:	d902      	bls.n	80076f4 <_free_r+0x74>
 80076ee:	230c      	movs	r3, #12
 80076f0:	602b      	str	r3, [r5, #0]
 80076f2:	e7d6      	b.n	80076a2 <_free_r+0x22>
 80076f4:	6820      	ldr	r0, [r4, #0]
 80076f6:	1821      	adds	r1, r4, r0
 80076f8:	428b      	cmp	r3, r1
 80076fa:	bf04      	itt	eq
 80076fc:	6819      	ldreq	r1, [r3, #0]
 80076fe:	685b      	ldreq	r3, [r3, #4]
 8007700:	6063      	str	r3, [r4, #4]
 8007702:	bf04      	itt	eq
 8007704:	1809      	addeq	r1, r1, r0
 8007706:	6021      	streq	r1, [r4, #0]
 8007708:	6054      	str	r4, [r2, #4]
 800770a:	e7ca      	b.n	80076a2 <_free_r+0x22>
 800770c:	bd38      	pop	{r3, r4, r5, pc}
 800770e:	bf00      	nop
 8007710:	20000524 	.word	0x20000524

08007714 <malloc>:
 8007714:	4b02      	ldr	r3, [pc, #8]	@ (8007720 <malloc+0xc>)
 8007716:	4601      	mov	r1, r0
 8007718:	6818      	ldr	r0, [r3, #0]
 800771a:	f000 b825 	b.w	8007768 <_malloc_r>
 800771e:	bf00      	nop
 8007720:	2000008c 	.word	0x2000008c

08007724 <sbrk_aligned>:
 8007724:	b570      	push	{r4, r5, r6, lr}
 8007726:	4e0f      	ldr	r6, [pc, #60]	@ (8007764 <sbrk_aligned+0x40>)
 8007728:	460c      	mov	r4, r1
 800772a:	6831      	ldr	r1, [r6, #0]
 800772c:	4605      	mov	r5, r0
 800772e:	b911      	cbnz	r1, 8007736 <sbrk_aligned+0x12>
 8007730:	f001 f816 	bl	8008760 <_sbrk_r>
 8007734:	6030      	str	r0, [r6, #0]
 8007736:	4621      	mov	r1, r4
 8007738:	4628      	mov	r0, r5
 800773a:	f001 f811 	bl	8008760 <_sbrk_r>
 800773e:	1c43      	adds	r3, r0, #1
 8007740:	d103      	bne.n	800774a <sbrk_aligned+0x26>
 8007742:	f04f 34ff 	mov.w	r4, #4294967295
 8007746:	4620      	mov	r0, r4
 8007748:	bd70      	pop	{r4, r5, r6, pc}
 800774a:	1cc4      	adds	r4, r0, #3
 800774c:	f024 0403 	bic.w	r4, r4, #3
 8007750:	42a0      	cmp	r0, r4
 8007752:	d0f8      	beq.n	8007746 <sbrk_aligned+0x22>
 8007754:	1a21      	subs	r1, r4, r0
 8007756:	4628      	mov	r0, r5
 8007758:	f001 f802 	bl	8008760 <_sbrk_r>
 800775c:	3001      	adds	r0, #1
 800775e:	d1f2      	bne.n	8007746 <sbrk_aligned+0x22>
 8007760:	e7ef      	b.n	8007742 <sbrk_aligned+0x1e>
 8007762:	bf00      	nop
 8007764:	20000520 	.word	0x20000520

08007768 <_malloc_r>:
 8007768:	e92d 43f8 	stmdb	sp!, {r3, r4, r5, r6, r7, r8, r9, lr}
 800776c:	1ccd      	adds	r5, r1, #3
 800776e:	f025 0503 	bic.w	r5, r5, #3
 8007772:	3508      	adds	r5, #8
 8007774:	2d0c      	cmp	r5, #12
 8007776:	bf38      	it	cc
 8007778:	250c      	movcc	r5, #12
 800777a:	2d00      	cmp	r5, #0
 800777c:	4606      	mov	r6, r0
 800777e:	db01      	blt.n	8007784 <_malloc_r+0x1c>
 8007780:	42a9      	cmp	r1, r5
 8007782:	d904      	bls.n	800778e <_malloc_r+0x26>
 8007784:	230c      	movs	r3, #12
 8007786:	6033      	str	r3, [r6, #0]
 8007788:	2000      	movs	r0, #0
 800778a:	e8bd 83f8 	ldmia.w	sp!, {r3, r4, r5, r6, r7, r8, r9, pc}
 800778e:	f8df 80d4 	ldr.w	r8, [pc, #212]	@ 8007864 <_malloc_r+0xfc>
 8007792:	f000 f869 	bl	8007868 <__malloc_lock>
 8007796:	f8d8 3000 	ldr.w	r3, [r8]
 800779a:	461c      	mov	r4, r3
 800779c:	bb44      	cbnz	r4, 80077f0 <_malloc_r+0x88>
 800779e:	4629      	mov	r1, r5
 80077a0:	4630      	mov	r0, r6
 80077a2:	f7ff ffbf 	bl	8007724 <sbrk_aligned>
 80077a6:	1c43      	adds	r3, r0, #1
 80077a8:	4604      	mov	r4, r0
 80077aa:	d158      	bne.n	800785e <_malloc_r+0xf6>
 80077ac:	f8d8 4000 	ldr.w	r4, [r8]
 80077b0:	4627      	mov	r7, r4
 80077b2:	2f00      	cmp	r7, #0
 80077b4:	d143      	bne.n	800783e <_malloc_r+0xd6>
 80077b6:	2c00      	cmp	r4, #0
 80077b8:	d04b      	beq.n	8007852 <_malloc_r+0xea>
 80077ba:	6823      	ldr	r3, [r4, #0]
 80077bc:	4639      	mov	r1, r7
 80077be:	4630      	mov	r0, r6
 80077c0:	eb04 0903 	add.w	r9, r4, r3
 80077c4:	f000 ffcc 	bl	8008760 <_sbrk_r>
 80077c8:	4581      	cmp	r9, r0
 80077ca:	d142      	bne.n	8007852 <_malloc_r+0xea>
 80077cc:	6821      	ldr	r1, [r4, #0]
 80077ce:	1a6d      	subs	r5, r5, r1
 80077d0:	4629      	mov	r1, r5
 80077d2:	4630      	mov	r0, r6
 80077d4:	f7ff ffa6 	bl	8007724 <sbrk_aligned>
 80077d8:	3001      	adds	r0, #1
 80077da:	d03a      	beq.n	8007852 <_malloc_r+0xea>
 80077dc:	6823      	ldr	r3, [r4, #0]
 80077de:	442b      	add	r3, r5
 80077e0:	6023      	str	r3, [r4, #0]
 80077e2:	f8d8 3000 	ldr.w	r3, [r8]
 80077e6:	685a      	ldr	r2, [r3, #4]
 80077e8:	bb62      	cbnz	r2, 8007844 <_malloc_r+0xdc>
 80077ea:	f8c8 7000 	str.w	r7, [r8]
 80077ee:	e00f      	b.n	8007810 <_malloc_r+0xa8>
 80077f0:	6822      	ldr	r2, [r4, #0]
 80077f2:	1b52      	subs	r2, r2, r5
 80077f4:	d420      	bmi.n	8007838 <_malloc_r+0xd0>
 80077f6:	2a0b      	cmp	r2, #11
 80077f8:	d917      	bls.n	800782a <_malloc_r+0xc2>
 80077fa:	1961      	adds	r1, r4, r5
 80077fc:	42a3      	cmp	r3, r4
 80077fe:	6025      	str	r5, [r4, #0]
 8007800:	bf18      	it	ne
 8007802:	6059      	strne	r1, [r3, #4]
 8007804:	6863      	ldr	r3, [r4, #4]
 8007806:	bf08      	it	eq
 8007808:	f8c8 1000 	streq.w	r1, [r8]
 800780c:	5162      	str	r2, [r4, r5]
 800780e:	604b      	str	r3, [r1, #4]
 8007810:	4630      	mov	r0, r6
 8007812:	f000 f82f 	bl	8007874 <__malloc_unlock>
 8007816:	f104 000b 	add.w	r0, r4, #11
 800781a:	1d23      	adds	r3, r4, #4
 800781c:	f020 0007 	bic.w	r0, r0, #7
 8007820:	1ac2      	subs	r2, r0, r3
 8007822:	bf1c      	itt	ne
 8007824:	1a1b      	subne	r3, r3, r0
 8007826:	50a3      	strne	r3, [r4, r2]
 8007828:	e7af      	b.n	800778a <_malloc_r+0x22>
 800782a:	6862      	ldr	r2, [r4, #4]
 800782c:	42a3      	cmp	r3, r4
 800782e:	bf0c      	ite	eq
 8007830:	f8c8 2000 	streq.w	r2, [r8]
 8007834:	605a      	strne	r2, [r3, #4]
 8007836:	e7eb      	b.n	8007810 <_malloc_r+0xa8>
 8007838:	4623      	mov	r3, r4
 800783a:	6864      	ldr	r4, [r4, #4]
 800783c:	e7ae      	b.n	800779c <_malloc_r+0x34>
 800783e:	463c      	mov	r4, r7
 8007840:	687f      	ldr	r7, [r7, #4]
 8007842:	e7b6      	b.n	80077b2 <_malloc_r+0x4a>
 8007844:	461a      	mov	r2, r3
 8007846:	685b      	ldr	r3, [r3, #4]
 8007848:	42a3      	cmp	r3, r4
 800784a:	d1fb      	bne.n	8007844 <_malloc_r+0xdc>
 800784c:	2300      	movs	r3, #0
 800784e:	6053      	str	r3, [r2, #4]
 8007850:	e7de      	b.n	8007810 <_malloc_r+0xa8>
 8007852:	230c      	movs	r3, #12
 8007854:	6033      	str	r3, [r6, #0]
 8007856:	4630      	mov	r0, r6
 8007858:	f000 f80c 	bl	8007874 <__malloc_unlock>
 800785c:	e794      	b.n	8007788 <_malloc_r+0x20>
 800785e:	6005      	str	r5, [r0, #0]
 8007860:	e7d6      	b.n	8007810 <_malloc_r+0xa8>
 8007862:	bf00      	nop
 8007864:	20000524 	.word	0x20000524

08007868 <__malloc_lock>:
 8007868:	4801      	ldr	r0, [pc, #4]	@ (8007870 <__malloc_lock+0x8>)
 800786a:	f7ff b880 	b.w	800696e <__retarget_lock_acquire_recursive>
 800786e:	bf00      	nop
 8007870:	2000051c 	.word	0x2000051c

08007874 <__malloc_unlock>:
 8007874:	4801      	ldr	r0, [pc, #4]	@ (800787c <__malloc_unlock+0x8>)
 8007876:	f7ff b87b 	b.w	8006970 <__retarget_lock_release_recursive>
 800787a:	bf00      	nop
 800787c:	2000051c 	.word	0x2000051c

08007880 <_Balloc>:
 8007880:	b570      	push	{r4, r5, r6, lr}
 8007882:	69c6      	ldr	r6, [r0, #28]
 8007884:	4604      	mov	r4, r0
 8007886:	460d      	mov	r5, r1
 8007888:	b976      	cbnz	r6, 80078a8 <_Balloc+0x28>
 800788a:	2010      	movs	r0, #16
 800788c:	f7ff ff42 	bl	8007714 <malloc>
 8007890:	4602      	mov	r2, r0
 8007892:	61e0      	str	r0, [r4, #28]
 8007894:	b920      	cbnz	r0, 80078a0 <_Balloc+0x20>
 8007896:	4b18      	ldr	r3, [pc, #96]	@ (80078f8 <_Balloc+0x78>)
 8007898:	4818      	ldr	r0, [pc, #96]	@ (80078fc <_Balloc+0x7c>)
 800789a:	216b      	movs	r1, #107	@ 0x6b
 800789c:	f7ff f878 	bl	8006990 <__assert_func>
 80078a0:	e9c0 6601 	strd	r6, r6, [r0, #4]
 80078a4:	6006      	str	r6, [r0, #0]
 80078a6:	60c6      	str	r6, [r0, #12]
 80078a8:	69e6      	ldr	r6, [r4, #28]
 80078aa:	68f3      	ldr	r3, [r6, #12]
 80078ac:	b183      	cbz	r3, 80078d0 <_Balloc+0x50>
 80078ae:	69e3      	ldr	r3, [r4, #28]
 80078b0:	68db      	ldr	r3, [r3, #12]
 80078b2:	f853 0025 	ldr.w	r0, [r3, r5, lsl #2]
 80078b6:	b9b8      	cbnz	r0, 80078e8 <_Balloc+0x68>
 80078b8:	2101      	movs	r1, #1
 80078ba:	fa01 f605 	lsl.w	r6, r1, r5
 80078be:	1d72      	adds	r2, r6, #5
 80078c0:	0092      	lsls	r2, r2, #2
 80078c2:	4620      	mov	r0, r4
 80078c4:	f000 ff63 	bl	800878e <_calloc_r>
 80078c8:	b160      	cbz	r0, 80078e4 <_Balloc+0x64>
 80078ca:	e9c0 5601 	strd	r5, r6, [r0, #4]
 80078ce:	e00e      	b.n	80078ee <_Balloc+0x6e>
 80078d0:	2221      	movs	r2, #33	@ 0x21
 80078d2:	2104      	movs	r1, #4
 80078d4:	4620      	mov	r0, r4
 80078d6:	f000 ff5a 	bl	800878e <_calloc_r>
 80078da:	69e3      	ldr	r3, [r4, #28]
 80078dc:	60f0      	str	r0, [r6, #12]
 80078de:	68db      	ldr	r3, [r3, #12]
 80078e0:	2b00      	cmp	r3, #0
 80078e2:	d1e4      	bne.n	80078ae <_Balloc+0x2e>
 80078e4:	2000      	movs	r0, #0
 80078e6:	bd70      	pop	{r4, r5, r6, pc}
 80078e8:	6802      	ldr	r2, [r0, #0]
 80078ea:	f843 2025 	str.w	r2, [r3, r5, lsl #2]
 80078ee:	2300      	movs	r3, #0
 80078f0:	e9c0 3303 	strd	r3, r3, [r0, #12]
 80078f4:	e7f7      	b.n	80078e6 <_Balloc+0x66>
 80078f6:	bf00      	nop
 80078f8:	080099dd 	.word	0x080099dd
 80078fc:	08009a5d 	.word	0x08009a5d

08007900 <_Bfree>:
 8007900:	b570      	push	{r4, r5, r6, lr}
 8007902:	69c6      	ldr	r6, [r0, #28]
 8007904:	4605      	mov	r5, r0
 8007906:	460c      	mov	r4, r1
 8007908:	b976      	cbnz	r6, 8007928 <_Bfree+0x28>
 800790a:	2010      	movs	r0, #16
 800790c:	f7ff ff02 	bl	8007714 <malloc>
 8007910:	4602      	mov	r2, r0
 8007912:	61e8      	str	r0, [r5, #28]
 8007914:	b920      	cbnz	r0, 8007920 <_Bfree+0x20>
 8007916:	4b09      	ldr	r3, [pc, #36]	@ (800793c <_Bfree+0x3c>)
 8007918:	4809      	ldr	r0, [pc, #36]	@ (8007940 <_Bfree+0x40>)
 800791a:	218f      	movs	r1, #143	@ 0x8f
 800791c:	f7ff f838 	bl	8006990 <__assert_func>
 8007920:	e9c0 6601 	strd	r6, r6, [r0, #4]
 8007924:	6006      	str	r6, [r0, #0]
 8007926:	60c6      	str	r6, [r0, #12]
 8007928:	b13c      	cbz	r4, 800793a <_Bfree+0x3a>
 800792a:	69eb      	ldr	r3, [r5, #28]
 800792c:	6862      	ldr	r2, [r4, #4]
 800792e:	68db      	ldr	r3, [r3, #12]
 8007930:	f853 1022 	ldr.w	r1, [r3, r2, lsl #2]
 8007934:	6021      	str	r1, [r4, #0]
 8007936:	f843 4022 	str.w	r4, [r3, r2, lsl #2]
 800793a:	bd70      	pop	{r4, r5, r6, pc}
 800793c:	080099dd 	.word	0x080099dd
 8007940:	08009a5d 	.word	0x08009a5d

08007944 <__multadd>:
 8007944:	e92d 41f0 	stmdb	sp!, {r4, r5, r6, r7, r8, lr}
 8007948:	690d      	ldr	r5, [r1, #16]
 800794a:	4607      	mov	r7, r0
 800794c:	460c      	mov	r4, r1
 800794e:	461e      	mov	r6, r3
 8007950:	f101 0c14 	add.w	ip, r1, #20
 8007954:	2000      	movs	r0, #0
 8007956:	f8dc 3000 	ldr.w	r3, [ip]
 800795a:	b299      	uxth	r1, r3
 800795c:	fb02 6101 	mla	r1, r2, r1, r6
 8007960:	0c1e      	lsrs	r6, r3, #16
 8007962:	0c0b      	lsrs	r3, r1, #16
 8007964:	fb02 3306 	mla	r3, r2, r6, r3
 8007968:	b289      	uxth	r1, r1
 800796a:	3001      	adds	r0, #1
 800796c:	eb01 4103 	add.w	r1, r1, r3, lsl #16
 8007970:	4285      	cmp	r5, r0
 8007972:	f84c 1b04 	str.w	r1, [ip], #4
 8007976:	ea4f 4613 	mov.w	r6, r3, lsr #16
 800797a:	dcec      	bgt.n	8007956 <__multadd+0x12>
 800797c:	b30e      	cbz	r6, 80079c2 <__multadd+0x7e>
 800797e:	68a3      	ldr	r3, [r4, #8]
 8007980:	42ab      	cmp	r3, r5
 8007982:	dc19      	bgt.n	80079b8 <__multadd+0x74>
 8007984:	6861      	ldr	r1, [r4, #4]
 8007986:	4638      	mov	r0, r7
 8007988:	3101      	adds	r1, #1
 800798a:	f7ff ff79 	bl	8007880 <_Balloc>
 800798e:	4680      	mov	r8, r0
 8007990:	b928      	cbnz	r0, 800799e <__multadd+0x5a>
 8007992:	4602      	mov	r2, r0
 8007994:	4b0c      	ldr	r3, [pc, #48]	@ (80079c8 <__multadd+0x84>)
 8007996:	480d      	ldr	r0, [pc, #52]	@ (80079cc <__multadd+0x88>)
 8007998:	21ba      	movs	r1, #186	@ 0xba
 800799a:	f7fe fff9 	bl	8006990 <__assert_func>
 800799e:	6922      	ldr	r2, [r4, #16]
 80079a0:	3202      	adds	r2, #2
 80079a2:	f104 010c 	add.w	r1, r4, #12
 80079a6:	0092      	lsls	r2, r2, #2
 80079a8:	300c      	adds	r0, #12
 80079aa:	f7fe ffe2 	bl	8006972 <memcpy>
 80079ae:	4621      	mov	r1, r4
 80079b0:	4638      	mov	r0, r7
 80079b2:	f7ff ffa5 	bl	8007900 <_Bfree>
 80079b6:	4644      	mov	r4, r8
 80079b8:	eb04 0385 	add.w	r3, r4, r5, lsl #2
 80079bc:	3501      	adds	r5, #1
 80079be:	615e      	str	r6, [r3, #20]
 80079c0:	6125      	str	r5, [r4, #16]
 80079c2:	4620      	mov	r0, r4
 80079c4:	e8bd 81f0 	ldmia.w	sp!, {r4, r5, r6, r7, r8, pc}
 80079c8:	08009a4c 	.word	0x08009a4c
 80079cc:	08009a5d 	.word	0x08009a5d

080079d0 <__hi0bits>:
 80079d0:	f5b0 3f80 	cmp.w	r0, #65536	@ 0x10000
 80079d4:	4603      	mov	r3, r0
 80079d6:	bf36      	itet	cc
 80079d8:	0403      	lslcc	r3, r0, #16
 80079da:	2000      	movcs	r0, #0
 80079dc:	2010      	movcc	r0, #16
 80079de:	f1b3 7f80 	cmp.w	r3, #16777216	@ 0x1000000
 80079e2:	bf3c      	itt	cc
 80079e4:	021b      	lslcc	r3, r3, #8
 80079e6:	3008      	addcc	r0, #8
 80079e8:	f1b3 5f80 	cmp.w	r3, #268435456	@ 0x10000000
 80079ec:	bf3c      	itt	cc
 80079ee:	011b      	lslcc	r3, r3, #4
 80079f0:	3004      	addcc	r0, #4
 80079f2:	f1b3 4f80 	cmp.w	r3, #1073741824	@ 0x40000000
 80079f6:	bf3c      	itt	cc
 80079f8:	009b      	lslcc	r3, r3, #2
 80079fa:	3002      	addcc	r0, #2
 80079fc:	2b00      	cmp	r3, #0
 80079fe:	db05      	blt.n	8007a0c <__hi0bits+0x3c>
 8007a00:	f013 4f80 	tst.w	r3, #1073741824	@ 0x40000000
 8007a04:	f100 0001 	add.w	r0, r0, #1
 8007a08:	bf08      	it	eq
 8007a0a:	2020      	moveq	r0, #32
 8007a0c:	4770      	bx	lr

08007a0e <__lo0bits>:
 8007a0e:	6803      	ldr	r3, [r0, #0]
 8007a10:	4602      	mov	r2, r0
 8007a12:	f013 0007 	ands.w	r0, r3, #7
 8007a16:	d00b      	beq.n	8007a30 <__lo0bits+0x22>
 8007a18:	07d9      	lsls	r1, r3, #31
 8007a1a:	d421      	bmi.n	8007a60 <__lo0bits+0x52>
 8007a1c:	0798      	lsls	r0, r3, #30
 8007a1e:	bf49      	itett	mi
 8007a20:	085b      	lsrmi	r3, r3, #1
 8007a22:	089b      	lsrpl	r3, r3, #2
 8007a24:	2001      	movmi	r0, #1
 8007a26:	6013      	strmi	r3, [r2, #0]
 8007a28:	bf5c      	itt	pl
 8007a2a:	6013      	strpl	r3, [r2, #0]
 8007a2c:	2002      	movpl	r0, #2
 8007a2e:	4770      	bx	lr
 8007a30:	b299      	uxth	r1, r3
 8007a32:	b909      	cbnz	r1, 8007a38 <__lo0bits+0x2a>
 8007a34:	0c1b      	lsrs	r3, r3, #16
 8007a36:	2010      	movs	r0, #16
 8007a38:	b2d9      	uxtb	r1, r3
 8007a3a:	b909      	cbnz	r1, 8007a40 <__lo0bits+0x32>
 8007a3c:	3008      	adds	r0, #8
 8007a3e:	0a1b      	lsrs	r3, r3, #8
 8007a40:	0719      	lsls	r1, r3, #28
 8007a42:	bf04      	itt	eq
 8007a44:	091b      	lsreq	r3, r3, #4
 8007a46:	3004      	addeq	r0, #4
 8007a48:	0799      	lsls	r1, r3, #30
 8007a4a:	bf04      	itt	eq
 8007a4c:	089b      	lsreq	r3, r3, #2
 8007a4e:	3002      	addeq	r0, #2
 8007a50:	07d9      	lsls	r1, r3, #31
 8007a52:	d403      	bmi.n	8007a5c <__lo0bits+0x4e>
 8007a54:	085b      	lsrs	r3, r3, #1
 8007a56:	f100 0001 	add.w	r0, r0, #1
 8007a5a:	d003      	beq.n	8007a64 <__lo0bits+0x56>
 8007a5c:	6013      	str	r3, [r2, #0]
 8007a5e:	4770      	bx	lr
 8007a60:	2000      	movs	r0, #0
 8007a62:	4770      	bx	lr
 8007a64:	2020      	movs	r0, #32
 8007a66:	4770      	bx	lr

08007a68 <__i2b>:
 8007a68:	b510      	push	{r4, lr}
 8007a6a:	460c      	mov	r4, r1
 8007a6c:	2101      	movs	r1, #1
 8007a6e:	f7ff ff07 	bl	8007880 <_Balloc>
 8007a72:	4602      	mov	r2, r0
 8007a74:	b928      	cbnz	r0, 8007a82 <__i2b+0x1a>
 8007a76:	4b05      	ldr	r3, [pc, #20]	@ (8007a8c <__i2b+0x24>)
 8007a78:	4805      	ldr	r0, [pc, #20]	@ (8007a90 <__i2b+0x28>)
 8007a7a:	f240 1145 	movw	r1, #325	@ 0x145
 8007a7e:	f7fe ff87 	bl	8006990 <__assert_func>
 8007a82:	2301      	movs	r3, #1
 8007a84:	6144      	str	r4, [r0, #20]
 8007a86:	6103      	str	r3, [r0, #16]
 8007a88:	bd10      	pop	{r4, pc}
 8007a8a:	bf00      	nop
 8007a8c:	08009a4c 	.word	0x08009a4c
 8007a90:	08009a5d 	.word	0x08009a5d

08007a94 <__multiply>:
 8007a94:	e92d 4ff0 	stmdb	sp!, {r4, r5, r6, r7, r8, r9, sl, fp, lr}
 8007a98:	4617      	mov	r7, r2
 8007a9a:	690a      	ldr	r2, [r1, #16]
 8007a9c:	693b      	ldr	r3, [r7, #16]
 8007a9e:	429a      	cmp	r2, r3
 8007aa0:	bfa8      	it	ge
 8007aa2:	463b      	movge	r3, r7
 8007aa4:	4689      	mov	r9, r1
 8007aa6:	bfa4      	itt	ge
 8007aa8:	460f      	movge	r7, r1
 8007aaa:	4699      	movge	r9, r3
 8007aac:	693d      	ldr	r5, [r7, #16]
 8007aae:	f8d9 a010 	ldr.w	sl, [r9, #16]
 8007ab2:	68bb      	ldr	r3, [r7, #8]
 8007ab4:	6879      	ldr	r1, [r7, #4]
 8007ab6:	eb05 060a 	add.w	r6, r5, sl
 8007aba:	42b3      	cmp	r3, r6
 8007abc:	b085      	sub	sp, #20
 8007abe:	bfb8      	it	lt
 8007ac0:	3101      	addlt	r1, #1
 8007ac2:	f7ff fedd 	bl	8007880 <_Balloc>
 8007ac6:	b930      	cbnz	r0, 8007ad6 <__multiply+0x42>
 8007ac8:	4602      	mov	r2, r0
 8007aca:	4b41      	ldr	r3, [pc, #260]	@ (8007bd0 <__multiply+0x13c>)
 8007acc:	4841      	ldr	r0, [pc, #260]	@ (8007bd4 <__multiply+0x140>)
 8007ace:	f44f 71b1 	mov.w	r1, #354	@ 0x162
 8007ad2:	f7fe ff5d 	bl	8006990 <__assert_func>
 8007ad6:	f100 0414 	add.w	r4, r0, #20
 8007ada:	eb04 0e86 	add.w	lr, r4, r6, lsl #2
 8007ade:	4623      	mov	r3, r4
 8007ae0:	2200      	movs	r2, #0
 8007ae2:	4573      	cmp	r3, lr
 8007ae4:	d320      	bcc.n	8007b28 <__multiply+0x94>
 8007ae6:	f107 0814 	add.w	r8, r7, #20
 8007aea:	f109 0114 	add.w	r1, r9, #20
 8007aee:	eb08 0585 	add.w	r5, r8, r5, lsl #2
 8007af2:	eb01 038a 	add.w	r3, r1, sl, lsl #2
 8007af6:	9302      	str	r3, [sp, #8]
 8007af8:	1beb      	subs	r3, r5, r7
 8007afa:	3b15      	subs	r3, #21
 8007afc:	f023 0303 	bic.w	r3, r3, #3
 8007b00:	3304      	adds	r3, #4
 8007b02:	3715      	adds	r7, #21
 8007b04:	42bd      	cmp	r5, r7
 8007b06:	bf38      	it	cc
 8007b08:	2304      	movcc	r3, #4
 8007b0a:	9301      	str	r3, [sp, #4]
 8007b0c:	9b02      	ldr	r3, [sp, #8]
 8007b0e:	9103      	str	r1, [sp, #12]
 8007b10:	428b      	cmp	r3, r1
 8007b12:	d80c      	bhi.n	8007b2e <__multiply+0x9a>
 8007b14:	2e00      	cmp	r6, #0
 8007b16:	dd03      	ble.n	8007b20 <__multiply+0x8c>
 8007b18:	f85e 3d04 	ldr.w	r3, [lr, #-4]!
 8007b1c:	2b00      	cmp	r3, #0
 8007b1e:	d055      	beq.n	8007bcc <__multiply+0x138>
 8007b20:	6106      	str	r6, [r0, #16]
 8007b22:	b005      	add	sp, #20
 8007b24:	e8bd 8ff0 	ldmia.w	sp!, {r4, r5, r6, r7, r8, r9, sl, fp, pc}
 8007b28:	f843 2b04 	str.w	r2, [r3], #4
 8007b2c:	e7d9      	b.n	8007ae2 <__multiply+0x4e>
 8007b2e:	f8b1 a000 	ldrh.w	sl, [r1]
 8007b32:	f1ba 0f00 	cmp.w	sl, #0
 8007b36:	d01f      	beq.n	8007b78 <__multiply+0xe4>
 8007b38:	46c4      	mov	ip, r8
 8007b3a:	46a1      	mov	r9, r4
 8007b3c:	2700      	movs	r7, #0
 8007b3e:	f85c 2b04 	ldr.w	r2, [ip], #4
 8007b42:	f8d9 3000 	ldr.w	r3, [r9]
 8007b46:	fa1f fb82 	uxth.w	fp, r2
 8007b4a:	b29b      	uxth	r3, r3
 8007b4c:	fb0a 330b 	mla	r3, sl, fp, r3
 8007b50:	443b      	add	r3, r7
 8007b52:	f8d9 7000 	ldr.w	r7, [r9]
 8007b56:	0c12      	lsrs	r2, r2, #16
 8007b58:	0c3f      	lsrs	r7, r7, #16
 8007b5a:	fb0a 7202 	mla	r2, sl, r2, r7
 8007b5e:	eb02 4213 	add.w	r2, r2, r3, lsr #16
 8007b62:	b29b      	uxth	r3, r3
 8007b64:	ea43 4302 	orr.w	r3, r3, r2, lsl #16
 8007b68:	4565      	cmp	r5, ip
 8007b6a:	f849 3b04 	str.w	r3, [r9], #4
 8007b6e:	ea4f 4712 	mov.w	r7, r2, lsr #16
 8007b72:	d8e4      	bhi.n	8007b3e <__multiply+0xaa>
 8007b74:	9b01      	ldr	r3, [sp, #4]
 8007b76:	50e7      	str	r7, [r4, r3]
 8007b78:	9b03      	ldr	r3, [sp, #12]
 8007b7a:	f8b3 9002 	ldrh.w	r9, [r3, #2]
 8007b7e:	3104      	adds	r1, #4
 8007b80:	f1b9 0f00 	cmp.w	r9, #0
 8007b84:	d020      	beq.n	8007bc8 <__multiply+0x134>
 8007b86:	6823      	ldr	r3, [r4, #0]
 8007b88:	4647      	mov	r7, r8
 8007b8a:	46a4      	mov	ip, r4
 8007b8c:	f04f 0a00 	mov.w	sl, #0
 8007b90:	f8b7 b000 	ldrh.w	fp, [r7]
 8007b94:	f8bc 2002 	ldrh.w	r2, [ip, #2]
 8007b98:	fb09 220b 	mla	r2, r9, fp, r2
 8007b9c:	4452      	add	r2, sl
 8007b9e:	b29b      	uxth	r3, r3
 8007ba0:	ea43 4302 	orr.w	r3, r3, r2, lsl #16
 8007ba4:	f84c 3b04 	str.w	r3, [ip], #4
 8007ba8:	f857 3b04 	ldr.w	r3, [r7], #4
 8007bac:	ea4f 4a13 	mov.w	sl, r3, lsr #16
 8007bb0:	f8bc 3000 	ldrh.w	r3, [ip]
 8007bb4:	fb09 330a 	mla	r3, r9, sl, r3
 8007bb8:	eb03 4312 	add.w	r3, r3, r2, lsr #16
 8007bbc:	42bd      	cmp	r5, r7
 8007bbe:	ea4f 4a13 	mov.w	sl, r3, lsr #16
 8007bc2:	d8e5      	bhi.n	8007b90 <__multiply+0xfc>
 8007bc4:	9a01      	ldr	r2, [sp, #4]
 8007bc6:	50a3      	str	r3, [r4, r2]
 8007bc8:	3404      	adds	r4, #4
 8007bca:	e79f      	b.n	8007b0c <__multiply+0x78>
 8007bcc:	3e01      	subs	r6, #1
 8007bce:	e7a1      	b.n	8007b14 <__multiply+0x80>
 8007bd0:	08009a4c 	.word	0x08009a4c
 8007bd4:	08009a5d 	.word	0x08009a5d

08007bd8 <__pow5mult>:
 8007bd8:	e92d 43f8 	stmdb	sp!, {r3, r4, r5, r6, r7, r8, r9, lr}
 8007bdc:	4615      	mov	r5, r2
 8007bde:	f012 0203 	ands.w	r2, r2, #3
 8007be2:	4607      	mov	r7, r0
 8007be4:	460e      	mov	r6, r1
 8007be6:	d007      	beq.n	8007bf8 <__pow5mult+0x20>
 8007be8:	4c25      	ldr	r4, [pc, #148]	@ (8007c80 <__pow5mult+0xa8>)
 8007bea:	3a01      	subs	r2, #1
 8007bec:	2300      	movs	r3, #0
 8007bee:	f854 2022 	ldr.w	r2, [r4, r2, lsl #2]
 8007bf2:	f7ff fea7 	bl	8007944 <__multadd>
 8007bf6:	4606      	mov	r6, r0
 8007bf8:	10ad      	asrs	r5, r5, #2
 8007bfa:	d03d      	beq.n	8007c78 <__pow5mult+0xa0>
 8007bfc:	69fc      	ldr	r4, [r7, #28]
 8007bfe:	b97c      	cbnz	r4, 8007c20 <__pow5mult+0x48>
 8007c00:	2010      	movs	r0, #16
 8007c02:	f7ff fd87 	bl	8007714 <malloc>
 8007c06:	4602      	mov	r2, r0
 8007c08:	61f8      	str	r0, [r7, #28]
 8007c0a:	b928      	cbnz	r0, 8007c18 <__pow5mult+0x40>
 8007c0c:	4b1d      	ldr	r3, [pc, #116]	@ (8007c84 <__pow5mult+0xac>)
 8007c0e:	481e      	ldr	r0, [pc, #120]	@ (8007c88 <__pow5mult+0xb0>)
 8007c10:	f240 11b3 	movw	r1, #435	@ 0x1b3
 8007c14:	f7fe febc 	bl	8006990 <__assert_func>
 8007c18:	e9c0 4401 	strd	r4, r4, [r0, #4]
 8007c1c:	6004      	str	r4, [r0, #0]
 8007c1e:	60c4      	str	r4, [r0, #12]
 8007c20:	f8d7 801c 	ldr.w	r8, [r7, #28]
 8007c24:	f8d8 4008 	ldr.w	r4, [r8, #8]
 8007c28:	b94c      	cbnz	r4, 8007c3e <__pow5mult+0x66>
 8007c2a:	f240 2171 	movw	r1, #625	@ 0x271
 8007c2e:	4638      	mov	r0, r7
 8007c30:	f7ff ff1a 	bl	8007a68 <__i2b>
 8007c34:	2300      	movs	r3, #0
 8007c36:	f8c8 0008 	str.w	r0, [r8, #8]
 8007c3a:	4604      	mov	r4, r0
 8007c3c:	6003      	str	r3, [r0, #0]
 8007c3e:	f04f 0900 	mov.w	r9, #0
 8007c42:	07eb      	lsls	r3, r5, #31
 8007c44:	d50a      	bpl.n	8007c5c <__pow5mult+0x84>
 8007c46:	4631      	mov	r1, r6
 8007c48:	4622      	mov	r2, r4
 8007c4a:	4638      	mov	r0, r7
 8007c4c:	f7ff ff22 	bl	8007a94 <__multiply>
 8007c50:	4631      	mov	r1, r6
 8007c52:	4680      	mov	r8, r0
 8007c54:	4638      	mov	r0, r7
 8007c56:	f7ff fe53 	bl	8007900 <_Bfree>
 8007c5a:	4646      	mov	r6, r8
 8007c5c:	106d      	asrs	r5, r5, #1
 8007c5e:	d00b      	beq.n	8007c78 <__pow5mult+0xa0>
 8007c60:	6820      	ldr	r0, [r4, #0]
 8007c62:	b938      	cbnz	r0, 8007c74 <__pow5mult+0x9c>
 8007c64:	4622      	mov	r2, r4
 8007c66:	4621      	mov	r1, r4
 8007c68:	4638      	mov	r0, r7
 8007c6a:	f7ff ff13 	bl	8007a94 <__multiply>
 8007c6e:	6020      	str	r0, [r4, #0]
 8007c70:	f8c0 9000 	str.w	r9, [r0]
 8007c74:	4604      	mov	r4, r0
 8007c76:	e7e4      	b.n	8007c42 <__pow5mult+0x6a>
 8007c78:	4630      	mov	r0, r6
 8007c7a:	e8bd 83f8 	ldmia.w	sp!, {r3, r4, r5, r6, r7, r8, r9, pc}
 8007c7e:	bf00      	nop
 8007c80:	08009ad4 	.word	0x08009ad4
 8007c84:	080099dd 	.word	0x080099dd
 8007c88:	08009a5d 	.word	0x08009a5d

08007c8c <__lshift>:
 8007c8c:	e92d 47f0 	stmdb	sp!, {r4, r5, r6, r7, r8, r9, sl, lr}
 8007c90:	460c      	mov	r4, r1
 8007c92:	6849      	ldr	r1, [r1, #4]
 8007c94:	6923      	ldr	r3, [r4, #16]
 8007c96:	eb03 1862 	add.w	r8, r3, r2, asr #5
 8007c9a:	68a3      	ldr	r3, [r4, #8]
 8007c9c:	4607      	mov	r7, r0
 8007c9e:	4691      	mov	r9, r2
 8007ca0:	ea4f 1a62 	mov.w	sl, r2, asr #5
 8007ca4:	f108 0601 	add.w	r6, r8, #1
 8007ca8:	42b3      	cmp	r3, r6
 8007caa:	db0b      	blt.n	8007cc4 <__lshift+0x38>
 8007cac:	4638      	mov	r0, r7
 8007cae:	f7ff fde7 	bl	8007880 <_Balloc>
 8007cb2:	4605      	mov	r5, r0
 8007cb4:	b948      	cbnz	r0, 8007cca <__lshift+0x3e>
 8007cb6:	4602      	mov	r2, r0
 8007cb8:	4b28      	ldr	r3, [pc, #160]	@ (8007d5c <__lshift+0xd0>)
 8007cba:	4829      	ldr	r0, [pc, #164]	@ (8007d60 <__lshift+0xd4>)
 8007cbc:	f44f 71ef 	mov.w	r1, #478	@ 0x1de
 8007cc0:	f7fe fe66 	bl	8006990 <__assert_func>
 8007cc4:	3101      	adds	r1, #1
 8007cc6:	005b      	lsls	r3, r3, #1
 8007cc8:	e7ee      	b.n	8007ca8 <__lshift+0x1c>
 8007cca:	2300      	movs	r3, #0
 8007ccc:	f100 0114 	add.w	r1, r0, #20
 8007cd0:	f100 0210 	add.w	r2, r0, #16
 8007cd4:	4618      	mov	r0, r3
 8007cd6:	4553      	cmp	r3, sl
 8007cd8:	db33      	blt.n	8007d42 <__lshift+0xb6>
 8007cda:	6920      	ldr	r0, [r4, #16]
 8007cdc:	ea2a 7aea 	bic.w	sl, sl, sl, asr #31
 8007ce0:	f104 0314 	add.w	r3, r4, #20
 8007ce4:	f019 091f 	ands.w	r9, r9, #31
 8007ce8:	eb01 018a 	add.w	r1, r1, sl, lsl #2
 8007cec:	eb03 0c80 	add.w	ip, r3, r0, lsl #2
 8007cf0:	d02b      	beq.n	8007d4a <__lshift+0xbe>
 8007cf2:	f1c9 0e20 	rsb	lr, r9, #32
 8007cf6:	468a      	mov	sl, r1
 8007cf8:	2200      	movs	r2, #0
 8007cfa:	6818      	ldr	r0, [r3, #0]
 8007cfc:	fa00 f009 	lsl.w	r0, r0, r9
 8007d00:	4310      	orrs	r0, r2
 8007d02:	f84a 0b04 	str.w	r0, [sl], #4
 8007d06:	f853 2b04 	ldr.w	r2, [r3], #4
 8007d0a:	459c      	cmp	ip, r3
 8007d0c:	fa22 f20e 	lsr.w	r2, r2, lr
 8007d10:	d8f3      	bhi.n	8007cfa <__lshift+0x6e>
 8007d12:	ebac 0304 	sub.w	r3, ip, r4
 8007d16:	3b15      	subs	r3, #21
 8007d18:	f023 0303 	bic.w	r3, r3, #3
 8007d1c:	3304      	adds	r3, #4
 8007d1e:	f104 0015 	add.w	r0, r4, #21
 8007d22:	4560      	cmp	r0, ip
 8007d24:	bf88      	it	hi
 8007d26:	2304      	movhi	r3, #4
 8007d28:	50ca      	str	r2, [r1, r3]
 8007d2a:	b10a      	cbz	r2, 8007d30 <__lshift+0xa4>
 8007d2c:	f108 0602 	add.w	r6, r8, #2
 8007d30:	3e01      	subs	r6, #1
 8007d32:	4638      	mov	r0, r7
 8007d34:	612e      	str	r6, [r5, #16]
 8007d36:	4621      	mov	r1, r4
 8007d38:	f7ff fde2 	bl	8007900 <_Bfree>
 8007d3c:	4628      	mov	r0, r5
 8007d3e:	e8bd 87f0 	ldmia.w	sp!, {r4, r5, r6, r7, r8, r9, sl, pc}
 8007d42:	f842 0f04 	str.w	r0, [r2, #4]!
 8007d46:	3301      	adds	r3, #1
 8007d48:	e7c5      	b.n	8007cd6 <__lshift+0x4a>
 8007d4a:	3904      	subs	r1, #4
 8007d4c:	f853 2b04 	ldr.w	r2, [r3], #4
 8007d50:	f841 2f04 	str.w	r2, [r1, #4]!
 8007d54:	459c      	cmp	ip, r3
 8007d56:	d8f9      	bhi.n	8007d4c <__lshift+0xc0>
 8007d58:	e7ea      	b.n	8007d30 <__lshift+0xa4>
 8007d5a:	bf00      	nop
 8007d5c:	08009a4c 	.word	0x08009a4c
 8007d60:	08009a5d 	.word	0x08009a5d

08007d64 <__mcmp>:
 8007d64:	690a      	ldr	r2, [r1, #16]
 8007d66:	4603      	mov	r3, r0
 8007d68:	6900      	ldr	r0, [r0, #16]
 8007d6a:	1a80      	subs	r0, r0, r2
 8007d6c:	b530      	push	{r4, r5, lr}
 8007d6e:	d10e      	bne.n	8007d8e <__mcmp+0x2a>
 8007d70:	3314      	adds	r3, #20
 8007d72:	3114      	adds	r1, #20
 8007d74:	eb03 0482 	add.w	r4, r3, r2, lsl #2
 8007d78:	eb01 0182 	add.w	r1, r1, r2, lsl #2
 8007d7c:	f854 5d04 	ldr.w	r5, [r4, #-4]!
 8007d80:	f851 2d04 	ldr.w	r2, [r1, #-4]!
 8007d84:	4295      	cmp	r5, r2
 8007d86:	d003      	beq.n	8007d90 <__mcmp+0x2c>
 8007d88:	d205      	bcs.n	8007d96 <__mcmp+0x32>
 8007d8a:	f04f 30ff 	mov.w	r0, #4294967295
 8007d8e:	bd30      	pop	{r4, r5, pc}
 8007d90:	42a3      	cmp	r3, r4
 8007d92:	d3f3      	bcc.n	8007d7c <__mcmp+0x18>
 8007d94:	e7fb      	b.n	8007d8e <__mcmp+0x2a>
 8007d96:	2001      	movs	r0, #1
 8007d98:	e7f9      	b.n	8007d8e <__mcmp+0x2a>
	...

08007d9c <__mdiff>:
 8007d9c:	e92d 4ff7 	stmdb	sp!, {r0, r1, r2, r4, r5, r6, r7, r8, r9, sl, fp, lr}
 8007da0:	4689      	mov	r9, r1
 8007da2:	4606      	mov	r6, r0
 8007da4:	4611      	mov	r1, r2
 8007da6:	4648      	mov	r0, r9
 8007da8:	4614      	mov	r4, r2
 8007daa:	f7ff ffdb 	bl	8007d64 <__mcmp>
 8007dae:	1e05      	subs	r5, r0, #0
 8007db0:	d112      	bne.n	8007dd8 <__mdiff+0x3c>
 8007db2:	4629      	mov	r1, r5
 8007db4:	4630      	mov	r0, r6
 8007db6:	f7ff fd63 	bl	8007880 <_Balloc>
 8007dba:	4602      	mov	r2, r0
 8007dbc:	b928      	cbnz	r0, 8007dca <__mdiff+0x2e>
 8007dbe:	4b3f      	ldr	r3, [pc, #252]	@ (8007ebc <__mdiff+0x120>)
 8007dc0:	f240 2137 	movw	r1, #567	@ 0x237
 8007dc4:	483e      	ldr	r0, [pc, #248]	@ (8007ec0 <__mdiff+0x124>)
 8007dc6:	f7fe fde3 	bl	8006990 <__assert_func>
 8007dca:	2301      	movs	r3, #1
 8007dcc:	e9c0 3504 	strd	r3, r5, [r0, #16]
 8007dd0:	4610      	mov	r0, r2
 8007dd2:	b003      	add	sp, #12
 8007dd4:	e8bd 8ff0 	ldmia.w	sp!, {r4, r5, r6, r7, r8, r9, sl, fp, pc}
 8007dd8:	bfbc      	itt	lt
 8007dda:	464b      	movlt	r3, r9
 8007ddc:	46a1      	movlt	r9, r4
 8007dde:	4630      	mov	r0, r6
 8007de0:	f8d9 1004 	ldr.w	r1, [r9, #4]
 8007de4:	bfba      	itte	lt
 8007de6:	461c      	movlt	r4, r3
 8007de8:	2501      	movlt	r5, #1
 8007dea:	2500      	movge	r5, #0
 8007dec:	f7ff fd48 	bl	8007880 <_Balloc>
 8007df0:	4602      	mov	r2, r0
 8007df2:	b918      	cbnz	r0, 8007dfc <__mdiff+0x60>
 8007df4:	4b31      	ldr	r3, [pc, #196]	@ (8007ebc <__mdiff+0x120>)
 8007df6:	f240 2145 	movw	r1, #581	@ 0x245
 8007dfa:	e7e3      	b.n	8007dc4 <__mdiff+0x28>
 8007dfc:	f8d9 7010 	ldr.w	r7, [r9, #16]
 8007e00:	6926      	ldr	r6, [r4, #16]
 8007e02:	60c5      	str	r5, [r0, #12]
 8007e04:	f109 0310 	add.w	r3, r9, #16
 8007e08:	f109 0514 	add.w	r5, r9, #20
 8007e0c:	f104 0e14 	add.w	lr, r4, #20
 8007e10:	f100 0b14 	add.w	fp, r0, #20
 8007e14:	eb05 0887 	add.w	r8, r5, r7, lsl #2
 8007e18:	eb0e 0686 	add.w	r6, lr, r6, lsl #2
 8007e1c:	9301      	str	r3, [sp, #4]
 8007e1e:	46d9      	mov	r9, fp
 8007e20:	f04f 0c00 	mov.w	ip, #0
 8007e24:	9b01      	ldr	r3, [sp, #4]
 8007e26:	f85e 0b04 	ldr.w	r0, [lr], #4
 8007e2a:	f853 af04 	ldr.w	sl, [r3, #4]!
 8007e2e:	9301      	str	r3, [sp, #4]
 8007e30:	fa1f f38a 	uxth.w	r3, sl
 8007e34:	4619      	mov	r1, r3
 8007e36:	b283      	uxth	r3, r0
 8007e38:	1acb      	subs	r3, r1, r3
 8007e3a:	0c00      	lsrs	r0, r0, #16
 8007e3c:	4463      	add	r3, ip
 8007e3e:	ebc0 401a 	rsb	r0, r0, sl, lsr #16
 8007e42:	eb00 4023 	add.w	r0, r0, r3, asr #16
 8007e46:	b29b      	uxth	r3, r3
 8007e48:	ea43 4300 	orr.w	r3, r3, r0, lsl #16
 8007e4c:	4576      	cmp	r6, lr
 8007e4e:	f849 3b04 	str.w	r3, [r9], #4
 8007e52:	ea4f 4c20 	mov.w	ip, r0, asr #16
 8007e56:	d8e5      	bhi.n	8007e24 <__mdiff+0x88>
 8007e58:	1b33      	subs	r3, r6, r4
 8007e5a:	3b15      	subs	r3, #21
 8007e5c:	f023 0303 	bic.w	r3, r3, #3
 8007e60:	3415      	adds	r4, #21
 8007e62:	3304      	adds	r3, #4
 8007e64:	42a6      	cmp	r6, r4
 8007e66:	bf38      	it	cc
 8007e68:	2304      	movcc	r3, #4
 8007e6a:	441d      	add	r5, r3
 8007e6c:	445b      	add	r3, fp
 8007e6e:	461e      	mov	r6, r3
 8007e70:	462c      	mov	r4, r5
 8007e72:	4544      	cmp	r4, r8
 8007e74:	d30e      	bcc.n	8007e94 <__mdiff+0xf8>
 8007e76:	f108 0103 	add.w	r1, r8, #3
 8007e7a:	1b49      	subs	r1, r1, r5
 8007e7c:	f021 0103 	bic.w	r1, r1, #3
 8007e80:	3d03      	subs	r5, #3
 8007e82:	45a8      	cmp	r8, r5
 8007e84:	bf38      	it	cc
 8007e86:	2100      	movcc	r1, #0
 8007e88:	440b      	add	r3, r1
 8007e8a:	f853 1d04 	ldr.w	r1, [r3, #-4]!
 8007e8e:	b191      	cbz	r1, 8007eb6 <__mdiff+0x11a>
 8007e90:	6117      	str	r7, [r2, #16]
 8007e92:	e79d      	b.n	8007dd0 <__mdiff+0x34>
 8007e94:	f854 1b04 	ldr.w	r1, [r4], #4
 8007e98:	46e6      	mov	lr, ip
 8007e9a:	0c08      	lsrs	r0, r1, #16
 8007e9c:	fa1c fc81 	uxtah	ip, ip, r1
 8007ea0:	4471      	add	r1, lr
 8007ea2:	eb00 402c 	add.w	r0, r0, ip, asr #16
 8007ea6:	b289      	uxth	r1, r1
 8007ea8:	ea41 4100 	orr.w	r1, r1, r0, lsl #16
 8007eac:	f846 1b04 	str.w	r1, [r6], #4
 8007eb0:	ea4f 4c20 	mov.w	ip, r0, asr #16
 8007eb4:	e7dd      	b.n	8007e72 <__mdiff+0xd6>
 8007eb6:	3f01      	subs	r7, #1
 8007eb8:	e7e7      	b.n	8007e8a <__mdiff+0xee>
 8007eba:	bf00      	nop
 8007ebc:	08009a4c 	.word	0x08009a4c
 8007ec0:	08009a5d 	.word	0x08009a5d

08007ec4 <__d2b>:
 8007ec4:	e92d 43f7 	stmdb	sp!, {r0, r1, r2, r4, r5, r6, r7, r8, r9, lr}
 8007ec8:	460f      	mov	r7, r1
 8007eca:	2101      	movs	r1, #1
 8007ecc:	ec59 8b10 	vmov	r8, r9, d0
 8007ed0:	4616      	mov	r6, r2
 8007ed2:	f7ff fcd5 	bl	8007880 <_Balloc>
 8007ed6:	4604      	mov	r4, r0
 8007ed8:	b930      	cbnz	r0, 8007ee8 <__d2b+0x24>
 8007eda:	4602      	mov	r2, r0
 8007edc:	4b23      	ldr	r3, [pc, #140]	@ (8007f6c <__d2b+0xa8>)
 8007ede:	4824      	ldr	r0, [pc, #144]	@ (8007f70 <__d2b+0xac>)
 8007ee0:	f240 310f 	movw	r1, #783	@ 0x30f
 8007ee4:	f7fe fd54 	bl	8006990 <__assert_func>
 8007ee8:	f3c9 550a 	ubfx	r5, r9, #20, #11
 8007eec:	f3c9 0313 	ubfx	r3, r9, #0, #20
 8007ef0:	b10d      	cbz	r5, 8007ef6 <__d2b+0x32>
 8007ef2:	f443 1380 	orr.w	r3, r3, #1048576	@ 0x100000
 8007ef6:	9301      	str	r3, [sp, #4]
 8007ef8:	f1b8 0300 	subs.w	r3, r8, #0
 8007efc:	d023      	beq.n	8007f46 <__d2b+0x82>
 8007efe:	4668      	mov	r0, sp
 8007f00:	9300      	str	r3, [sp, #0]
 8007f02:	f7ff fd84 	bl	8007a0e <__lo0bits>
 8007f06:	e9dd 1200 	ldrd	r1, r2, [sp]
 8007f0a:	b1d0      	cbz	r0, 8007f42 <__d2b+0x7e>
 8007f0c:	f1c0 0320 	rsb	r3, r0, #32
 8007f10:	fa02 f303 	lsl.w	r3, r2, r3
 8007f14:	430b      	orrs	r3, r1
 8007f16:	40c2      	lsrs	r2, r0
 8007f18:	6163      	str	r3, [r4, #20]
 8007f1a:	9201      	str	r2, [sp, #4]
 8007f1c:	9b01      	ldr	r3, [sp, #4]
 8007f1e:	61a3      	str	r3, [r4, #24]
 8007f20:	2b00      	cmp	r3, #0
 8007f22:	bf0c      	ite	eq
 8007f24:	2201      	moveq	r2, #1
 8007f26:	2202      	movne	r2, #2
 8007f28:	6122      	str	r2, [r4, #16]
 8007f2a:	b1a5      	cbz	r5, 8007f56 <__d2b+0x92>
 8007f2c:	f2a5 4533 	subw	r5, r5, #1075	@ 0x433
 8007f30:	4405      	add	r5, r0
 8007f32:	603d      	str	r5, [r7, #0]
 8007f34:	f1c0 0035 	rsb	r0, r0, #53	@ 0x35
 8007f38:	6030      	str	r0, [r6, #0]
 8007f3a:	4620      	mov	r0, r4
 8007f3c:	b003      	add	sp, #12
 8007f3e:	e8bd 83f0 	ldmia.w	sp!, {r4, r5, r6, r7, r8, r9, pc}
 8007f42:	6161      	str	r1, [r4, #20]
 8007f44:	e7ea      	b.n	8007f1c <__d2b+0x58>
 8007f46:	a801      	add	r0, sp, #4
 8007f48:	f7ff fd61 	bl	8007a0e <__lo0bits>
 8007f4c:	9b01      	ldr	r3, [sp, #4]
 8007f4e:	6163      	str	r3, [r4, #20]
 8007f50:	3020      	adds	r0, #32
 8007f52:	2201      	movs	r2, #1
 8007f54:	e7e8      	b.n	8007f28 <__d2b+0x64>
 8007f56:	eb04 0382 	add.w	r3, r4, r2, lsl #2
 8007f5a:	f2a0 4032 	subw	r0, r0, #1074	@ 0x432
 8007f5e:	6038      	str	r0, [r7, #0]
 8007f60:	6918      	ldr	r0, [r3, #16]
 8007f62:	f7ff fd35 	bl	80079d0 <__hi0bits>
 8007f66:	ebc0 1042 	rsb	r0, r0, r2, lsl #5
 8007f6a:	e7e5      	b.n	8007f38 <__d2b+0x74>
 8007f6c:	08009a4c 	.word	0x08009a4c
 8007f70:	08009a5d 	.word	0x08009a5d

08007f74 <__ssputs_r>:
 8007f74:	e92d 47f0 	stmdb	sp!, {r4, r5, r6, r7, r8, r9, sl, lr}
 8007f78:	688e      	ldr	r6, [r1, #8]
 8007f7a:	461f      	mov	r7, r3
 8007f7c:	42be      	cmp	r6, r7
 8007f7e:	680b      	ldr	r3, [r1, #0]
 8007f80:	4682      	mov	sl, r0
 8007f82:	460c      	mov	r4, r1
 8007f84:	4690      	mov	r8, r2
 8007f86:	d82d      	bhi.n	8007fe4 <__ssputs_r+0x70>
 8007f88:	f9b1 200c 	ldrsh.w	r2, [r1, #12]
 8007f8c:	f412 6f90 	tst.w	r2, #1152	@ 0x480
 8007f90:	d026      	beq.n	8007fe0 <__ssputs_r+0x6c>
 8007f92:	6965      	ldr	r5, [r4, #20]
 8007f94:	6909      	ldr	r1, [r1, #16]
 8007f96:	eb05 0545 	add.w	r5, r5, r5, lsl #1
 8007f9a:	eba3 0901 	sub.w	r9, r3, r1
 8007f9e:	eb05 75d5 	add.w	r5, r5, r5, lsr #31
 8007fa2:	1c7b      	adds	r3, r7, #1
 8007fa4:	444b      	add	r3, r9
 8007fa6:	106d      	asrs	r5, r5, #1
 8007fa8:	429d      	cmp	r5, r3
 8007faa:	bf38      	it	cc
 8007fac:	461d      	movcc	r5, r3
 8007fae:	0553      	lsls	r3, r2, #21
 8007fb0:	d527      	bpl.n	8008002 <__ssputs_r+0x8e>
 8007fb2:	4629      	mov	r1, r5
 8007fb4:	f7ff fbd8 	bl	8007768 <_malloc_r>
 8007fb8:	4606      	mov	r6, r0
 8007fba:	b360      	cbz	r0, 8008016 <__ssputs_r+0xa2>
 8007fbc:	6921      	ldr	r1, [r4, #16]
 8007fbe:	464a      	mov	r2, r9
 8007fc0:	f7fe fcd7 	bl	8006972 <memcpy>
 8007fc4:	89a3      	ldrh	r3, [r4, #12]
 8007fc6:	f423 6390 	bic.w	r3, r3, #1152	@ 0x480
 8007fca:	f043 0380 	orr.w	r3, r3, #128	@ 0x80
 8007fce:	81a3      	strh	r3, [r4, #12]
 8007fd0:	6126      	str	r6, [r4, #16]
 8007fd2:	6165      	str	r5, [r4, #20]
 8007fd4:	444e      	add	r6, r9
 8007fd6:	eba5 0509 	sub.w	r5, r5, r9
 8007fda:	6026      	str	r6, [r4, #0]
 8007fdc:	60a5      	str	r5, [r4, #8]
 8007fde:	463e      	mov	r6, r7
 8007fe0:	42be      	cmp	r6, r7
 8007fe2:	d900      	bls.n	8007fe6 <__ssputs_r+0x72>
 8007fe4:	463e      	mov	r6, r7
 8007fe6:	6820      	ldr	r0, [r4, #0]
 8007fe8:	4632      	mov	r2, r6
 8007fea:	4641      	mov	r1, r8
 8007fec:	f000 fb7c 	bl	80086e8 <memmove>
 8007ff0:	68a3      	ldr	r3, [r4, #8]
 8007ff2:	1b9b      	subs	r3, r3, r6
 8007ff4:	60a3      	str	r3, [r4, #8]
 8007ff6:	6823      	ldr	r3, [r4, #0]
 8007ff8:	4433      	add	r3, r6
 8007ffa:	6023      	str	r3, [r4, #0]
 8007ffc:	2000      	movs	r0, #0
 8007ffe:	e8bd 87f0 	ldmia.w	sp!, {r4, r5, r6, r7, r8, r9, sl, pc}
 8008002:	462a      	mov	r2, r5
 8008004:	f000 fbe9 	bl	80087da <_realloc_r>
 8008008:	4606      	mov	r6, r0
 800800a:	2800      	cmp	r0, #0
 800800c:	d1e0      	bne.n	8007fd0 <__ssputs_r+0x5c>
 800800e:	6921      	ldr	r1, [r4, #16]
 8008010:	4650      	mov	r0, sl
 8008012:	f7ff fb35 	bl	8007680 <_free_r>
 8008016:	230c      	movs	r3, #12
 8008018:	f8ca 3000 	str.w	r3, [sl]
 800801c:	89a3      	ldrh	r3, [r4, #12]
 800801e:	f043 0340 	orr.w	r3, r3, #64	@ 0x40
 8008022:	81a3      	strh	r3, [r4, #12]
 8008024:	f04f 30ff 	mov.w	r0, #4294967295
 8008028:	e7e9      	b.n	8007ffe <__ssputs_r+0x8a>
	...

0800802c <_svfiprintf_r>:
 800802c:	e92d 4ff0 	stmdb	sp!, {r4, r5, r6, r7, r8, r9, sl, fp, lr}
 8008030:	4698      	mov	r8, r3
 8008032:	898b      	ldrh	r3, [r1, #12]
 8008034:	061b      	lsls	r3, r3, #24
 8008036:	b09d      	sub	sp, #116	@ 0x74
 8008038:	4607      	mov	r7, r0
 800803a:	460d      	mov	r5, r1
 800803c:	4614      	mov	r4, r2
 800803e:	d510      	bpl.n	8008062 <_svfiprintf_r+0x36>
 8008040:	690b      	ldr	r3, [r1, #16]
 8008042:	b973      	cbnz	r3, 8008062 <_svfiprintf_r+0x36>
 8008044:	2140      	movs	r1, #64	@ 0x40
 8008046:	f7ff fb8f 	bl	8007768 <_malloc_r>
 800804a:	6028      	str	r0, [r5, #0]
 800804c:	6128      	str	r0, [r5, #16]
 800804e:	b930      	cbnz	r0, 800805e <_svfiprintf_r+0x32>
 8008050:	230c      	movs	r3, #12
 8008052:	603b      	str	r3, [r7, #0]
 8008054:	f04f 30ff 	mov.w	r0, #4294967295
 8008058:	b01d      	add	sp, #116	@ 0x74
 800805a:	e8bd 8ff0 	ldmia.w	sp!, {r4, r5, r6, r7, r8, r9, sl, fp, pc}
 800805e:	2340      	movs	r3, #64	@ 0x40
 8008060:	616b      	str	r3, [r5, #20]
 8008062:	2300      	movs	r3, #0
 8008064:	9309      	str	r3, [sp, #36]	@ 0x24
 8008066:	2320      	movs	r3, #32
 8008068:	f88d 3029 	strb.w	r3, [sp, #41]	@ 0x29
 800806c:	f8cd 800c 	str.w	r8, [sp, #12]
 8008070:	2330      	movs	r3, #48	@ 0x30
 8008072:	f8df 819c 	ldr.w	r8, [pc, #412]	@ 8008210 <_svfiprintf_r+0x1e4>
 8008076:	f88d 302a 	strb.w	r3, [sp, #42]	@ 0x2a
 800807a:	f04f 0901 	mov.w	r9, #1
 800807e:	4623      	mov	r3, r4
 8008080:	469a      	mov	sl, r3
 8008082:	f813 2b01 	ldrb.w	r2, [r3], #1
 8008086:	b10a      	cbz	r2, 800808c <_svfiprintf_r+0x60>
 8008088:	2a25      	cmp	r2, #37	@ 0x25
 800808a:	d1f9      	bne.n	8008080 <_svfiprintf_r+0x54>
 800808c:	ebba 0b04 	subs.w	fp, sl, r4
 8008090:	d00b      	beq.n	80080aa <_svfiprintf_r+0x7e>
 8008092:	465b      	mov	r3, fp
 8008094:	4622      	mov	r2, r4
 8008096:	4629      	mov	r1, r5
 8008098:	4638      	mov	r0, r7
 800809a:	f7ff ff6b 	bl	8007f74 <__ssputs_r>
 800809e:	3001      	adds	r0, #1
 80080a0:	f000 80a7 	beq.w	80081f2 <_svfiprintf_r+0x1c6>
 80080a4:	9a09      	ldr	r2, [sp, #36]	@ 0x24
 80080a6:	445a      	add	r2, fp
 80080a8:	9209      	str	r2, [sp, #36]	@ 0x24
 80080aa:	f89a 3000 	ldrb.w	r3, [sl]
 80080ae:	2b00      	cmp	r3, #0
 80080b0:	f000 809f 	beq.w	80081f2 <_svfiprintf_r+0x1c6>
 80080b4:	2300      	movs	r3, #0
 80080b6:	f04f 32ff 	mov.w	r2, #4294967295
 80080ba:	e9cd 2305 	strd	r2, r3, [sp, #20]
 80080be:	f10a 0a01 	add.w	sl, sl, #1
 80080c2:	9304      	str	r3, [sp, #16]
 80080c4:	9307      	str	r3, [sp, #28]
 80080c6:	f88d 3053 	strb.w	r3, [sp, #83]	@ 0x53
 80080ca:	931a      	str	r3, [sp, #104]	@ 0x68
 80080cc:	4654      	mov	r4, sl
 80080ce:	2205      	movs	r2, #5
 80080d0:	f814 1b01 	ldrb.w	r1, [r4], #1
 80080d4:	484e      	ldr	r0, [pc, #312]	@ (8008210 <_svfiprintf_r+0x1e4>)
 80080d6:	f7f8 f8ab 	bl	8000230 <memchr>
 80080da:	9a04      	ldr	r2, [sp, #16]
 80080dc:	b9d8      	cbnz	r0, 8008116 <_svfiprintf_r+0xea>
 80080de:	06d0      	lsls	r0, r2, #27
 80080e0:	bf44      	itt	mi
 80080e2:	2320      	movmi	r3, #32
 80080e4:	f88d 3053 	strbmi.w	r3, [sp, #83]	@ 0x53
 80080e8:	0711      	lsls	r1, r2, #28
 80080ea:	bf44      	itt	mi
 80080ec:	232b      	movmi	r3, #43	@ 0x2b
 80080ee:	f88d 3053 	strbmi.w	r3, [sp, #83]	@ 0x53
 80080f2:	f89a 3000 	ldrb.w	r3, [sl]
 80080f6:	2b2a      	cmp	r3, #42	@ 0x2a
 80080f8:	d015      	beq.n	8008126 <_svfiprintf_r+0xfa>
 80080fa:	9a07      	ldr	r2, [sp, #28]
 80080fc:	4654      	mov	r4, sl
 80080fe:	2000      	movs	r0, #0
 8008100:	f04f 0c0a 	mov.w	ip, #10
 8008104:	4621      	mov	r1, r4
 8008106:	f811 3b01 	ldrb.w	r3, [r1], #1
 800810a:	3b30      	subs	r3, #48	@ 0x30
 800810c:	2b09      	cmp	r3, #9
 800810e:	d94b      	bls.n	80081a8 <_svfiprintf_r+0x17c>
 8008110:	b1b0      	cbz	r0, 8008140 <_svfiprintf_r+0x114>
 8008112:	9207      	str	r2, [sp, #28]
 8008114:	e014      	b.n	8008140 <_svfiprintf_r+0x114>
 8008116:	eba0 0308 	sub.w	r3, r0, r8
 800811a:	fa09 f303 	lsl.w	r3, r9, r3
 800811e:	4313      	orrs	r3, r2
 8008120:	9304      	str	r3, [sp, #16]
 8008122:	46a2      	mov	sl, r4
 8008124:	e7d2      	b.n	80080cc <_svfiprintf_r+0xa0>
 8008126:	9b03      	ldr	r3, [sp, #12]
 8008128:	1d19      	adds	r1, r3, #4
 800812a:	681b      	ldr	r3, [r3, #0]
 800812c:	9103      	str	r1, [sp, #12]
 800812e:	2b00      	cmp	r3, #0
 8008130:	bfbb      	ittet	lt
 8008132:	425b      	neglt	r3, r3
 8008134:	f042 0202 	orrlt.w	r2, r2, #2
 8008138:	9307      	strge	r3, [sp, #28]
 800813a:	9307      	strlt	r3, [sp, #28]
 800813c:	bfb8      	it	lt
 800813e:	9204      	strlt	r2, [sp, #16]
 8008140:	7823      	ldrb	r3, [r4, #0]
 8008142:	2b2e      	cmp	r3, #46	@ 0x2e
 8008144:	d10a      	bne.n	800815c <_svfiprintf_r+0x130>
 8008146:	7863      	ldrb	r3, [r4, #1]
 8008148:	2b2a      	cmp	r3, #42	@ 0x2a
 800814a:	d132      	bne.n	80081b2 <_svfiprintf_r+0x186>
 800814c:	9b03      	ldr	r3, [sp, #12]
 800814e:	1d1a      	adds	r2, r3, #4
 8008150:	681b      	ldr	r3, [r3, #0]
 8008152:	9203      	str	r2, [sp, #12]
 8008154:	ea43 73e3 	orr.w	r3, r3, r3, asr #31
 8008158:	3402      	adds	r4, #2
 800815a:	9305      	str	r3, [sp, #20]
 800815c:	f8df a0c0 	ldr.w	sl, [pc, #192]	@ 8008220 <_svfiprintf_r+0x1f4>
 8008160:	7821      	ldrb	r1, [r4, #0]
 8008162:	2203      	movs	r2, #3
 8008164:	4650      	mov	r0, sl
 8008166:	f7f8 f863 	bl	8000230 <memchr>
 800816a:	b138      	cbz	r0, 800817c <_svfiprintf_r+0x150>
 800816c:	9b04      	ldr	r3, [sp, #16]
 800816e:	eba0 000a 	sub.w	r0, r0, sl
 8008172:	2240      	movs	r2, #64	@ 0x40
 8008174:	4082      	lsls	r2, r0
 8008176:	4313      	orrs	r3, r2
 8008178:	3401      	adds	r4, #1
 800817a:	9304      	str	r3, [sp, #16]
 800817c:	f814 1b01 	ldrb.w	r1, [r4], #1
 8008180:	4824      	ldr	r0, [pc, #144]	@ (8008214 <_svfiprintf_r+0x1e8>)
 8008182:	f88d 1028 	strb.w	r1, [sp, #40]	@ 0x28
 8008186:	2206      	movs	r2, #6
 8008188:	f7f8 f852 	bl	8000230 <memchr>
 800818c:	2800      	cmp	r0, #0
 800818e:	d036      	beq.n	80081fe <_svfiprintf_r+0x1d2>
 8008190:	4b21      	ldr	r3, [pc, #132]	@ (8008218 <_svfiprintf_r+0x1ec>)
 8008192:	bb1b      	cbnz	r3, 80081dc <_svfiprintf_r+0x1b0>
 8008194:	9b03      	ldr	r3, [sp, #12]
 8008196:	3307      	adds	r3, #7
 8008198:	f023 0307 	bic.w	r3, r3, #7
 800819c:	3308      	adds	r3, #8
 800819e:	9303      	str	r3, [sp, #12]
 80081a0:	9b09      	ldr	r3, [sp, #36]	@ 0x24
 80081a2:	4433      	add	r3, r6
 80081a4:	9309      	str	r3, [sp, #36]	@ 0x24
 80081a6:	e76a      	b.n	800807e <_svfiprintf_r+0x52>
 80081a8:	fb0c 3202 	mla	r2, ip, r2, r3
 80081ac:	460c      	mov	r4, r1
 80081ae:	2001      	movs	r0, #1
 80081b0:	e7a8      	b.n	8008104 <_svfiprintf_r+0xd8>
 80081b2:	2300      	movs	r3, #0
 80081b4:	3401      	adds	r4, #1
 80081b6:	9305      	str	r3, [sp, #20]
 80081b8:	4619      	mov	r1, r3
 80081ba:	f04f 0c0a 	mov.w	ip, #10
 80081be:	4620      	mov	r0, r4
 80081c0:	f810 2b01 	ldrb.w	r2, [r0], #1
 80081c4:	3a30      	subs	r2, #48	@ 0x30
 80081c6:	2a09      	cmp	r2, #9
 80081c8:	d903      	bls.n	80081d2 <_svfiprintf_r+0x1a6>
 80081ca:	2b00      	cmp	r3, #0
 80081cc:	d0c6      	beq.n	800815c <_svfiprintf_r+0x130>
 80081ce:	9105      	str	r1, [sp, #20]
 80081d0:	e7c4      	b.n	800815c <_svfiprintf_r+0x130>
 80081d2:	fb0c 2101 	mla	r1, ip, r1, r2
 80081d6:	4604      	mov	r4, r0
 80081d8:	2301      	movs	r3, #1
 80081da:	e7f0      	b.n	80081be <_svfiprintf_r+0x192>
 80081dc:	ab03      	add	r3, sp, #12
 80081de:	9300      	str	r3, [sp, #0]
 80081e0:	462a      	mov	r2, r5
 80081e2:	4b0e      	ldr	r3, [pc, #56]	@ (800821c <_svfiprintf_r+0x1f0>)
 80081e4:	a904      	add	r1, sp, #16
 80081e6:	4638      	mov	r0, r7
 80081e8:	f7fd fdd2 	bl	8005d90 <_printf_float>
 80081ec:	1c42      	adds	r2, r0, #1
 80081ee:	4606      	mov	r6, r0
 80081f0:	d1d6      	bne.n	80081a0 <_svfiprintf_r+0x174>
 80081f2:	89ab      	ldrh	r3, [r5, #12]
 80081f4:	065b      	lsls	r3, r3, #25
 80081f6:	f53f af2d 	bmi.w	8008054 <_svfiprintf_r+0x28>
 80081fa:	9809      	ldr	r0, [sp, #36]	@ 0x24
 80081fc:	e72c      	b.n	8008058 <_svfiprintf_r+0x2c>
 80081fe:	ab03      	add	r3, sp, #12
 8008200:	9300      	str	r3, [sp, #0]
 8008202:	462a      	mov	r2, r5
 8008204:	4b05      	ldr	r3, [pc, #20]	@ (800821c <_svfiprintf_r+0x1f0>)
 8008206:	a904      	add	r1, sp, #16
 8008208:	4638      	mov	r0, r7
 800820a:	f7fe f859 	bl	80062c0 <_printf_i>
 800820e:	e7ed      	b.n	80081ec <_svfiprintf_r+0x1c0>
 8008210:	08009ab6 	.word	0x08009ab6
 8008214:	08009ac0 	.word	0x08009ac0
 8008218:	08005d91 	.word	0x08005d91
 800821c:	08007f75 	.word	0x08007f75
 8008220:	08009abc 	.word	0x08009abc

08008224 <__sfputc_r>:
 8008224:	6893      	ldr	r3, [r2, #8]
 8008226:	3b01      	subs	r3, #1
 8008228:	2b00      	cmp	r3, #0
 800822a:	b410      	push	{r4}
 800822c:	6093      	str	r3, [r2, #8]
 800822e:	da08      	bge.n	8008242 <__sfputc_r+0x1e>
 8008230:	6994      	ldr	r4, [r2, #24]
 8008232:	42a3      	cmp	r3, r4
 8008234:	db01      	blt.n	800823a <__sfputc_r+0x16>
 8008236:	290a      	cmp	r1, #10
 8008238:	d103      	bne.n	8008242 <__sfputc_r+0x1e>
 800823a:	f85d 4b04 	ldr.w	r4, [sp], #4
 800823e:	f7fe ba84 	b.w	800674a <__swbuf_r>
 8008242:	6813      	ldr	r3, [r2, #0]
 8008244:	1c58      	adds	r0, r3, #1
 8008246:	6010      	str	r0, [r2, #0]
 8008248:	7019      	strb	r1, [r3, #0]
 800824a:	4608      	mov	r0, r1
 800824c:	f85d 4b04 	ldr.w	r4, [sp], #4
 8008250:	4770      	bx	lr

08008252 <__sfputs_r>:
 8008252:	b5f8      	push	{r3, r4, r5, r6, r7, lr}
 8008254:	4606      	mov	r6, r0
 8008256:	460f      	mov	r7, r1
 8008258:	4614      	mov	r4, r2
 800825a:	18d5      	adds	r5, r2, r3
 800825c:	42ac      	cmp	r4, r5
 800825e:	d101      	bne.n	8008264 <__sfputs_r+0x12>
 8008260:	2000      	movs	r0, #0
 8008262:	e007      	b.n	8008274 <__sfputs_r+0x22>
 8008264:	f814 1b01 	ldrb.w	r1, [r4], #1
 8008268:	463a      	mov	r2, r7
 800826a:	4630      	mov	r0, r6
 800826c:	f7ff ffda 	bl	8008224 <__sfputc_r>
 8008270:	1c43      	adds	r3, r0, #1
 8008272:	d1f3      	bne.n	800825c <__sfputs_r+0xa>
 8008274:	bdf8      	pop	{r3, r4, r5, r6, r7, pc}
	...

08008278 <_vfiprintf_r>:
 8008278:	e92d 4ff0 	stmdb	sp!, {r4, r5, r6, r7, r8, r9, sl, fp, lr}
 800827c:	460d      	mov	r5, r1
 800827e:	b09d      	sub	sp, #116	@ 0x74
 8008280:	4614      	mov	r4, r2
 8008282:	4698      	mov	r8, r3
 8008284:	4606      	mov	r6, r0
 8008286:	b118      	cbz	r0, 8008290 <_vfiprintf_r+0x18>
 8008288:	6a03      	ldr	r3, [r0, #32]
 800828a:	b90b      	cbnz	r3, 8008290 <_vfiprintf_r+0x18>
 800828c:	f7fe f9c2 	bl	8006614 <__sinit>
 8008290:	6e6b      	ldr	r3, [r5, #100]	@ 0x64
 8008292:	07d9      	lsls	r1, r3, #31
 8008294:	d405      	bmi.n	80082a2 <_vfiprintf_r+0x2a>
 8008296:	89ab      	ldrh	r3, [r5, #12]
 8008298:	059a      	lsls	r2, r3, #22
 800829a:	d402      	bmi.n	80082a2 <_vfiprintf_r+0x2a>
 800829c:	6da8      	ldr	r0, [r5, #88]	@ 0x58
 800829e:	f7fe fb66 	bl	800696e <__retarget_lock_acquire_recursive>
 80082a2:	89ab      	ldrh	r3, [r5, #12]
 80082a4:	071b      	lsls	r3, r3, #28
 80082a6:	d501      	bpl.n	80082ac <_vfiprintf_r+0x34>
 80082a8:	692b      	ldr	r3, [r5, #16]
 80082aa:	b99b      	cbnz	r3, 80082d4 <_vfiprintf_r+0x5c>
 80082ac:	4629      	mov	r1, r5
 80082ae:	4630      	mov	r0, r6
 80082b0:	f7fe fa8a 	bl	80067c8 <__swsetup_r>
 80082b4:	b170      	cbz	r0, 80082d4 <_vfiprintf_r+0x5c>
 80082b6:	6e6b      	ldr	r3, [r5, #100]	@ 0x64
 80082b8:	07dc      	lsls	r4, r3, #31
 80082ba:	d504      	bpl.n	80082c6 <_vfiprintf_r+0x4e>
 80082bc:	f04f 30ff 	mov.w	r0, #4294967295
 80082c0:	b01d      	add	sp, #116	@ 0x74
 80082c2:	e8bd 8ff0 	ldmia.w	sp!, {r4, r5, r6, r7, r8, r9, sl, fp, pc}
 80082c6:	89ab      	ldrh	r3, [r5, #12]
 80082c8:	0598      	lsls	r0, r3, #22
 80082ca:	d4f7      	bmi.n	80082bc <_vfiprintf_r+0x44>
 80082cc:	6da8      	ldr	r0, [r5, #88]	@ 0x58
 80082ce:	f7fe fb4f 	bl	8006970 <__retarget_lock_release_recursive>
 80082d2:	e7f3      	b.n	80082bc <_vfiprintf_r+0x44>
 80082d4:	2300      	movs	r3, #0
 80082d6:	9309      	str	r3, [sp, #36]	@ 0x24
 80082d8:	2320      	movs	r3, #32
 80082da:	f88d 3029 	strb.w	r3, [sp, #41]	@ 0x29
 80082de:	f8cd 800c 	str.w	r8, [sp, #12]
 80082e2:	2330      	movs	r3, #48	@ 0x30
 80082e4:	f8df 81ac 	ldr.w	r8, [pc, #428]	@ 8008494 <_vfiprintf_r+0x21c>
 80082e8:	f88d 302a 	strb.w	r3, [sp, #42]	@ 0x2a
 80082ec:	f04f 0901 	mov.w	r9, #1
 80082f0:	4623      	mov	r3, r4
 80082f2:	469a      	mov	sl, r3
 80082f4:	f813 2b01 	ldrb.w	r2, [r3], #1
 80082f8:	b10a      	cbz	r2, 80082fe <_vfiprintf_r+0x86>
 80082fa:	2a25      	cmp	r2, #37	@ 0x25
 80082fc:	d1f9      	bne.n	80082f2 <_vfiprintf_r+0x7a>
 80082fe:	ebba 0b04 	subs.w	fp, sl, r4
 8008302:	d00b      	beq.n	800831c <_vfiprintf_r+0xa4>
 8008304:	465b      	mov	r3, fp
 8008306:	4622      	mov	r2, r4
 8008308:	4629      	mov	r1, r5
 800830a:	4630      	mov	r0, r6
 800830c:	f7ff ffa1 	bl	8008252 <__sfputs_r>
 8008310:	3001      	adds	r0, #1
 8008312:	f000 80a7 	beq.w	8008464 <_vfiprintf_r+0x1ec>
 8008316:	9a09      	ldr	r2, [sp, #36]	@ 0x24
 8008318:	445a      	add	r2, fp
 800831a:	9209      	str	r2, [sp, #36]	@ 0x24
 800831c:	f89a 3000 	ldrb.w	r3, [sl]
 8008320:	2b00      	cmp	r3, #0
 8008322:	f000 809f 	beq.w	8008464 <_vfiprintf_r+0x1ec>
 8008326:	2300      	movs	r3, #0
 8008328:	f04f 32ff 	mov.w	r2, #4294967295
 800832c:	e9cd 2305 	strd	r2, r3, [sp, #20]
 8008330:	f10a 0a01 	add.w	sl, sl, #1
 8008334:	9304      	str	r3, [sp, #16]
 8008336:	9307      	str	r3, [sp, #28]
 8008338:	f88d 3053 	strb.w	r3, [sp, #83]	@ 0x53
 800833c:	931a      	str	r3, [sp, #104]	@ 0x68
 800833e:	4654      	mov	r4, sl
 8008340:	2205      	movs	r2, #5
 8008342:	f814 1b01 	ldrb.w	r1, [r4], #1
 8008346:	4853      	ldr	r0, [pc, #332]	@ (8008494 <_vfiprintf_r+0x21c>)
 8008348:	f7f7 ff72 	bl	8000230 <memchr>
 800834c:	9a04      	ldr	r2, [sp, #16]
 800834e:	b9d8      	cbnz	r0, 8008388 <_vfiprintf_r+0x110>
 8008350:	06d1      	lsls	r1, r2, #27
 8008352:	bf44      	itt	mi
 8008354:	2320      	movmi	r3, #32
 8008356:	f88d 3053 	strbmi.w	r3, [sp, #83]	@ 0x53
 800835a:	0713      	lsls	r3, r2, #28
 800835c:	bf44      	itt	mi
 800835e:	232b      	movmi	r3, #43	@ 0x2b
 8008360:	f88d 3053 	strbmi.w	r3, [sp, #83]	@ 0x53
 8008364:	f89a 3000 	ldrb.w	r3, [sl]
 8008368:	2b2a      	cmp	r3, #42	@ 0x2a
 800836a:	d015      	beq.n	8008398 <_vfiprintf_r+0x120>
 800836c:	9a07      	ldr	r2, [sp, #28]
 800836e:	4654      	mov	r4, sl
 8008370:	2000      	movs	r0, #0
 8008372:	f04f 0c0a 	mov.w	ip, #10
 8008376:	4621      	mov	r1, r4
 8008378:	f811 3b01 	ldrb.w	r3, [r1], #1
 800837c:	3b30      	subs	r3, #48	@ 0x30
 800837e:	2b09      	cmp	r3, #9
 8008380:	d94b      	bls.n	800841a <_vfiprintf_r+0x1a2>
 8008382:	b1b0      	cbz	r0, 80083b2 <_vfiprintf_r+0x13a>
 8008384:	9207      	str	r2, [sp, #28]
 8008386:	e014      	b.n	80083b2 <_vfiprintf_r+0x13a>
 8008388:	eba0 0308 	sub.w	r3, r0, r8
 800838c:	fa09 f303 	lsl.w	r3, r9, r3
 8008390:	4313      	orrs	r3, r2
 8008392:	9304      	str	r3, [sp, #16]
 8008394:	46a2      	mov	sl, r4
 8008396:	e7d2      	b.n	800833e <_vfiprintf_r+0xc6>
 8008398:	9b03      	ldr	r3, [sp, #12]
 800839a:	1d19      	adds	r1, r3, #4
 800839c:	681b      	ldr	r3, [r3, #0]
 800839e:	9103      	str	r1, [sp, #12]
 80083a0:	2b00      	cmp	r3, #0
 80083a2:	bfbb      	ittet	lt
 80083a4:	425b      	neglt	r3, r3
 80083a6:	f042 0202 	orrlt.w	r2, r2, #2
 80083aa:	9307      	strge	r3, [sp, #28]
 80083ac:	9307      	strlt	r3, [sp, #28]
 80083ae:	bfb8      	it	lt
 80083b0:	9204      	strlt	r2, [sp, #16]
 80083b2:	7823      	ldrb	r3, [r4, #0]
 80083b4:	2b2e      	cmp	r3, #46	@ 0x2e
 80083b6:	d10a      	bne.n	80083ce <_vfiprintf_r+0x156>
 80083b8:	7863      	ldrb	r3, [r4, #1]
 80083ba:	2b2a      	cmp	r3, #42	@ 0x2a
 80083bc:	d132      	bne.n	8008424 <_vfiprintf_r+0x1ac>
 80083be:	9b03      	ldr	r3, [sp, #12]
 80083c0:	1d1a      	adds	r2, r3, #4
 80083c2:	681b      	ldr	r3, [r3, #0]
 80083c4:	9203      	str	r2, [sp, #12]
 80083c6:	ea43 73e3 	orr.w	r3, r3, r3, asr #31
 80083ca:	3402      	adds	r4, #2
 80083cc:	9305      	str	r3, [sp, #20]
 80083ce:	f8df a0d4 	ldr.w	sl, [pc, #212]	@ 80084a4 <_vfiprintf_r+0x22c>
 80083d2:	7821      	ldrb	r1, [r4, #0]
 80083d4:	2203      	movs	r2, #3
 80083d6:	4650      	mov	r0, sl
 80083d8:	f7f7 ff2a 	bl	8000230 <memchr>
 80083dc:	b138      	cbz	r0, 80083ee <_vfiprintf_r+0x176>
 80083de:	9b04      	ldr	r3, [sp, #16]
 80083e0:	eba0 000a 	sub.w	r0, r0, sl
 80083e4:	2240      	movs	r2, #64	@ 0x40
 80083e6:	4082      	lsls	r2, r0
 80083e8:	4313      	orrs	r3, r2
 80083ea:	3401      	adds	r4, #1
 80083ec:	9304      	str	r3, [sp, #16]
 80083ee:	f814 1b01 	ldrb.w	r1, [r4], #1
 80083f2:	4829      	ldr	r0, [pc, #164]	@ (8008498 <_vfiprintf_r+0x220>)
 80083f4:	f88d 1028 	strb.w	r1, [sp, #40]	@ 0x28
 80083f8:	2206      	movs	r2, #6
 80083fa:	f7f7 ff19 	bl	8000230 <memchr>
 80083fe:	2800      	cmp	r0, #0
 8008400:	d03f      	beq.n	8008482 <_vfiprintf_r+0x20a>
 8008402:	4b26      	ldr	r3, [pc, #152]	@ (800849c <_vfiprintf_r+0x224>)
 8008404:	bb1b      	cbnz	r3, 800844e <_vfiprintf_r+0x1d6>
 8008406:	9b03      	ldr	r3, [sp, #12]
 8008408:	3307      	adds	r3, #7
 800840a:	f023 0307 	bic.w	r3, r3, #7
 800840e:	3308      	adds	r3, #8
 8008410:	9303      	str	r3, [sp, #12]
 8008412:	9b09      	ldr	r3, [sp, #36]	@ 0x24
 8008414:	443b      	add	r3, r7
 8008416:	9309      	str	r3, [sp, #36]	@ 0x24
 8008418:	e76a      	b.n	80082f0 <_vfiprintf_r+0x78>
 800841a:	fb0c 3202 	mla	r2, ip, r2, r3
 800841e:	460c      	mov	r4, r1
 8008420:	2001      	movs	r0, #1
 8008422:	e7a8      	b.n	8008376 <_vfiprintf_r+0xfe>
 8008424:	2300      	movs	r3, #0
 8008426:	3401      	adds	r4, #1
 8008428:	9305      	str	r3, [sp, #20]
 800842a:	4619      	mov	r1, r3
 800842c:	f04f 0c0a 	mov.w	ip, #10
 8008430:	4620      	mov	r0, r4
 8008432:	f810 2b01 	ldrb.w	r2, [r0], #1
 8008436:	3a30      	subs	r2, #48	@ 0x30
 8008438:	2a09      	cmp	r2, #9
 800843a:	d903      	bls.n	8008444 <_vfiprintf_r+0x1cc>
 800843c:	2b00      	cmp	r3, #0
 800843e:	d0c6      	beq.n	80083ce <_vfiprintf_r+0x156>
 8008440:	9105      	str	r1, [sp, #20]
 8008442:	e7c4      	b.n	80083ce <_vfiprintf_r+0x156>
 8008444:	fb0c 2101 	mla	r1, ip, r1, r2
 8008448:	4604      	mov	r4, r0
 800844a:	2301      	movs	r3, #1
 800844c:	e7f0      	b.n	8008430 <_vfiprintf_r+0x1b8>
 800844e:	ab03      	add	r3, sp, #12
 8008450:	9300      	str	r3, [sp, #0]
 8008452:	462a      	mov	r2, r5
 8008454:	4b12      	ldr	r3, [pc, #72]	@ (80084a0 <_vfiprintf_r+0x228>)
 8008456:	a904      	add	r1, sp, #16
 8008458:	4630      	mov	r0, r6
 800845a:	f7fd fc99 	bl	8005d90 <_printf_float>
 800845e:	4607      	mov	r7, r0
 8008460:	1c78      	adds	r0, r7, #1
 8008462:	d1d6      	bne.n	8008412 <_vfiprintf_r+0x19a>
 8008464:	6e6b      	ldr	r3, [r5, #100]	@ 0x64
 8008466:	07d9      	lsls	r1, r3, #31
 8008468:	d405      	bmi.n	8008476 <_vfiprintf_r+0x1fe>
 800846a:	89ab      	ldrh	r3, [r5, #12]
 800846c:	059a      	lsls	r2, r3, #22
 800846e:	d402      	bmi.n	8008476 <_vfiprintf_r+0x1fe>
 8008470:	6da8      	ldr	r0, [r5, #88]	@ 0x58
 8008472:	f7fe fa7d 	bl	8006970 <__retarget_lock_release_recursive>
 8008476:	89ab      	ldrh	r3, [r5, #12]
 8008478:	065b      	lsls	r3, r3, #25
 800847a:	f53f af1f 	bmi.w	80082bc <_vfiprintf_r+0x44>
 800847e:	9809      	ldr	r0, [sp, #36]	@ 0x24
 8008480:	e71e      	b.n	80082c0 <_vfiprintf_r+0x48>
 8008482:	ab03      	add	r3, sp, #12
 8008484:	9300      	str	r3, [sp, #0]
 8008486:	462a      	mov	r2, r5
 8008488:	4b05      	ldr	r3, [pc, #20]	@ (80084a0 <_vfiprintf_r+0x228>)
 800848a:	a904      	add	r1, sp, #16
 800848c:	4630      	mov	r0, r6
 800848e:	f7fd ff17 	bl	80062c0 <_printf_i>
 8008492:	e7e4      	b.n	800845e <_vfiprintf_r+0x1e6>
 8008494:	08009ab6 	.word	0x08009ab6
 8008498:	08009ac0 	.word	0x08009ac0
 800849c:	08005d91 	.word	0x08005d91
 80084a0:	08008253 	.word	0x08008253
 80084a4:	08009abc 	.word	0x08009abc

080084a8 <__sflush_r>:
 80084a8:	f9b1 200c 	ldrsh.w	r2, [r1, #12]
 80084ac:	e92d 41f0 	stmdb	sp!, {r4, r5, r6, r7, r8, lr}
 80084b0:	0716      	lsls	r6, r2, #28
 80084b2:	4605      	mov	r5, r0
 80084b4:	460c      	mov	r4, r1
 80084b6:	d454      	bmi.n	8008562 <__sflush_r+0xba>
 80084b8:	684b      	ldr	r3, [r1, #4]
 80084ba:	2b00      	cmp	r3, #0
 80084bc:	dc02      	bgt.n	80084c4 <__sflush_r+0x1c>
 80084be:	6c0b      	ldr	r3, [r1, #64]	@ 0x40
 80084c0:	2b00      	cmp	r3, #0
 80084c2:	dd48      	ble.n	8008556 <__sflush_r+0xae>
 80084c4:	6ae6      	ldr	r6, [r4, #44]	@ 0x2c
 80084c6:	2e00      	cmp	r6, #0
 80084c8:	d045      	beq.n	8008556 <__sflush_r+0xae>
 80084ca:	2300      	movs	r3, #0
 80084cc:	f412 5280 	ands.w	r2, r2, #4096	@ 0x1000
 80084d0:	682f      	ldr	r7, [r5, #0]
 80084d2:	6a21      	ldr	r1, [r4, #32]
 80084d4:	602b      	str	r3, [r5, #0]
 80084d6:	d030      	beq.n	800853a <__sflush_r+0x92>
 80084d8:	6d62      	ldr	r2, [r4, #84]	@ 0x54
 80084da:	89a3      	ldrh	r3, [r4, #12]
 80084dc:	0759      	lsls	r1, r3, #29
 80084de:	d505      	bpl.n	80084ec <__sflush_r+0x44>
 80084e0:	6863      	ldr	r3, [r4, #4]
 80084e2:	1ad2      	subs	r2, r2, r3
 80084e4:	6b63      	ldr	r3, [r4, #52]	@ 0x34
 80084e6:	b10b      	cbz	r3, 80084ec <__sflush_r+0x44>
 80084e8:	6c23      	ldr	r3, [r4, #64]	@ 0x40
 80084ea:	1ad2      	subs	r2, r2, r3
 80084ec:	2300      	movs	r3, #0
 80084ee:	6ae6      	ldr	r6, [r4, #44]	@ 0x2c
 80084f0:	6a21      	ldr	r1, [r4, #32]
 80084f2:	4628      	mov	r0, r5
 80084f4:	47b0      	blx	r6
 80084f6:	1c43      	adds	r3, r0, #1
 80084f8:	89a3      	ldrh	r3, [r4, #12]
 80084fa:	d106      	bne.n	800850a <__sflush_r+0x62>
 80084fc:	6829      	ldr	r1, [r5, #0]
 80084fe:	291d      	cmp	r1, #29
 8008500:	d82b      	bhi.n	800855a <__sflush_r+0xb2>
 8008502:	4a2a      	ldr	r2, [pc, #168]	@ (80085ac <__sflush_r+0x104>)
 8008504:	40ca      	lsrs	r2, r1
 8008506:	07d6      	lsls	r6, r2, #31
 8008508:	d527      	bpl.n	800855a <__sflush_r+0xb2>
 800850a:	2200      	movs	r2, #0
 800850c:	6062      	str	r2, [r4, #4]
 800850e:	04d9      	lsls	r1, r3, #19
 8008510:	6922      	ldr	r2, [r4, #16]
 8008512:	6022      	str	r2, [r4, #0]
 8008514:	d504      	bpl.n	8008520 <__sflush_r+0x78>
 8008516:	1c42      	adds	r2, r0, #1
 8008518:	d101      	bne.n	800851e <__sflush_r+0x76>
 800851a:	682b      	ldr	r3, [r5, #0]
 800851c:	b903      	cbnz	r3, 8008520 <__sflush_r+0x78>
 800851e:	6560      	str	r0, [r4, #84]	@ 0x54
 8008520:	6b61      	ldr	r1, [r4, #52]	@ 0x34
 8008522:	602f      	str	r7, [r5, #0]
 8008524:	b1b9      	cbz	r1, 8008556 <__sflush_r+0xae>
 8008526:	f104 0344 	add.w	r3, r4, #68	@ 0x44
 800852a:	4299      	cmp	r1, r3
 800852c:	d002      	beq.n	8008534 <__sflush_r+0x8c>
 800852e:	4628      	mov	r0, r5
 8008530:	f7ff f8a6 	bl	8007680 <_free_r>
 8008534:	2300      	movs	r3, #0
 8008536:	6363      	str	r3, [r4, #52]	@ 0x34
 8008538:	e00d      	b.n	8008556 <__sflush_r+0xae>
 800853a:	2301      	movs	r3, #1
 800853c:	4628      	mov	r0, r5
 800853e:	47b0      	blx	r6
 8008540:	4602      	mov	r2, r0
 8008542:	1c50      	adds	r0, r2, #1
 8008544:	d1c9      	bne.n	80084da <__sflush_r+0x32>
 8008546:	682b      	ldr	r3, [r5, #0]
 8008548:	2b00      	cmp	r3, #0
 800854a:	d0c6      	beq.n	80084da <__sflush_r+0x32>
 800854c:	2b1d      	cmp	r3, #29
 800854e:	d001      	beq.n	8008554 <__sflush_r+0xac>
 8008550:	2b16      	cmp	r3, #22
 8008552:	d11e      	bne.n	8008592 <__sflush_r+0xea>
 8008554:	602f      	str	r7, [r5, #0]
 8008556:	2000      	movs	r0, #0
 8008558:	e022      	b.n	80085a0 <__sflush_r+0xf8>
 800855a:	f043 0340 	orr.w	r3, r3, #64	@ 0x40
 800855e:	b21b      	sxth	r3, r3
 8008560:	e01b      	b.n	800859a <__sflush_r+0xf2>
 8008562:	690f      	ldr	r7, [r1, #16]
 8008564:	2f00      	cmp	r7, #0
 8008566:	d0f6      	beq.n	8008556 <__sflush_r+0xae>
 8008568:	0793      	lsls	r3, r2, #30
 800856a:	680e      	ldr	r6, [r1, #0]
 800856c:	bf08      	it	eq
 800856e:	694b      	ldreq	r3, [r1, #20]
 8008570:	600f      	str	r7, [r1, #0]
 8008572:	bf18      	it	ne
 8008574:	2300      	movne	r3, #0
 8008576:	eba6 0807 	sub.w	r8, r6, r7
 800857a:	608b      	str	r3, [r1, #8]
 800857c:	f1b8 0f00 	cmp.w	r8, #0
 8008580:	dde9      	ble.n	8008556 <__sflush_r+0xae>
 8008582:	6a21      	ldr	r1, [r4, #32]
 8008584:	6aa6      	ldr	r6, [r4, #40]	@ 0x28
 8008586:	4643      	mov	r3, r8
 8008588:	463a      	mov	r2, r7
 800858a:	4628      	mov	r0, r5
 800858c:	47b0      	blx	r6
 800858e:	2800      	cmp	r0, #0
 8008590:	dc08      	bgt.n	80085a4 <__sflush_r+0xfc>
 8008592:	f9b4 300c 	ldrsh.w	r3, [r4, #12]
 8008596:	f043 0340 	orr.w	r3, r3, #64	@ 0x40
 800859a:	81a3      	strh	r3, [r4, #12]
 800859c:	f04f 30ff 	mov.w	r0, #4294967295
 80085a0:	e8bd 81f0 	ldmia.w	sp!, {r4, r5, r6, r7, r8, pc}
 80085a4:	4407      	add	r7, r0
 80085a6:	eba8 0800 	sub.w	r8, r8, r0
 80085aa:	e7e7      	b.n	800857c <__sflush_r+0xd4>
 80085ac:	20400001 	.word	0x20400001

080085b0 <_fflush_r>:
 80085b0:	b538      	push	{r3, r4, r5, lr}
 80085b2:	690b      	ldr	r3, [r1, #16]
 80085b4:	4605      	mov	r5, r0
 80085b6:	460c      	mov	r4, r1
 80085b8:	b913      	cbnz	r3, 80085c0 <_fflush_r+0x10>
 80085ba:	2500      	movs	r5, #0
 80085bc:	4628      	mov	r0, r5
 80085be:	bd38      	pop	{r3, r4, r5, pc}
 80085c0:	b118      	cbz	r0, 80085ca <_fflush_r+0x1a>
 80085c2:	6a03      	ldr	r3, [r0, #32]
 80085c4:	b90b      	cbnz	r3, 80085ca <_fflush_r+0x1a>
 80085c6:	f7fe f825 	bl	8006614 <__sinit>
 80085ca:	f9b4 300c 	ldrsh.w	r3, [r4, #12]
 80085ce:	2b00      	cmp	r3, #0
 80085d0:	d0f3      	beq.n	80085ba <_fflush_r+0xa>
 80085d2:	6e62      	ldr	r2, [r4, #100]	@ 0x64
 80085d4:	07d0      	lsls	r0, r2, #31
 80085d6:	d404      	bmi.n	80085e2 <_fflush_r+0x32>
 80085d8:	0599      	lsls	r1, r3, #22
 80085da:	d402      	bmi.n	80085e2 <_fflush_r+0x32>
 80085dc:	6da0      	ldr	r0, [r4, #88]	@ 0x58
 80085de:	f7fe f9c6 	bl	800696e <__retarget_lock_acquire_recursive>
 80085e2:	4628      	mov	r0, r5
 80085e4:	4621      	mov	r1, r4
 80085e6:	f7ff ff5f 	bl	80084a8 <__sflush_r>
 80085ea:	6e63      	ldr	r3, [r4, #100]	@ 0x64
 80085ec:	07da      	lsls	r2, r3, #31
 80085ee:	4605      	mov	r5, r0
 80085f0:	d4e4      	bmi.n	80085bc <_fflush_r+0xc>
 80085f2:	89a3      	ldrh	r3, [r4, #12]
 80085f4:	059b      	lsls	r3, r3, #22
 80085f6:	d4e1      	bmi.n	80085bc <_fflush_r+0xc>
 80085f8:	6da0      	ldr	r0, [r4, #88]	@ 0x58
 80085fa:	f7fe f9b9 	bl	8006970 <__retarget_lock_release_recursive>
 80085fe:	e7dd      	b.n	80085bc <_fflush_r+0xc>

08008600 <fiprintf>:
 8008600:	b40e      	push	{r1, r2, r3}
 8008602:	b503      	push	{r0, r1, lr}
 8008604:	4601      	mov	r1, r0
 8008606:	ab03      	add	r3, sp, #12
 8008608:	4805      	ldr	r0, [pc, #20]	@ (8008620 <fiprintf+0x20>)
 800860a:	f853 2b04 	ldr.w	r2, [r3], #4
 800860e:	6800      	ldr	r0, [r0, #0]
 8008610:	9301      	str	r3, [sp, #4]
 8008612:	f7ff fe31 	bl	8008278 <_vfiprintf_r>
 8008616:	b002      	add	sp, #8
 8008618:	f85d eb04 	ldr.w	lr, [sp], #4
 800861c:	b003      	add	sp, #12
 800861e:	4770      	bx	lr
 8008620:	2000008c 	.word	0x2000008c

08008624 <__swhatbuf_r>:
 8008624:	b570      	push	{r4, r5, r6, lr}
 8008626:	460c      	mov	r4, r1
 8008628:	f9b1 100e 	ldrsh.w	r1, [r1, #14]
 800862c:	2900      	cmp	r1, #0
 800862e:	b096      	sub	sp, #88	@ 0x58
 8008630:	4615      	mov	r5, r2
 8008632:	461e      	mov	r6, r3
 8008634:	da0d      	bge.n	8008652 <__swhatbuf_r+0x2e>
 8008636:	89a3      	ldrh	r3, [r4, #12]
 8008638:	f013 0f80 	tst.w	r3, #128	@ 0x80
 800863c:	f04f 0100 	mov.w	r1, #0
 8008640:	bf14      	ite	ne
 8008642:	2340      	movne	r3, #64	@ 0x40
 8008644:	f44f 6380 	moveq.w	r3, #1024	@ 0x400
 8008648:	2000      	movs	r0, #0
 800864a:	6031      	str	r1, [r6, #0]
 800864c:	602b      	str	r3, [r5, #0]
 800864e:	b016      	add	sp, #88	@ 0x58
 8008650:	bd70      	pop	{r4, r5, r6, pc}
 8008652:	466a      	mov	r2, sp
 8008654:	f000 f862 	bl	800871c <_fstat_r>
 8008658:	2800      	cmp	r0, #0
 800865a:	dbec      	blt.n	8008636 <__swhatbuf_r+0x12>
 800865c:	9901      	ldr	r1, [sp, #4]
 800865e:	f401 4170 	and.w	r1, r1, #61440	@ 0xf000
 8008662:	f5a1 5300 	sub.w	r3, r1, #8192	@ 0x2000
 8008666:	4259      	negs	r1, r3
 8008668:	4159      	adcs	r1, r3
 800866a:	f44f 6380 	mov.w	r3, #1024	@ 0x400
 800866e:	e7eb      	b.n	8008648 <__swhatbuf_r+0x24>

08008670 <__smakebuf_r>:
 8008670:	898b      	ldrh	r3, [r1, #12]
 8008672:	b5f7      	push	{r0, r1, r2, r4, r5, r6, r7, lr}
 8008674:	079d      	lsls	r5, r3, #30
 8008676:	4606      	mov	r6, r0
 8008678:	460c      	mov	r4, r1
 800867a:	d507      	bpl.n	800868c <__smakebuf_r+0x1c>
 800867c:	f104 0347 	add.w	r3, r4, #71	@ 0x47
 8008680:	6023      	str	r3, [r4, #0]
 8008682:	6123      	str	r3, [r4, #16]
 8008684:	2301      	movs	r3, #1
 8008686:	6163      	str	r3, [r4, #20]
 8008688:	b003      	add	sp, #12
 800868a:	bdf0      	pop	{r4, r5, r6, r7, pc}
 800868c:	ab01      	add	r3, sp, #4
 800868e:	466a      	mov	r2, sp
 8008690:	f7ff ffc8 	bl	8008624 <__swhatbuf_r>
 8008694:	9f00      	ldr	r7, [sp, #0]
 8008696:	4605      	mov	r5, r0
 8008698:	4639      	mov	r1, r7
 800869a:	4630      	mov	r0, r6
 800869c:	f7ff f864 	bl	8007768 <_malloc_r>
 80086a0:	b948      	cbnz	r0, 80086b6 <__smakebuf_r+0x46>
 80086a2:	f9b4 300c 	ldrsh.w	r3, [r4, #12]
 80086a6:	059a      	lsls	r2, r3, #22
 80086a8:	d4ee      	bmi.n	8008688 <__smakebuf_r+0x18>
 80086aa:	f023 0303 	bic.w	r3, r3, #3
 80086ae:	f043 0302 	orr.w	r3, r3, #2
 80086b2:	81a3      	strh	r3, [r4, #12]
 80086b4:	e7e2      	b.n	800867c <__smakebuf_r+0xc>
 80086b6:	89a3      	ldrh	r3, [r4, #12]
 80086b8:	6020      	str	r0, [r4, #0]
 80086ba:	f043 0380 	orr.w	r3, r3, #128	@ 0x80
 80086be:	81a3      	strh	r3, [r4, #12]
 80086c0:	9b01      	ldr	r3, [sp, #4]
 80086c2:	e9c4 0704 	strd	r0, r7, [r4, #16]
 80086c6:	b15b      	cbz	r3, 80086e0 <__smakebuf_r+0x70>
 80086c8:	f9b4 100e 	ldrsh.w	r1, [r4, #14]
 80086cc:	4630      	mov	r0, r6
 80086ce:	f000 f837 	bl	8008740 <_isatty_r>
 80086d2:	b128      	cbz	r0, 80086e0 <__smakebuf_r+0x70>
 80086d4:	89a3      	ldrh	r3, [r4, #12]
 80086d6:	f023 0303 	bic.w	r3, r3, #3
 80086da:	f043 0301 	orr.w	r3, r3, #1
 80086de:	81a3      	strh	r3, [r4, #12]
 80086e0:	89a3      	ldrh	r3, [r4, #12]
 80086e2:	431d      	orrs	r5, r3
 80086e4:	81a5      	strh	r5, [r4, #12]
 80086e6:	e7cf      	b.n	8008688 <__smakebuf_r+0x18>

080086e8 <memmove>:
 80086e8:	4288      	cmp	r0, r1
 80086ea:	b510      	push	{r4, lr}
 80086ec:	eb01 0402 	add.w	r4, r1, r2
 80086f0:	d902      	bls.n	80086f8 <memmove+0x10>
 80086f2:	4284      	cmp	r4, r0
 80086f4:	4623      	mov	r3, r4
 80086f6:	d807      	bhi.n	8008708 <memmove+0x20>
 80086f8:	1e43      	subs	r3, r0, #1
 80086fa:	42a1      	cmp	r1, r4
 80086fc:	d008      	beq.n	8008710 <memmove+0x28>
 80086fe:	f811 2b01 	ldrb.w	r2, [r1], #1
 8008702:	f803 2f01 	strb.w	r2, [r3, #1]!
 8008706:	e7f8      	b.n	80086fa <memmove+0x12>
 8008708:	4402      	add	r2, r0
 800870a:	4601      	mov	r1, r0
 800870c:	428a      	cmp	r2, r1
 800870e:	d100      	bne.n	8008712 <memmove+0x2a>
 8008710:	bd10      	pop	{r4, pc}
 8008712:	f813 4d01 	ldrb.w	r4, [r3, #-1]!
 8008716:	f802 4d01 	strb.w	r4, [r2, #-1]!
 800871a:	e7f7      	b.n	800870c <memmove+0x24>

0800871c <_fstat_r>:
 800871c:	b538      	push	{r3, r4, r5, lr}
 800871e:	4d07      	ldr	r5, [pc, #28]	@ (800873c <_fstat_r+0x20>)
 8008720:	2300      	movs	r3, #0
 8008722:	4604      	mov	r4, r0
 8008724:	4608      	mov	r0, r1
 8008726:	4611      	mov	r1, r2
 8008728:	602b      	str	r3, [r5, #0]
 800872a:	f7f9 fbac 	bl	8001e86 <_fstat>
 800872e:	1c43      	adds	r3, r0, #1
 8008730:	d102      	bne.n	8008738 <_fstat_r+0x1c>
 8008732:	682b      	ldr	r3, [r5, #0]
 8008734:	b103      	cbz	r3, 8008738 <_fstat_r+0x1c>
 8008736:	6023      	str	r3, [r4, #0]
 8008738:	bd38      	pop	{r3, r4, r5, pc}
 800873a:	bf00      	nop
 800873c:	20000518 	.word	0x20000518

08008740 <_isatty_r>:
 8008740:	b538      	push	{r3, r4, r5, lr}
 8008742:	4d06      	ldr	r5, [pc, #24]	@ (800875c <_isatty_r+0x1c>)
 8008744:	2300      	movs	r3, #0
 8008746:	4604      	mov	r4, r0
 8008748:	4608      	mov	r0, r1
 800874a:	602b      	str	r3, [r5, #0]
 800874c:	f7f9 fbb4 	bl	8001eb8 <_isatty>
 8008750:	1c43      	adds	r3, r0, #1
 8008752:	d102      	bne.n	800875a <_isatty_r+0x1a>
 8008754:	682b      	ldr	r3, [r5, #0]
 8008756:	b103      	cbz	r3, 800875a <_isatty_r+0x1a>
 8008758:	6023      	str	r3, [r4, #0]
 800875a:	bd38      	pop	{r3, r4, r5, pc}
 800875c:	20000518 	.word	0x20000518

08008760 <_sbrk_r>:
 8008760:	b538      	push	{r3, r4, r5, lr}
 8008762:	4d06      	ldr	r5, [pc, #24]	@ (800877c <_sbrk_r+0x1c>)
 8008764:	2300      	movs	r3, #0
 8008766:	4604      	mov	r4, r0
 8008768:	4608      	mov	r0, r1
 800876a:	602b      	str	r3, [r5, #0]
 800876c:	f7f9 fc50 	bl	8002010 <_sbrk>
 8008770:	1c43      	adds	r3, r0, #1
 8008772:	d102      	bne.n	800877a <_sbrk_r+0x1a>
 8008774:	682b      	ldr	r3, [r5, #0]
 8008776:	b103      	cbz	r3, 800877a <_sbrk_r+0x1a>
 8008778:	6023      	str	r3, [r4, #0]
 800877a:	bd38      	pop	{r3, r4, r5, pc}
 800877c:	20000518 	.word	0x20000518

08008780 <abort>:
 8008780:	b508      	push	{r3, lr}
 8008782:	2006      	movs	r0, #6
 8008784:	f000 f88c 	bl	80088a0 <raise>
 8008788:	2001      	movs	r0, #1
 800878a:	f000 fc9b 	bl	80090c4 <_exit>

0800878e <_calloc_r>:
 800878e:	b570      	push	{r4, r5, r6, lr}
 8008790:	fba1 5402 	umull	r5, r4, r1, r2
 8008794:	b934      	cbnz	r4, 80087a4 <_calloc_r+0x16>
 8008796:	4629      	mov	r1, r5
 8008798:	f7fe ffe6 	bl	8007768 <_malloc_r>
 800879c:	4606      	mov	r6, r0
 800879e:	b928      	cbnz	r0, 80087ac <_calloc_r+0x1e>
 80087a0:	4630      	mov	r0, r6
 80087a2:	bd70      	pop	{r4, r5, r6, pc}
 80087a4:	220c      	movs	r2, #12
 80087a6:	6002      	str	r2, [r0, #0]
 80087a8:	2600      	movs	r6, #0
 80087aa:	e7f9      	b.n	80087a0 <_calloc_r+0x12>
 80087ac:	462a      	mov	r2, r5
 80087ae:	4621      	mov	r1, r4
 80087b0:	f7fe f860 	bl	8006874 <memset>
 80087b4:	e7f4      	b.n	80087a0 <_calloc_r+0x12>

080087b6 <__ascii_mbtowc>:
 80087b6:	b082      	sub	sp, #8
 80087b8:	b901      	cbnz	r1, 80087bc <__ascii_mbtowc+0x6>
 80087ba:	a901      	add	r1, sp, #4
 80087bc:	b142      	cbz	r2, 80087d0 <__ascii_mbtowc+0x1a>
 80087be:	b14b      	cbz	r3, 80087d4 <__ascii_mbtowc+0x1e>
 80087c0:	7813      	ldrb	r3, [r2, #0]
 80087c2:	600b      	str	r3, [r1, #0]
 80087c4:	7812      	ldrb	r2, [r2, #0]
 80087c6:	1e10      	subs	r0, r2, #0
 80087c8:	bf18      	it	ne
 80087ca:	2001      	movne	r0, #1
 80087cc:	b002      	add	sp, #8
 80087ce:	4770      	bx	lr
 80087d0:	4610      	mov	r0, r2
 80087d2:	e7fb      	b.n	80087cc <__ascii_mbtowc+0x16>
 80087d4:	f06f 0001 	mvn.w	r0, #1
 80087d8:	e7f8      	b.n	80087cc <__ascii_mbtowc+0x16>

080087da <_realloc_r>:
 80087da:	e92d 41f0 	stmdb	sp!, {r4, r5, r6, r7, r8, lr}
 80087de:	4607      	mov	r7, r0
 80087e0:	4614      	mov	r4, r2
 80087e2:	460d      	mov	r5, r1
 80087e4:	b921      	cbnz	r1, 80087f0 <_realloc_r+0x16>
 80087e6:	e8bd 41f0 	ldmia.w	sp!, {r4, r5, r6, r7, r8, lr}
 80087ea:	4611      	mov	r1, r2
 80087ec:	f7fe bfbc 	b.w	8007768 <_malloc_r>
 80087f0:	b92a      	cbnz	r2, 80087fe <_realloc_r+0x24>
 80087f2:	f7fe ff45 	bl	8007680 <_free_r>
 80087f6:	4625      	mov	r5, r4
 80087f8:	4628      	mov	r0, r5
 80087fa:	e8bd 81f0 	ldmia.w	sp!, {r4, r5, r6, r7, r8, pc}
 80087fe:	f000 f86b 	bl	80088d8 <_malloc_usable_size_r>
 8008802:	4284      	cmp	r4, r0
 8008804:	4606      	mov	r6, r0
 8008806:	d802      	bhi.n	800880e <_realloc_r+0x34>
 8008808:	ebb4 0f50 	cmp.w	r4, r0, lsr #1
 800880c:	d8f4      	bhi.n	80087f8 <_realloc_r+0x1e>
 800880e:	4621      	mov	r1, r4
 8008810:	4638      	mov	r0, r7
 8008812:	f7fe ffa9 	bl	8007768 <_malloc_r>
 8008816:	4680      	mov	r8, r0
 8008818:	b908      	cbnz	r0, 800881e <_realloc_r+0x44>
 800881a:	4645      	mov	r5, r8
 800881c:	e7ec      	b.n	80087f8 <_realloc_r+0x1e>
 800881e:	42b4      	cmp	r4, r6
 8008820:	4622      	mov	r2, r4
 8008822:	4629      	mov	r1, r5
 8008824:	bf28      	it	cs
 8008826:	4632      	movcs	r2, r6
 8008828:	f7fe f8a3 	bl	8006972 <memcpy>
 800882c:	4629      	mov	r1, r5
 800882e:	4638      	mov	r0, r7
 8008830:	f7fe ff26 	bl	8007680 <_free_r>
 8008834:	e7f1      	b.n	800881a <_realloc_r+0x40>

08008836 <__ascii_wctomb>:
 8008836:	4603      	mov	r3, r0
 8008838:	4608      	mov	r0, r1
 800883a:	b141      	cbz	r1, 800884e <__ascii_wctomb+0x18>
 800883c:	2aff      	cmp	r2, #255	@ 0xff
 800883e:	d904      	bls.n	800884a <__ascii_wctomb+0x14>
 8008840:	228a      	movs	r2, #138	@ 0x8a
 8008842:	601a      	str	r2, [r3, #0]
 8008844:	f04f 30ff 	mov.w	r0, #4294967295
 8008848:	4770      	bx	lr
 800884a:	700a      	strb	r2, [r1, #0]
 800884c:	2001      	movs	r0, #1
 800884e:	4770      	bx	lr

08008850 <_raise_r>:
 8008850:	291f      	cmp	r1, #31
 8008852:	b538      	push	{r3, r4, r5, lr}
 8008854:	4605      	mov	r5, r0
 8008856:	460c      	mov	r4, r1
 8008858:	d904      	bls.n	8008864 <_raise_r+0x14>
 800885a:	2316      	movs	r3, #22
 800885c:	6003      	str	r3, [r0, #0]
 800885e:	f04f 30ff 	mov.w	r0, #4294967295
 8008862:	bd38      	pop	{r3, r4, r5, pc}
 8008864:	6bc2      	ldr	r2, [r0, #60]	@ 0x3c
 8008866:	b112      	cbz	r2, 800886e <_raise_r+0x1e>
 8008868:	f852 3021 	ldr.w	r3, [r2, r1, lsl #2]
 800886c:	b94b      	cbnz	r3, 8008882 <_raise_r+0x32>
 800886e:	4628      	mov	r0, r5
 8008870:	f000 f830 	bl	80088d4 <_getpid_r>
 8008874:	4622      	mov	r2, r4
 8008876:	4601      	mov	r1, r0
 8008878:	4628      	mov	r0, r5
 800887a:	e8bd 4038 	ldmia.w	sp!, {r3, r4, r5, lr}
 800887e:	f000 b817 	b.w	80088b0 <_kill_r>
 8008882:	2b01      	cmp	r3, #1
 8008884:	d00a      	beq.n	800889c <_raise_r+0x4c>
 8008886:	1c59      	adds	r1, r3, #1
 8008888:	d103      	bne.n	8008892 <_raise_r+0x42>
 800888a:	2316      	movs	r3, #22
 800888c:	6003      	str	r3, [r0, #0]
 800888e:	2001      	movs	r0, #1
 8008890:	e7e7      	b.n	8008862 <_raise_r+0x12>
 8008892:	2100      	movs	r1, #0
 8008894:	f842 1024 	str.w	r1, [r2, r4, lsl #2]
 8008898:	4620      	mov	r0, r4
 800889a:	4798      	blx	r3
 800889c:	2000      	movs	r0, #0
 800889e:	e7e0      	b.n	8008862 <_raise_r+0x12>

080088a0 <raise>:
 80088a0:	4b02      	ldr	r3, [pc, #8]	@ (80088ac <raise+0xc>)
 80088a2:	4601      	mov	r1, r0
 80088a4:	6818      	ldr	r0, [r3, #0]
 80088a6:	f7ff bfd3 	b.w	8008850 <_raise_r>
 80088aa:	bf00      	nop
 80088ac:	2000008c 	.word	0x2000008c

080088b0 <_kill_r>:
 80088b0:	b538      	push	{r3, r4, r5, lr}
 80088b2:	4d07      	ldr	r5, [pc, #28]	@ (80088d0 <_kill_r+0x20>)
 80088b4:	2300      	movs	r3, #0
 80088b6:	4604      	mov	r4, r0
 80088b8:	4608      	mov	r0, r1
 80088ba:	4611      	mov	r1, r2
 80088bc:	602b      	str	r3, [r5, #0]
 80088be:	f7f9 fb1a 	bl	8001ef6 <_kill>
 80088c2:	1c43      	adds	r3, r0, #1
 80088c4:	d102      	bne.n	80088cc <_kill_r+0x1c>
 80088c6:	682b      	ldr	r3, [r5, #0]
 80088c8:	b103      	cbz	r3, 80088cc <_kill_r+0x1c>
 80088ca:	6023      	str	r3, [r4, #0]
 80088cc:	bd38      	pop	{r3, r4, r5, pc}
 80088ce:	bf00      	nop
 80088d0:	20000518 	.word	0x20000518

080088d4 <_getpid_r>:
 80088d4:	f7f9 bb07 	b.w	8001ee6 <_getpid>

080088d8 <_malloc_usable_size_r>:
 80088d8:	f851 3c04 	ldr.w	r3, [r1, #-4]
 80088dc:	1f18      	subs	r0, r3, #4
 80088de:	2b00      	cmp	r3, #0
 80088e0:	bfbc      	itt	lt
 80088e2:	580b      	ldrlt	r3, [r1, r0]
 80088e4:	18c0      	addlt	r0, r0, r3
 80088e6:	4770      	bx	lr

080088e8 <powf>:
 80088e8:	b508      	push	{r3, lr}
 80088ea:	ed2d 8b04 	vpush	{d8-d9}
 80088ee:	eeb0 8a60 	vmov.f32	s16, s1
 80088f2:	eeb0 9a40 	vmov.f32	s18, s0
 80088f6:	f000 f87b 	bl	80089f0 <__ieee754_powf>
 80088fa:	eeb4 8a48 	vcmp.f32	s16, s16
 80088fe:	eef1 fa10 	vmrs	APSR_nzcv, fpscr
 8008902:	eef0 8a40 	vmov.f32	s17, s0
 8008906:	d63e      	bvs.n	8008986 <powf+0x9e>
 8008908:	eeb5 9a40 	vcmp.f32	s18, #0.0
 800890c:	eef1 fa10 	vmrs	APSR_nzcv, fpscr
 8008910:	d112      	bne.n	8008938 <powf+0x50>
 8008912:	eeb5 8a40 	vcmp.f32	s16, #0.0
 8008916:	eef1 fa10 	vmrs	APSR_nzcv, fpscr
 800891a:	d039      	beq.n	8008990 <powf+0xa8>
 800891c:	eeb0 0a48 	vmov.f32	s0, s16
 8008920:	f000 f858 	bl	80089d4 <finitef>
 8008924:	b378      	cbz	r0, 8008986 <powf+0x9e>
 8008926:	eeb5 8ac0 	vcmpe.f32	s16, #0.0
 800892a:	eef1 fa10 	vmrs	APSR_nzcv, fpscr
 800892e:	d52a      	bpl.n	8008986 <powf+0x9e>
 8008930:	f7fd fff2 	bl	8006918 <__errno>
 8008934:	2322      	movs	r3, #34	@ 0x22
 8008936:	e014      	b.n	8008962 <powf+0x7a>
 8008938:	f000 f84c 	bl	80089d4 <finitef>
 800893c:	b998      	cbnz	r0, 8008966 <powf+0x7e>
 800893e:	eeb0 0a49 	vmov.f32	s0, s18
 8008942:	f000 f847 	bl	80089d4 <finitef>
 8008946:	b170      	cbz	r0, 8008966 <powf+0x7e>
 8008948:	eeb0 0a48 	vmov.f32	s0, s16
 800894c:	f000 f842 	bl	80089d4 <finitef>
 8008950:	b148      	cbz	r0, 8008966 <powf+0x7e>
 8008952:	eef4 8a68 	vcmp.f32	s17, s17
 8008956:	eef1 fa10 	vmrs	APSR_nzcv, fpscr
 800895a:	d7e9      	bvc.n	8008930 <powf+0x48>
 800895c:	f7fd ffdc 	bl	8006918 <__errno>
 8008960:	2321      	movs	r3, #33	@ 0x21
 8008962:	6003      	str	r3, [r0, #0]
 8008964:	e00f      	b.n	8008986 <powf+0x9e>
 8008966:	eef5 8a40 	vcmp.f32	s17, #0.0
 800896a:	eef1 fa10 	vmrs	APSR_nzcv, fpscr
 800896e:	d10a      	bne.n	8008986 <powf+0x9e>
 8008970:	eeb0 0a49 	vmov.f32	s0, s18
 8008974:	f000 f82e 	bl	80089d4 <finitef>
 8008978:	b128      	cbz	r0, 8008986 <powf+0x9e>
 800897a:	eeb0 0a48 	vmov.f32	s0, s16
 800897e:	f000 f829 	bl	80089d4 <finitef>
 8008982:	2800      	cmp	r0, #0
 8008984:	d1d4      	bne.n	8008930 <powf+0x48>
 8008986:	eeb0 0a68 	vmov.f32	s0, s17
 800898a:	ecbd 8b04 	vpop	{d8-d9}
 800898e:	bd08      	pop	{r3, pc}
 8008990:	eef7 8a00 	vmov.f32	s17, #112	@ 0x3f800000  1.0
 8008994:	e7f7      	b.n	8008986 <powf+0x9e>
	...

08008998 <sqrtf>:
 8008998:	b508      	push	{r3, lr}
 800899a:	ed2d 8b02 	vpush	{d8}
 800899e:	eeb0 8a40 	vmov.f32	s16, s0
 80089a2:	f000 f821 	bl	80089e8 <__ieee754_sqrtf>
 80089a6:	eeb4 8a48 	vcmp.f32	s16, s16
 80089aa:	eef1 fa10 	vmrs	APSR_nzcv, fpscr
 80089ae:	d60c      	bvs.n	80089ca <sqrtf+0x32>
 80089b0:	eddf 8a07 	vldr	s17, [pc, #28]	@ 80089d0 <sqrtf+0x38>
 80089b4:	eeb4 8ae8 	vcmpe.f32	s16, s17
 80089b8:	eef1 fa10 	vmrs	APSR_nzcv, fpscr
 80089bc:	d505      	bpl.n	80089ca <sqrtf+0x32>
 80089be:	f7fd ffab 	bl	8006918 <__errno>
 80089c2:	ee88 0aa8 	vdiv.f32	s0, s17, s17
 80089c6:	2321      	movs	r3, #33	@ 0x21
 80089c8:	6003      	str	r3, [r0, #0]
 80089ca:	ecbd 8b02 	vpop	{d8}
 80089ce:	bd08      	pop	{r3, pc}
 80089d0:	00000000 	.word	0x00000000

080089d4 <finitef>:
 80089d4:	ee10 3a10 	vmov	r3, s0
 80089d8:	f023 4000 	bic.w	r0, r3, #2147483648	@ 0x80000000
 80089dc:	f1b0 4fff 	cmp.w	r0, #2139095040	@ 0x7f800000
 80089e0:	bfac      	ite	ge
 80089e2:	2000      	movge	r0, #0
 80089e4:	2001      	movlt	r0, #1
 80089e6:	4770      	bx	lr

080089e8 <__ieee754_sqrtf>:
 80089e8:	eeb1 0ac0 	vsqrt.f32	s0, s0
 80089ec:	4770      	bx	lr
	...

080089f0 <__ieee754_powf>:
 80089f0:	e92d 43f8 	stmdb	sp!, {r3, r4, r5, r6, r7, r8, r9, lr}
 80089f4:	ee10 4a90 	vmov	r4, s1
 80089f8:	f034 4900 	bics.w	r9, r4, #2147483648	@ 0x80000000
 80089fc:	ed2d 8b02 	vpush	{d8}
 8008a00:	ee10 6a10 	vmov	r6, s0
 8008a04:	eeb0 8a40 	vmov.f32	s16, s0
 8008a08:	eef0 8a60 	vmov.f32	s17, s1
 8008a0c:	d10c      	bne.n	8008a28 <__ieee754_powf+0x38>
 8008a0e:	f486 0680 	eor.w	r6, r6, #4194304	@ 0x400000
 8008a12:	0076      	lsls	r6, r6, #1
 8008a14:	f516 0f00 	cmn.w	r6, #8388608	@ 0x800000
 8008a18:	f240 8274 	bls.w	8008f04 <__ieee754_powf+0x514>
 8008a1c:	ee38 0a28 	vadd.f32	s0, s16, s17
 8008a20:	ecbd 8b02 	vpop	{d8}
 8008a24:	e8bd 83f8 	ldmia.w	sp!, {r3, r4, r5, r6, r7, r8, r9, pc}
 8008a28:	f026 4800 	bic.w	r8, r6, #2147483648	@ 0x80000000
 8008a2c:	f1b8 4fff 	cmp.w	r8, #2139095040	@ 0x7f800000
 8008a30:	d802      	bhi.n	8008a38 <__ieee754_powf+0x48>
 8008a32:	f1b9 4fff 	cmp.w	r9, #2139095040	@ 0x7f800000
 8008a36:	d908      	bls.n	8008a4a <__ieee754_powf+0x5a>
 8008a38:	f1b6 5f7e 	cmp.w	r6, #1065353216	@ 0x3f800000
 8008a3c:	d1ee      	bne.n	8008a1c <__ieee754_powf+0x2c>
 8008a3e:	f484 0480 	eor.w	r4, r4, #4194304	@ 0x400000
 8008a42:	0064      	lsls	r4, r4, #1
 8008a44:	f514 0f00 	cmn.w	r4, #8388608	@ 0x800000
 8008a48:	e7e6      	b.n	8008a18 <__ieee754_powf+0x28>
 8008a4a:	2e00      	cmp	r6, #0
 8008a4c:	da1f      	bge.n	8008a8e <__ieee754_powf+0x9e>
 8008a4e:	f1b9 4f97 	cmp.w	r9, #1266679808	@ 0x4b800000
 8008a52:	f080 8260 	bcs.w	8008f16 <__ieee754_powf+0x526>
 8008a56:	f1b9 5f7e 	cmp.w	r9, #1065353216	@ 0x3f800000
 8008a5a:	d32f      	bcc.n	8008abc <__ieee754_powf+0xcc>
 8008a5c:	ea4f 53e9 	mov.w	r3, r9, asr #23
 8008a60:	f1c3 0396 	rsb	r3, r3, #150	@ 0x96
 8008a64:	fa49 f503 	asr.w	r5, r9, r3
 8008a68:	fa05 f303 	lsl.w	r3, r5, r3
 8008a6c:	454b      	cmp	r3, r9
 8008a6e:	d123      	bne.n	8008ab8 <__ieee754_powf+0xc8>
 8008a70:	f005 0501 	and.w	r5, r5, #1
 8008a74:	f1c5 0502 	rsb	r5, r5, #2
 8008a78:	f1b9 5f7e 	cmp.w	r9, #1065353216	@ 0x3f800000
 8008a7c:	d11f      	bne.n	8008abe <__ieee754_powf+0xce>
 8008a7e:	2c00      	cmp	r4, #0
 8008a80:	f280 8246 	bge.w	8008f10 <__ieee754_powf+0x520>
 8008a84:	eef7 7a00 	vmov.f32	s15, #112	@ 0x3f800000  1.0
 8008a88:	ee87 0a88 	vdiv.f32	s0, s15, s16
 8008a8c:	e7c8      	b.n	8008a20 <__ieee754_powf+0x30>
 8008a8e:	f1b9 4fff 	cmp.w	r9, #2139095040	@ 0x7f800000
 8008a92:	d111      	bne.n	8008ab8 <__ieee754_powf+0xc8>
 8008a94:	f1b8 5f7e 	cmp.w	r8, #1065353216	@ 0x3f800000
 8008a98:	f000 8234 	beq.w	8008f04 <__ieee754_powf+0x514>
 8008a9c:	d906      	bls.n	8008aac <__ieee754_powf+0xbc>
 8008a9e:	ed9f 0ac5 	vldr	s0, [pc, #788]	@ 8008db4 <__ieee754_powf+0x3c4>
 8008aa2:	2c00      	cmp	r4, #0
 8008aa4:	bfa8      	it	ge
 8008aa6:	eeb0 0a68 	vmovge.f32	s0, s17
 8008aaa:	e7b9      	b.n	8008a20 <__ieee754_powf+0x30>
 8008aac:	2c00      	cmp	r4, #0
 8008aae:	f280 822c 	bge.w	8008f0a <__ieee754_powf+0x51a>
 8008ab2:	eeb1 0a68 	vneg.f32	s0, s17
 8008ab6:	e7b3      	b.n	8008a20 <__ieee754_powf+0x30>
 8008ab8:	2500      	movs	r5, #0
 8008aba:	e7dd      	b.n	8008a78 <__ieee754_powf+0x88>
 8008abc:	2500      	movs	r5, #0
 8008abe:	f1b4 4f80 	cmp.w	r4, #1073741824	@ 0x40000000
 8008ac2:	d102      	bne.n	8008aca <__ieee754_powf+0xda>
 8008ac4:	ee28 0a08 	vmul.f32	s0, s16, s16
 8008ac8:	e7aa      	b.n	8008a20 <__ieee754_powf+0x30>
 8008aca:	f1b4 5f7c 	cmp.w	r4, #1056964608	@ 0x3f000000
 8008ace:	f040 8227 	bne.w	8008f20 <__ieee754_powf+0x530>
 8008ad2:	2e00      	cmp	r6, #0
 8008ad4:	f2c0 8224 	blt.w	8008f20 <__ieee754_powf+0x530>
 8008ad8:	eeb0 0a48 	vmov.f32	s0, s16
 8008adc:	ecbd 8b02 	vpop	{d8}
 8008ae0:	e8bd 43f8 	ldmia.w	sp!, {r3, r4, r5, r6, r7, r8, r9, lr}
 8008ae4:	f7ff bf80 	b.w	80089e8 <__ieee754_sqrtf>
 8008ae8:	2d01      	cmp	r5, #1
 8008aea:	d199      	bne.n	8008a20 <__ieee754_powf+0x30>
 8008aec:	eeb1 0a40 	vneg.f32	s0, s0
 8008af0:	e796      	b.n	8008a20 <__ieee754_powf+0x30>
 8008af2:	0ff0      	lsrs	r0, r6, #31
 8008af4:	3801      	subs	r0, #1
 8008af6:	ea55 0300 	orrs.w	r3, r5, r0
 8008afa:	d104      	bne.n	8008b06 <__ieee754_powf+0x116>
 8008afc:	ee38 8a48 	vsub.f32	s16, s16, s16
 8008b00:	ee88 0a08 	vdiv.f32	s0, s16, s16
 8008b04:	e78c      	b.n	8008a20 <__ieee754_powf+0x30>
 8008b06:	f1b9 4f9a 	cmp.w	r9, #1291845632	@ 0x4d000000
 8008b0a:	d96d      	bls.n	8008be8 <__ieee754_powf+0x1f8>
 8008b0c:	4baa      	ldr	r3, [pc, #680]	@ (8008db8 <__ieee754_powf+0x3c8>)
 8008b0e:	4598      	cmp	r8, r3
 8008b10:	d808      	bhi.n	8008b24 <__ieee754_powf+0x134>
 8008b12:	2c00      	cmp	r4, #0
 8008b14:	da0b      	bge.n	8008b2e <__ieee754_powf+0x13e>
 8008b16:	2000      	movs	r0, #0
 8008b18:	ecbd 8b02 	vpop	{d8}
 8008b1c:	e8bd 43f8 	ldmia.w	sp!, {r3, r4, r5, r6, r7, r8, r9, lr}
 8008b20:	f000 bac2 	b.w	80090a8 <__math_oflowf>
 8008b24:	4ba5      	ldr	r3, [pc, #660]	@ (8008dbc <__ieee754_powf+0x3cc>)
 8008b26:	4598      	cmp	r8, r3
 8008b28:	d908      	bls.n	8008b3c <__ieee754_powf+0x14c>
 8008b2a:	2c00      	cmp	r4, #0
 8008b2c:	dcf3      	bgt.n	8008b16 <__ieee754_powf+0x126>
 8008b2e:	2000      	movs	r0, #0
 8008b30:	ecbd 8b02 	vpop	{d8}
 8008b34:	e8bd 43f8 	ldmia.w	sp!, {r3, r4, r5, r6, r7, r8, r9, lr}
 8008b38:	f000 bab0 	b.w	800909c <__math_uflowf>
 8008b3c:	eef7 7a00 	vmov.f32	s15, #112	@ 0x3f800000  1.0
 8008b40:	ee30 0a67 	vsub.f32	s0, s0, s15
 8008b44:	eddf 6a9e 	vldr	s13, [pc, #632]	@ 8008dc0 <__ieee754_powf+0x3d0>
 8008b48:	eef5 7a00 	vmov.f32	s15, #80	@ 0x3e800000  0.250
 8008b4c:	eee0 6a67 	vfms.f32	s13, s0, s15
 8008b50:	eef6 7a00 	vmov.f32	s15, #96	@ 0x3f000000  0.5
 8008b54:	eee6 7ac0 	vfms.f32	s15, s13, s0
 8008b58:	ee20 7a00 	vmul.f32	s14, s0, s0
 8008b5c:	eddf 6a99 	vldr	s13, [pc, #612]	@ 8008dc4 <__ieee754_powf+0x3d4>
 8008b60:	ee27 7a27 	vmul.f32	s14, s14, s15
 8008b64:	eddf 7a98 	vldr	s15, [pc, #608]	@ 8008dc8 <__ieee754_powf+0x3d8>
 8008b68:	ee67 7ac7 	vnmul.f32	s15, s15, s14
 8008b6c:	ed9f 7a97 	vldr	s14, [pc, #604]	@ 8008dcc <__ieee754_powf+0x3dc>
 8008b70:	eee0 7a07 	vfma.f32	s15, s0, s14
 8008b74:	eeb0 7a67 	vmov.f32	s14, s15
 8008b78:	eea0 7a26 	vfma.f32	s14, s0, s13
 8008b7c:	ee17 3a10 	vmov	r3, s14
 8008b80:	f36f 030b 	bfc	r3, #0, #12
 8008b84:	ee07 3a10 	vmov	s14, r3
 8008b88:	eeb0 6a47 	vmov.f32	s12, s14
 8008b8c:	eea0 6a66 	vfms.f32	s12, s0, s13
 8008b90:	ee77 7ac6 	vsub.f32	s15, s15, s12
 8008b94:	3d01      	subs	r5, #1
 8008b96:	4305      	orrs	r5, r0
 8008b98:	eef7 6a00 	vmov.f32	s13, #112	@ 0x3f800000  1.0
 8008b9c:	eebf 8a00 	vmov.f32	s16, #240	@ 0xbf800000 -1.0
 8008ba0:	f36f 040b 	bfc	r4, #0, #12
 8008ba4:	bf18      	it	ne
 8008ba6:	eeb0 8a66 	vmovne.f32	s16, s13
 8008baa:	ee06 4a90 	vmov	s13, r4
 8008bae:	ee67 0aa8 	vmul.f32	s1, s15, s17
 8008bb2:	ee38 6ae6 	vsub.f32	s12, s17, s13
 8008bb6:	ee67 7a26 	vmul.f32	s15, s14, s13
 8008bba:	eee6 0a07 	vfma.f32	s1, s12, s14
 8008bbe:	ee30 7aa7 	vadd.f32	s14, s1, s15
 8008bc2:	ee17 1a10 	vmov	r1, s14
 8008bc6:	2900      	cmp	r1, #0
 8008bc8:	f021 4300 	bic.w	r3, r1, #2147483648	@ 0x80000000
 8008bcc:	f340 80dd 	ble.w	8008d8a <__ieee754_powf+0x39a>
 8008bd0:	f1b3 4f86 	cmp.w	r3, #1124073472	@ 0x43000000
 8008bd4:	f240 80ca 	bls.w	8008d6c <__ieee754_powf+0x37c>
 8008bd8:	eeb5 8ac0 	vcmpe.f32	s16, #0.0
 8008bdc:	eef1 fa10 	vmrs	APSR_nzcv, fpscr
 8008be0:	bf4c      	ite	mi
 8008be2:	2001      	movmi	r0, #1
 8008be4:	2000      	movpl	r0, #0
 8008be6:	e797      	b.n	8008b18 <__ieee754_powf+0x128>
 8008be8:	f016 4fff 	tst.w	r6, #2139095040	@ 0x7f800000
 8008bec:	bf01      	itttt	eq
 8008bee:	eddf 7a78 	vldreq	s15, [pc, #480]	@ 8008dd0 <__ieee754_powf+0x3e0>
 8008bf2:	ee60 7a27 	vmuleq.f32	s15, s0, s15
 8008bf6:	f06f 0317 	mvneq.w	r3, #23
 8008bfa:	ee17 7a90 	vmoveq	r7, s15
 8008bfe:	ea4f 52e7 	mov.w	r2, r7, asr #23
 8008c02:	bf18      	it	ne
 8008c04:	2300      	movne	r3, #0
 8008c06:	3a7f      	subs	r2, #127	@ 0x7f
 8008c08:	441a      	add	r2, r3
 8008c0a:	4b72      	ldr	r3, [pc, #456]	@ (8008dd4 <__ieee754_powf+0x3e4>)
 8008c0c:	f3c7 0716 	ubfx	r7, r7, #0, #23
 8008c10:	429f      	cmp	r7, r3
 8008c12:	f047 517e 	orr.w	r1, r7, #1065353216	@ 0x3f800000
 8008c16:	dd06      	ble.n	8008c26 <__ieee754_powf+0x236>
 8008c18:	4b6f      	ldr	r3, [pc, #444]	@ (8008dd8 <__ieee754_powf+0x3e8>)
 8008c1a:	429f      	cmp	r7, r3
 8008c1c:	f340 80a4 	ble.w	8008d68 <__ieee754_powf+0x378>
 8008c20:	3201      	adds	r2, #1
 8008c22:	f5a1 0100 	sub.w	r1, r1, #8388608	@ 0x800000
 8008c26:	2600      	movs	r6, #0
 8008c28:	4b6c      	ldr	r3, [pc, #432]	@ (8008ddc <__ieee754_powf+0x3ec>)
 8008c2a:	eb03 0386 	add.w	r3, r3, r6, lsl #2
 8008c2e:	ee07 1a10 	vmov	s14, r1
 8008c32:	edd3 5a00 	vldr	s11, [r3]
 8008c36:	4b6a      	ldr	r3, [pc, #424]	@ (8008de0 <__ieee754_powf+0x3f0>)
 8008c38:	ee75 7a87 	vadd.f32	s15, s11, s14
 8008c3c:	eef7 6a00 	vmov.f32	s13, #112	@ 0x3f800000  1.0
 8008c40:	eec6 4aa7 	vdiv.f32	s9, s13, s15
 8008c44:	1049      	asrs	r1, r1, #1
 8008c46:	f041 5100 	orr.w	r1, r1, #536870912	@ 0x20000000
 8008c4a:	f501 2180 	add.w	r1, r1, #262144	@ 0x40000
 8008c4e:	eb01 5146 	add.w	r1, r1, r6, lsl #21
 8008c52:	ee37 6a65 	vsub.f32	s12, s14, s11
 8008c56:	ee07 1a90 	vmov	s15, r1
 8008c5a:	ee26 5a24 	vmul.f32	s10, s12, s9
 8008c5e:	ee77 5ae5 	vsub.f32	s11, s15, s11
 8008c62:	ee15 7a10 	vmov	r7, s10
 8008c66:	401f      	ands	r7, r3
 8008c68:	ee06 7a90 	vmov	s13, r7
 8008c6c:	eea6 6ae7 	vfms.f32	s12, s13, s15
 8008c70:	ee37 7a65 	vsub.f32	s14, s14, s11
 8008c74:	ee65 7a05 	vmul.f32	s15, s10, s10
 8008c78:	eea6 6ac7 	vfms.f32	s12, s13, s14
 8008c7c:	eddf 5a59 	vldr	s11, [pc, #356]	@ 8008de4 <__ieee754_powf+0x3f4>
 8008c80:	ed9f 7a59 	vldr	s14, [pc, #356]	@ 8008de8 <__ieee754_powf+0x3f8>
 8008c84:	eee7 5a87 	vfma.f32	s11, s15, s14
 8008c88:	ed9f 7a58 	vldr	s14, [pc, #352]	@ 8008dec <__ieee754_powf+0x3fc>
 8008c8c:	eea5 7aa7 	vfma.f32	s14, s11, s15
 8008c90:	eddf 5a4b 	vldr	s11, [pc, #300]	@ 8008dc0 <__ieee754_powf+0x3d0>
 8008c94:	eee7 5a27 	vfma.f32	s11, s14, s15
 8008c98:	ed9f 7a55 	vldr	s14, [pc, #340]	@ 8008df0 <__ieee754_powf+0x400>
 8008c9c:	eea5 7aa7 	vfma.f32	s14, s11, s15
 8008ca0:	eddf 5a54 	vldr	s11, [pc, #336]	@ 8008df4 <__ieee754_powf+0x404>
 8008ca4:	ee26 6a24 	vmul.f32	s12, s12, s9
 8008ca8:	eee7 5a27 	vfma.f32	s11, s14, s15
 8008cac:	ee35 7a26 	vadd.f32	s14, s10, s13
 8008cb0:	ee67 4aa7 	vmul.f32	s9, s15, s15
 8008cb4:	ee27 7a06 	vmul.f32	s14, s14, s12
 8008cb8:	eef0 7a08 	vmov.f32	s15, #8	@ 0x40400000  3.0
 8008cbc:	eea4 7aa5 	vfma.f32	s14, s9, s11
 8008cc0:	eef0 5a67 	vmov.f32	s11, s15
 8008cc4:	eee6 5aa6 	vfma.f32	s11, s13, s13
 8008cc8:	ee75 5a87 	vadd.f32	s11, s11, s14
 8008ccc:	ee15 1a90 	vmov	r1, s11
 8008cd0:	4019      	ands	r1, r3
 8008cd2:	ee05 1a90 	vmov	s11, r1
 8008cd6:	ee75 7ae7 	vsub.f32	s15, s11, s15
 8008cda:	eee6 7ae6 	vfms.f32	s15, s13, s13
 8008cde:	ee77 7a67 	vsub.f32	s15, s14, s15
 8008ce2:	ee67 7a85 	vmul.f32	s15, s15, s10
 8008ce6:	eee6 7a25 	vfma.f32	s15, s12, s11
 8008cea:	eeb0 6a67 	vmov.f32	s12, s15
 8008cee:	eea6 6aa5 	vfma.f32	s12, s13, s11
 8008cf2:	ee16 1a10 	vmov	r1, s12
 8008cf6:	4019      	ands	r1, r3
 8008cf8:	ee06 1a10 	vmov	s12, r1
 8008cfc:	eeb0 7a46 	vmov.f32	s14, s12
 8008d00:	eea6 7ae5 	vfms.f32	s14, s13, s11
 8008d04:	493c      	ldr	r1, [pc, #240]	@ (8008df8 <__ieee754_powf+0x408>)
 8008d06:	eb01 0186 	add.w	r1, r1, r6, lsl #2
 8008d0a:	ee77 7ac7 	vsub.f32	s15, s15, s14
 8008d0e:	ed9f 7a3b 	vldr	s14, [pc, #236]	@ 8008dfc <__ieee754_powf+0x40c>
 8008d12:	eddf 5a3b 	vldr	s11, [pc, #236]	@ 8008e00 <__ieee754_powf+0x410>
 8008d16:	ee67 7a87 	vmul.f32	s15, s15, s14
 8008d1a:	ed9f 7a3a 	vldr	s14, [pc, #232]	@ 8008e04 <__ieee754_powf+0x414>
 8008d1e:	eee6 7a07 	vfma.f32	s15, s12, s14
 8008d22:	ed91 7a00 	vldr	s14, [r1]
 8008d26:	ee77 7a87 	vadd.f32	s15, s15, s14
 8008d2a:	ee07 2a10 	vmov	s14, r2
 8008d2e:	4a36      	ldr	r2, [pc, #216]	@ (8008e08 <__ieee754_powf+0x418>)
 8008d30:	eef8 6ac7 	vcvt.f32.s32	s13, s14
 8008d34:	eeb0 7a67 	vmov.f32	s14, s15
 8008d38:	eea6 7a25 	vfma.f32	s14, s12, s11
 8008d3c:	eb02 0286 	add.w	r2, r2, r6, lsl #2
 8008d40:	ed92 5a00 	vldr	s10, [r2]
 8008d44:	ee37 7a05 	vadd.f32	s14, s14, s10
 8008d48:	ee37 7a26 	vadd.f32	s14, s14, s13
 8008d4c:	ee17 2a10 	vmov	r2, s14
 8008d50:	401a      	ands	r2, r3
 8008d52:	ee07 2a10 	vmov	s14, r2
 8008d56:	ee77 6a66 	vsub.f32	s13, s14, s13
 8008d5a:	ee76 6ac5 	vsub.f32	s13, s13, s10
 8008d5e:	eee6 6a65 	vfms.f32	s13, s12, s11
 8008d62:	ee77 7ae6 	vsub.f32	s15, s15, s13
 8008d66:	e715      	b.n	8008b94 <__ieee754_powf+0x1a4>
 8008d68:	2601      	movs	r6, #1
 8008d6a:	e75d      	b.n	8008c28 <__ieee754_powf+0x238>
 8008d6c:	d152      	bne.n	8008e14 <__ieee754_powf+0x424>
 8008d6e:	eddf 6a27 	vldr	s13, [pc, #156]	@ 8008e0c <__ieee754_powf+0x41c>
 8008d72:	ee37 7a67 	vsub.f32	s14, s14, s15
 8008d76:	ee70 6aa6 	vadd.f32	s13, s1, s13
 8008d7a:	eef4 6ac7 	vcmpe.f32	s13, s14
 8008d7e:	eef1 fa10 	vmrs	APSR_nzcv, fpscr
 8008d82:	f73f af29 	bgt.w	8008bd8 <__ieee754_powf+0x1e8>
 8008d86:	2386      	movs	r3, #134	@ 0x86
 8008d88:	e048      	b.n	8008e1c <__ieee754_powf+0x42c>
 8008d8a:	4a21      	ldr	r2, [pc, #132]	@ (8008e10 <__ieee754_powf+0x420>)
 8008d8c:	4293      	cmp	r3, r2
 8008d8e:	d907      	bls.n	8008da0 <__ieee754_powf+0x3b0>
 8008d90:	eeb5 8ac0 	vcmpe.f32	s16, #0.0
 8008d94:	eef1 fa10 	vmrs	APSR_nzcv, fpscr
 8008d98:	bf4c      	ite	mi
 8008d9a:	2001      	movmi	r0, #1
 8008d9c:	2000      	movpl	r0, #0
 8008d9e:	e6c7      	b.n	8008b30 <__ieee754_powf+0x140>
 8008da0:	d138      	bne.n	8008e14 <__ieee754_powf+0x424>
 8008da2:	ee37 7a67 	vsub.f32	s14, s14, s15
 8008da6:	eeb4 7ae0 	vcmpe.f32	s14, s1
 8008daa:	eef1 fa10 	vmrs	APSR_nzcv, fpscr
 8008dae:	dbea      	blt.n	8008d86 <__ieee754_powf+0x396>
 8008db0:	e7ee      	b.n	8008d90 <__ieee754_powf+0x3a0>
 8008db2:	bf00      	nop
 8008db4:	00000000 	.word	0x00000000
 8008db8:	3f7ffff3 	.word	0x3f7ffff3
 8008dbc:	3f800007 	.word	0x3f800007
 8008dc0:	3eaaaaab 	.word	0x3eaaaaab
 8008dc4:	3fb8aa00 	.word	0x3fb8aa00
 8008dc8:	3fb8aa3b 	.word	0x3fb8aa3b
 8008dcc:	36eca570 	.word	0x36eca570
 8008dd0:	4b800000 	.word	0x4b800000
 8008dd4:	001cc471 	.word	0x001cc471
 8008dd8:	005db3d6 	.word	0x005db3d6
 8008ddc:	08009ce4 	.word	0x08009ce4
 8008de0:	fffff000 	.word	0xfffff000
 8008de4:	3e6c3255 	.word	0x3e6c3255
 8008de8:	3e53f142 	.word	0x3e53f142
 8008dec:	3e8ba305 	.word	0x3e8ba305
 8008df0:	3edb6db7 	.word	0x3edb6db7
 8008df4:	3f19999a 	.word	0x3f19999a
 8008df8:	08009cd4 	.word	0x08009cd4
 8008dfc:	3f76384f 	.word	0x3f76384f
 8008e00:	3f763800 	.word	0x3f763800
 8008e04:	369dc3a0 	.word	0x369dc3a0
 8008e08:	08009cdc 	.word	0x08009cdc
 8008e0c:	3338aa3c 	.word	0x3338aa3c
 8008e10:	43160000 	.word	0x43160000
 8008e14:	f1b3 5f7c 	cmp.w	r3, #1056964608	@ 0x3f000000
 8008e18:	d96f      	bls.n	8008efa <__ieee754_powf+0x50a>
 8008e1a:	15db      	asrs	r3, r3, #23
 8008e1c:	3b7e      	subs	r3, #126	@ 0x7e
 8008e1e:	f44f 0000 	mov.w	r0, #8388608	@ 0x800000
 8008e22:	4118      	asrs	r0, r3
 8008e24:	4408      	add	r0, r1
 8008e26:	f3c0 53c7 	ubfx	r3, r0, #23, #8
 8008e2a:	4a4e      	ldr	r2, [pc, #312]	@ (8008f64 <__ieee754_powf+0x574>)
 8008e2c:	3b7f      	subs	r3, #127	@ 0x7f
 8008e2e:	411a      	asrs	r2, r3
 8008e30:	4002      	ands	r2, r0
 8008e32:	ee07 2a10 	vmov	s14, r2
 8008e36:	f3c0 0016 	ubfx	r0, r0, #0, #23
 8008e3a:	f440 0000 	orr.w	r0, r0, #8388608	@ 0x800000
 8008e3e:	f1c3 0317 	rsb	r3, r3, #23
 8008e42:	4118      	asrs	r0, r3
 8008e44:	2900      	cmp	r1, #0
 8008e46:	ee77 7ac7 	vsub.f32	s15, s15, s14
 8008e4a:	bfb8      	it	lt
 8008e4c:	4240      	neglt	r0, r0
 8008e4e:	ee77 6aa0 	vadd.f32	s13, s15, s1
 8008e52:	ed9f 7a45 	vldr	s14, [pc, #276]	@ 8008f68 <__ieee754_powf+0x578>
 8008e56:	ed9f 6a45 	vldr	s12, [pc, #276]	@ 8008f6c <__ieee754_powf+0x57c>
 8008e5a:	ee16 3a90 	vmov	r3, s13
 8008e5e:	f36f 030b 	bfc	r3, #0, #12
 8008e62:	ee06 3a90 	vmov	s13, r3
 8008e66:	ee76 7ae7 	vsub.f32	s15, s13, s15
 8008e6a:	eeb7 0a00 	vmov.f32	s0, #112	@ 0x3f800000  1.0
 8008e6e:	ee70 0ae7 	vsub.f32	s1, s1, s15
 8008e72:	eddf 7a3f 	vldr	s15, [pc, #252]	@ 8008f70 <__ieee754_powf+0x580>
 8008e76:	ee66 7aa7 	vmul.f32	s15, s13, s15
 8008e7a:	eee0 7a87 	vfma.f32	s15, s1, s14
 8008e7e:	eeb0 7a67 	vmov.f32	s14, s15
 8008e82:	eea6 7a86 	vfma.f32	s14, s13, s12
 8008e86:	eef0 5a47 	vmov.f32	s11, s14
 8008e8a:	eee6 5ac6 	vfms.f32	s11, s13, s12
 8008e8e:	ee67 6a07 	vmul.f32	s13, s14, s14
 8008e92:	ee77 7ae5 	vsub.f32	s15, s15, s11
 8008e96:	ed9f 6a37 	vldr	s12, [pc, #220]	@ 8008f74 <__ieee754_powf+0x584>
 8008e9a:	eddf 5a37 	vldr	s11, [pc, #220]	@ 8008f78 <__ieee754_powf+0x588>
 8008e9e:	eea6 6aa5 	vfma.f32	s12, s13, s11
 8008ea2:	eddf 5a36 	vldr	s11, [pc, #216]	@ 8008f7c <__ieee754_powf+0x58c>
 8008ea6:	eee6 5a26 	vfma.f32	s11, s12, s13
 8008eaa:	ed9f 6a35 	vldr	s12, [pc, #212]	@ 8008f80 <__ieee754_powf+0x590>
 8008eae:	eea5 6aa6 	vfma.f32	s12, s11, s13
 8008eb2:	eddf 5a34 	vldr	s11, [pc, #208]	@ 8008f84 <__ieee754_powf+0x594>
 8008eb6:	eee6 5a26 	vfma.f32	s11, s12, s13
 8008eba:	eeb0 6a47 	vmov.f32	s12, s14
 8008ebe:	eea5 6ae6 	vfms.f32	s12, s11, s13
 8008ec2:	eef0 6a00 	vmov.f32	s13, #0	@ 0x40000000  2.0
 8008ec6:	ee67 5a06 	vmul.f32	s11, s14, s12
 8008eca:	ee36 6a66 	vsub.f32	s12, s12, s13
 8008ece:	eee7 7a27 	vfma.f32	s15, s14, s15
 8008ed2:	eec5 6a86 	vdiv.f32	s13, s11, s12
 8008ed6:	ee76 7ae7 	vsub.f32	s15, s13, s15
 8008eda:	ee77 7ac7 	vsub.f32	s15, s15, s14
 8008ede:	ee30 0a67 	vsub.f32	s0, s0, s15
 8008ee2:	ee10 3a10 	vmov	r3, s0
 8008ee6:	eb03 53c0 	add.w	r3, r3, r0, lsl #23
 8008eea:	f5b3 0f00 	cmp.w	r3, #8388608	@ 0x800000
 8008eee:	da06      	bge.n	8008efe <__ieee754_powf+0x50e>
 8008ef0:	f000 f854 	bl	8008f9c <scalbnf>
 8008ef4:	ee20 0a08 	vmul.f32	s0, s0, s16
 8008ef8:	e592      	b.n	8008a20 <__ieee754_powf+0x30>
 8008efa:	2000      	movs	r0, #0
 8008efc:	e7a7      	b.n	8008e4e <__ieee754_powf+0x45e>
 8008efe:	ee00 3a10 	vmov	s0, r3
 8008f02:	e7f7      	b.n	8008ef4 <__ieee754_powf+0x504>
 8008f04:	eeb7 0a00 	vmov.f32	s0, #112	@ 0x3f800000  1.0
 8008f08:	e58a      	b.n	8008a20 <__ieee754_powf+0x30>
 8008f0a:	ed9f 0a1f 	vldr	s0, [pc, #124]	@ 8008f88 <__ieee754_powf+0x598>
 8008f0e:	e587      	b.n	8008a20 <__ieee754_powf+0x30>
 8008f10:	eeb0 0a48 	vmov.f32	s0, s16
 8008f14:	e584      	b.n	8008a20 <__ieee754_powf+0x30>
 8008f16:	f1b9 4fff 	cmp.w	r9, #2139095040	@ 0x7f800000
 8008f1a:	f43f adbb 	beq.w	8008a94 <__ieee754_powf+0xa4>
 8008f1e:	2502      	movs	r5, #2
 8008f20:	eeb0 0a48 	vmov.f32	s0, s16
 8008f24:	f000 f832 	bl	8008f8c <fabsf>
 8008f28:	f026 4340 	bic.w	r3, r6, #3221225472	@ 0xc0000000
 8008f2c:	f1b3 5f7e 	cmp.w	r3, #1065353216	@ 0x3f800000
 8008f30:	4647      	mov	r7, r8
 8008f32:	d003      	beq.n	8008f3c <__ieee754_powf+0x54c>
 8008f34:	f1b8 0f00 	cmp.w	r8, #0
 8008f38:	f47f addb 	bne.w	8008af2 <__ieee754_powf+0x102>
 8008f3c:	2c00      	cmp	r4, #0
 8008f3e:	bfbc      	itt	lt
 8008f40:	eef7 7a00 	vmovlt.f32	s15, #112	@ 0x3f800000  1.0
 8008f44:	ee87 0a80 	vdivlt.f32	s0, s15, s0
 8008f48:	2e00      	cmp	r6, #0
 8008f4a:	f6bf ad69 	bge.w	8008a20 <__ieee754_powf+0x30>
 8008f4e:	f1a8 587e 	sub.w	r8, r8, #1065353216	@ 0x3f800000
 8008f52:	ea58 0805 	orrs.w	r8, r8, r5
 8008f56:	f47f adc7 	bne.w	8008ae8 <__ieee754_powf+0xf8>
 8008f5a:	ee70 7a40 	vsub.f32	s15, s0, s0
 8008f5e:	ee87 0aa7 	vdiv.f32	s0, s15, s15
 8008f62:	e55d      	b.n	8008a20 <__ieee754_powf+0x30>
 8008f64:	ff800000 	.word	0xff800000
 8008f68:	3f317218 	.word	0x3f317218
 8008f6c:	3f317200 	.word	0x3f317200
 8008f70:	35bfbe8c 	.word	0x35bfbe8c
 8008f74:	b5ddea0e 	.word	0xb5ddea0e
 8008f78:	3331bb4c 	.word	0x3331bb4c
 8008f7c:	388ab355 	.word	0x388ab355
 8008f80:	bb360b61 	.word	0xbb360b61
 8008f84:	3e2aaaab 	.word	0x3e2aaaab
 8008f88:	00000000 	.word	0x00000000

08008f8c <fabsf>:
 8008f8c:	ee10 3a10 	vmov	r3, s0
 8008f90:	f023 4300 	bic.w	r3, r3, #2147483648	@ 0x80000000
 8008f94:	ee00 3a10 	vmov	s0, r3
 8008f98:	4770      	bx	lr
	...

08008f9c <scalbnf>:
 8008f9c:	ee10 3a10 	vmov	r3, s0
 8008fa0:	f033 4200 	bics.w	r2, r3, #2147483648	@ 0x80000000
 8008fa4:	d02b      	beq.n	8008ffe <scalbnf+0x62>
 8008fa6:	f1b2 4fff 	cmp.w	r2, #2139095040	@ 0x7f800000
 8008faa:	d302      	bcc.n	8008fb2 <scalbnf+0x16>
 8008fac:	ee30 0a00 	vadd.f32	s0, s0, s0
 8008fb0:	4770      	bx	lr
 8008fb2:	f013 4fff 	tst.w	r3, #2139095040	@ 0x7f800000
 8008fb6:	d123      	bne.n	8009000 <scalbnf+0x64>
 8008fb8:	4b24      	ldr	r3, [pc, #144]	@ (800904c <scalbnf+0xb0>)
 8008fba:	eddf 7a25 	vldr	s15, [pc, #148]	@ 8009050 <scalbnf+0xb4>
 8008fbe:	4298      	cmp	r0, r3
 8008fc0:	ee20 0a27 	vmul.f32	s0, s0, s15
 8008fc4:	db17      	blt.n	8008ff6 <scalbnf+0x5a>
 8008fc6:	ee10 3a10 	vmov	r3, s0
 8008fca:	f3c3 52c7 	ubfx	r2, r3, #23, #8
 8008fce:	3a19      	subs	r2, #25
 8008fd0:	f24c 3150 	movw	r1, #50000	@ 0xc350
 8008fd4:	4288      	cmp	r0, r1
 8008fd6:	dd15      	ble.n	8009004 <scalbnf+0x68>
 8008fd8:	eddf 7a1e 	vldr	s15, [pc, #120]	@ 8009054 <scalbnf+0xb8>
 8008fdc:	eddf 6a1e 	vldr	s13, [pc, #120]	@ 8009058 <scalbnf+0xbc>
 8008fe0:	ee10 3a10 	vmov	r3, s0
 8008fe4:	eeb0 7a67 	vmov.f32	s14, s15
 8008fe8:	2b00      	cmp	r3, #0
 8008fea:	bfb8      	it	lt
 8008fec:	eef0 7a66 	vmovlt.f32	s15, s13
 8008ff0:	ee27 0a87 	vmul.f32	s0, s15, s14
 8008ff4:	4770      	bx	lr
 8008ff6:	eddf 7a19 	vldr	s15, [pc, #100]	@ 800905c <scalbnf+0xc0>
 8008ffa:	ee27 0a80 	vmul.f32	s0, s15, s0
 8008ffe:	4770      	bx	lr
 8009000:	0dd2      	lsrs	r2, r2, #23
 8009002:	e7e5      	b.n	8008fd0 <scalbnf+0x34>
 8009004:	4410      	add	r0, r2
 8009006:	28fe      	cmp	r0, #254	@ 0xfe
 8009008:	dce6      	bgt.n	8008fd8 <scalbnf+0x3c>
 800900a:	2800      	cmp	r0, #0
 800900c:	dd06      	ble.n	800901c <scalbnf+0x80>
 800900e:	f023 43ff 	bic.w	r3, r3, #2139095040	@ 0x7f800000
 8009012:	ea43 53c0 	orr.w	r3, r3, r0, lsl #23
 8009016:	ee00 3a10 	vmov	s0, r3
 800901a:	4770      	bx	lr
 800901c:	f110 0f16 	cmn.w	r0, #22
 8009020:	da09      	bge.n	8009036 <scalbnf+0x9a>
 8009022:	eddf 7a0e 	vldr	s15, [pc, #56]	@ 800905c <scalbnf+0xc0>
 8009026:	eddf 6a0e 	vldr	s13, [pc, #56]	@ 8009060 <scalbnf+0xc4>
 800902a:	ee10 3a10 	vmov	r3, s0
 800902e:	eeb0 7a67 	vmov.f32	s14, s15
 8009032:	2b00      	cmp	r3, #0
 8009034:	e7d9      	b.n	8008fea <scalbnf+0x4e>
 8009036:	3019      	adds	r0, #25
 8009038:	f023 43ff 	bic.w	r3, r3, #2139095040	@ 0x7f800000
 800903c:	ea43 53c0 	orr.w	r3, r3, r0, lsl #23
 8009040:	ed9f 0a08 	vldr	s0, [pc, #32]	@ 8009064 <scalbnf+0xc8>
 8009044:	ee07 3a90 	vmov	s15, r3
 8009048:	e7d7      	b.n	8008ffa <scalbnf+0x5e>
 800904a:	bf00      	nop
 800904c:	ffff3cb0 	.word	0xffff3cb0
 8009050:	4c000000 	.word	0x4c000000
 8009054:	7149f2ca 	.word	0x7149f2ca
 8009058:	f149f2ca 	.word	0xf149f2ca
 800905c:	0da24260 	.word	0x0da24260
 8009060:	8da24260 	.word	0x8da24260
 8009064:	33000000 	.word	0x33000000

08009068 <with_errnof>:
 8009068:	b510      	push	{r4, lr}
 800906a:	ed2d 8b02 	vpush	{d8}
 800906e:	eeb0 8a40 	vmov.f32	s16, s0
 8009072:	4604      	mov	r4, r0
 8009074:	f7fd fc50 	bl	8006918 <__errno>
 8009078:	eeb0 0a48 	vmov.f32	s0, s16
 800907c:	ecbd 8b02 	vpop	{d8}
 8009080:	6004      	str	r4, [r0, #0]
 8009082:	bd10      	pop	{r4, pc}

08009084 <xflowf>:
 8009084:	b130      	cbz	r0, 8009094 <xflowf+0x10>
 8009086:	eef1 7a40 	vneg.f32	s15, s0
 800908a:	ee27 0a80 	vmul.f32	s0, s15, s0
 800908e:	2022      	movs	r0, #34	@ 0x22
 8009090:	f7ff bfea 	b.w	8009068 <with_errnof>
 8009094:	eef0 7a40 	vmov.f32	s15, s0
 8009098:	e7f7      	b.n	800908a <xflowf+0x6>
	...

0800909c <__math_uflowf>:
 800909c:	ed9f 0a01 	vldr	s0, [pc, #4]	@ 80090a4 <__math_uflowf+0x8>
 80090a0:	f7ff bff0 	b.w	8009084 <xflowf>
 80090a4:	10000000 	.word	0x10000000

080090a8 <__math_oflowf>:
 80090a8:	ed9f 0a01 	vldr	s0, [pc, #4]	@ 80090b0 <__math_oflowf+0x8>
 80090ac:	f7ff bfea 	b.w	8009084 <xflowf>
 80090b0:	70000000 	.word	0x70000000

080090b4 <_write>:
 80090b4:	4b02      	ldr	r3, [pc, #8]	@ (80090c0 <_write+0xc>)
 80090b6:	2258      	movs	r2, #88	@ 0x58
 80090b8:	601a      	str	r2, [r3, #0]
 80090ba:	f04f 30ff 	mov.w	r0, #4294967295
 80090be:	4770      	bx	lr
 80090c0:	20000518 	.word	0x20000518

080090c4 <_exit>:
 80090c4:	e7fe      	b.n	80090c4 <_exit>
	...

080090c8 <_init>:
 80090c8:	b5f8      	push	{r3, r4, r5, r6, r7, lr}
 80090ca:	bf00      	nop
 80090cc:	bcf8      	pop	{r3, r4, r5, r6, r7}
 80090ce:	bc08      	pop	{r3}
 80090d0:	469e      	mov	lr, r3
 80090d2:	4770      	bx	lr

080090d4 <_fini>:
 80090d4:	b5f8      	push	{r3, r4, r5, r6, r7, lr}
 80090d6:	bf00      	nop
 80090d8:	bcf8      	pop	{r3, r4, r5, r6, r7}
 80090da:	bc08      	pop	{r3}
 80090dc:	469e      	mov	lr, r3
 80090de:	4770      	bx	lr
